(dp1
S'output'
p2
S"<type 'exceptions.SyntaxError'> invalid syntax (controllers/methodsofpayment.py, line 5)"
p3
sS'layer'
p4
S'C:\\Users\\Juliano\\Documents\\Visual Studio 2012\\Projects\\PFM-Web\\applications\\PFM_Web\\controllers/methodsofpayment.py'
p5
sS'code'
p6
S'# -*- coding: utf-8 -*-\n\n@auth.requires_login()\ndef index():\n    grid = SQLFORM.grid(db()select(db.methodOfPayment.user_id == auth.user_id))\n    return dict(grid=grid)\n\ndef user():\n    """\n    exposes:\n    http://..../[app]/default/user/login\n    http://..../[app]/default/user/logout\n    http://..../[app]/default/user/register\n    http://..../[app]/default/user/profile\n    http://..../[app]/default/user/retrieve_password\n    http://..../[app]/default/user/change_password\n    use @auth.requires_login()\n        @auth.requires_membership(\'group name\')\n        @auth.requires_permission(\'read\',\'table name\',record_id)\n    to decorate functions that need access control\n    """\n    return dict(form=auth())\n\ndef download():\n    """\n    allows downloading of uploaded files\n    http://..../[app]/default/download/[filename]\n    """\n    return response.download(request, db)\n\ndef call():\n    """\n    exposes services. for example:\n    http://..../[app]/default/call/jsonrpc\n    decorate with @services.jsonrpc the functions to expose\n    supports xml, json, xmlrpc, jsonrpc, amfrpc, rss, csv\n    """\n    return service()\n\n@auth.requires_signature()\ndef data():\n    """\n    http://..../[app]/default/data/tables\n    http://..../[app]/default/data/create/[table]\n    http://..../[app]/default/data/read/[table]/[id]\n    http://..../[app]/default/data/update/[table]/[id]\n    http://..../[app]/default/data/delete/[table]/[id]\n    http://..../[app]/default/data/select/[table]\n    http://..../[app]/default/data/search/[table]\n    but URLs must be signed, i.e. linked with\n      A(\'table\',_href=URL(\'data/tables\',user_signature=True))\n    or with the signed load operator\n      LOAD(\'default\',\'data.load\',args=\'tables\',ajax=True,user_signature=True)\n    """\n    return dict(form=crud())\n\nresponse._vars=response._caller(index)\n'
p7
sS'snapshot'
p8
(dp9
S'exception'
p10
(dp11
S'__getslice__'
p12
S"<method-wrapper '__getslice__' of exceptions.SyntaxError object>"
p13
sS'text'
p14
S"'    grid = SQLFORM.grid(db()select(db.methodOfPayment.user_id == auth.user_id))\\n'"
p15
sS'__str__'
p16
S"<method-wrapper '__str__' of exceptions.SyntaxError object>"
p17
sS'__reduce__'
p18
S'<built-in method __reduce__ of exceptions.SyntaxError object>'
p19
sS'__dict__'
p20
S'{}'
p21
sS'__sizeof__'
p22
S'<built-in method __sizeof__ of exceptions.SyntaxError object>'
p23
sS'__init__'
p24
S"<method-wrapper '__init__' of exceptions.SyntaxError object>"
p25
sS'__setattr__'
p26
S"<method-wrapper '__setattr__' of exceptions.SyntaxError object>"
p27
sS'__reduce_ex__'
p28
S'<built-in method __reduce_ex__ of exceptions.SyntaxError object>'
p29
sS'__new__'
p30
S'<built-in method __new__ of type object>'
p31
sS'__format__'
p32
S'<built-in method __format__ of exceptions.SyntaxError object>'
p33
sS'__class__'
p34
S"<type 'exceptions.SyntaxError'>"
p35
sS'filename'
p36
S"r'C:\\Users\\Juliano\\Documents\\Visual Studio 2012\\Pr...lications\\PFM_Web\\controllers/methodsofpayment.py'"
p37
sS'lineno'
p38
S'5'
sS'msg'
p39
S"'invalid syntax'"
p40
sS'__doc__'
p41
S"'Invalid syntax.'"
p42
sS'__getitem__'
p43
S"<method-wrapper '__getitem__' of exceptions.SyntaxError object>"
p44
sS'__setstate__'
p45
S'<built-in method __setstate__ of exceptions.SyntaxError object>'
p46
sS'__getattribute__'
p47
S"<method-wrapper '__getattribute__' of exceptions.SyntaxError object>"
p48
sS'print_file_and_line'
p49
S'None'
p50
sS'args'
p51
S"('invalid syntax', (r'C:\\Users\\Juliano\\Documents\\Visual Studio 2012\\Pr...lications\\PFM_Web\\controllers/methodsofpayment.py', 5, 34, '    grid = SQLFORM.grid(db()select(db.methodOfPayment.user_id == auth.user_id))\\n'))"
p52
sS'__subclasshook__'
p53
S'<built-in method __subclasshook__ of type object>'
p54
sS'offset'
p55
S'34'
p56
sS'__unicode__'
p57
S'<built-in method __unicode__ of exceptions.SyntaxError object>'
p58
sS'__delattr__'
p59
S"<method-wrapper '__delattr__' of exceptions.SyntaxError object>"
p60
sS'__repr__'
p61
S"<method-wrapper '__repr__' of exceptions.SyntaxError object>"
p62
sS'__hash__'
p63
S"<method-wrapper '__hash__' of exceptions.SyntaxError object>"
p64
ssS'evalue'
p65
S'invalid syntax (controllers/methodsofpayment.py, line 5)'
p66
sS'request'
p67
ccopy_reg
_reconstructor
p68
(cgluon.html
BEAUTIFY
p69
c__builtin__
object
p70
NtRp71
(dp72
S'attributes'
p73
(dp74
sS'components'
p75
(lp76
g68
(cgluon.html
TABLE
p77
g70
NtRp78
(dp79
g73
(dp80
S'level'
p81
I5
ssS'parent'
p82
Nsg75
(lp83
g68
(cgluon.html
TR
p84
g70
NtRp85
(dp86
g73
(dp87
sg82
g78
sg75
(lp88
g68
(cgluon.html
TD
p89
g70
NtRp90
(dp91
g73
(dp92
S'_style'
p93
S'font-weight:bold;vertical-align:top'
p94
ssg82
g85
sg75
(lp95
S'ajax'
p96
asbag68
(g89
g70
NtRp97
(dp98
g73
(dp99
S'_valign'
p100
S'top'
p101
ssg82
g85
sg75
(lp102
S':'
asbag68
(g89
g70
NtRp103
(dp104
g73
(dp105
sg82
g85
sg75
(lp106
g68
(g69
g70
NtRp107
(dp108
g73
(dp109
g81
I5
ssg82
g103
sg75
(lp110
S'False'
p111
asbasbasbag68
(g84
g70
NtRp112
(dp113
g73
(dp114
sg82
g78
sg75
(lp115
g68
(g89
g70
NtRp116
(dp117
g73
(dp118
g93
g94
ssg82
g112
sg75
(lp119
S'application'
p120
asbag68
(g89
g70
NtRp121
(dp122
g73
(dp123
g100
g101
ssg82
g112
sg75
(lp124
S':'
asbag68
(g89
g70
NtRp125
(dp126
g73
(dp127
sg82
g112
sg75
(lp128
g68
(g69
g70
NtRp129
(dp130
g73
(dp131
g81
I5
ssg82
g125
sg75
(lp132
S'PFM_Web'
p133
asbasbasbag68
(g84
g70
NtRp134
(dp135
g73
(dp136
sg82
g78
sg75
(lp137
g68
(g89
g70
NtRp138
(dp139
g73
(dp140
g93
g94
ssg82
g134
sg75
(lp141
g51
asbag68
(g89
g70
NtRp142
(dp143
g73
(dp144
g100
g101
ssg82
g134
sg75
(lp145
S':'
asbag68
(g89
g70
NtRp146
(dp147
g73
(dp148
sg82
g134
sg75
(lp149
g68
(g69
g70
NtRp150
(dp151
g73
(dp152
g81
I5
ssg82
g146
sg75
(lp153
g68
(g77
g70
NtRp154
(dp155
g73
(dp156
g81
I4
ssg82
Nsg75
(lp157
sbasbasbasbag68
(g84
g70
NtRp158
(dp159
g73
(dp160
sg82
g78
sg75
(lp161
g68
(g89
g70
NtRp162
(dp163
g73
(dp164
g93
g94
ssg82
g158
sg75
(lp165
S'body'
p166
asbag68
(g89
g70
NtRp167
(dp168
g73
(dp169
g100
g101
ssg82
g158
sg75
(lp170
S':'
asbag68
(g89
g70
NtRp171
(dp172
g73
(dp173
sg82
g158
sg75
(lp174
g68
(g69
g70
NtRp175
(dp176
g73
(dp177
g81
I5
ssg82
g171
sg75
(lp178
S'<cStringIO.StringO object at 0x0000000004592960>'
p179
asbasbasbag68
(g84
g70
NtRp180
(dp181
g73
(dp182
sg82
g78
sg75
(lp183
g68
(g89
g70
NtRp184
(dp185
g73
(dp186
g93
g94
ssg82
g180
sg75
(lp187
S'cid'
p188
asbag68
(g89
g70
NtRp189
(dp190
g73
(dp191
g100
g101
ssg82
g180
sg75
(lp192
S':'
asbag68
(g89
g70
NtRp193
(dp194
g73
(dp195
sg82
g180
sg75
(lp196
g68
(g69
g70
NtRp197
(dp198
g73
(dp199
g81
I5
ssg82
g193
sg75
(lp200
S'None'
p201
asbasbasbag68
(g84
g70
NtRp202
(dp203
g73
(dp204
sg82
g78
sg75
(lp205
g68
(g89
g70
NtRp206
(dp207
g73
(dp208
g93
g94
ssg82
g202
sg75
(lp209
S'client'
p210
asbag68
(g89
g70
NtRp211
(dp212
g73
(dp213
g100
g101
ssg82
g202
sg75
(lp214
S':'
asbag68
(g89
g70
NtRp215
(dp216
g73
(dp217
sg82
g202
sg75
(lp218
g68
(g69
g70
NtRp219
(dp220
g73
(dp221
g81
I5
ssg82
g215
sg75
(lp222
S'127.0.0.1'
p223
asbasbasbag68
(g84
g70
NtRp224
(dp225
g73
(dp226
sg82
g78
sg75
(lp227
g68
(g89
g70
NtRp228
(dp229
g73
(dp230
g93
g94
ssg82
g224
sg75
(lp231
S'controller'
p232
asbag68
(g89
g70
NtRp233
(dp234
g73
(dp235
g100
g101
ssg82
g224
sg75
(lp236
S':'
asbag68
(g89
g70
NtRp237
(dp238
g73
(dp239
sg82
g224
sg75
(lp240
g68
(g69
g70
NtRp241
(dp242
g73
(dp243
g81
I5
ssg82
g237
sg75
(lp244
S'methodsofpayment'
p245
asbasbasbag68
(g84
g70
NtRp246
(dp247
g73
(dp248
sg82
g78
sg75
(lp249
g68
(g89
g70
NtRp250
(dp251
g73
(dp252
g93
g94
ssg82
g246
sg75
(lp253
S'cookies'
p254
asbag68
(g89
g70
NtRp255
(dp256
g73
(dp257
g100
g101
ssg82
g246
sg75
(lp258
S':'
asbag68
(g89
g70
NtRp259
(dp260
g73
(dp261
sg82
g246
sg75
(lp262
g68
(g69
g70
NtRp263
(dp264
g73
(dp265
g81
I5
ssg82
g259
sg75
(lp266
g68
(g77
g70
NtRp267
(dp268
g73
(dp269
g81
I4
ssg82
Nsg75
(lp270
g68
(g84
g70
NtRp271
(dp272
g73
(dp273
sg82
g267
sg75
(lp274
g68
(g89
g70
NtRp275
(dp276
g73
(dp277
g93
g94
ssg82
g271
sg75
(lp278
S'session_id_pfm_web'
p279
asbag68
(g89
g70
NtRp280
(dp281
g73
(dp282
g100
g101
ssg82
g271
sg75
(lp283
S':'
asbag68
(g89
g70
NtRp284
(dp285
g73
(dp286
sg82
g271
sg75
(lp287
g68
(g69
g70
NtRp288
(dp289
g73
(dp290
g81
I4
ssg82
g284
sg75
(lp291
S'127.0.0.1-20f97d82-38f3-49d5-8814-e32bae7aa042'
p292
ag68
(g77
g70
NtRp293
(dp294
g73
(dp295
g81
I3
ssg82
Nsg75
(lp296
g68
(g84
g70
NtRp297
(dp298
g73
(dp299
sg82
g293
sg75
(lp300
g68
(g89
g70
NtRp301
(dp302
g73
(dp303
g93
g94
ssg82
g297
sg75
(lp304
S'comment'
p305
asbag68
(g89
g70
NtRp306
(dp307
g73
(dp308
g100
g101
ssg82
g297
sg75
(lp309
S':'
asbag68
(g89
g70
NtRp310
(dp311
g73
(dp312
sg82
g297
sg75
(lp313
g68
(g69
g70
NtRp314
(dp315
g73
(dp316
g81
I3
ssg82
g310
sg75
(lp317
S''
asbasbasbag68
(g84
g70
NtRp318
(dp319
g73
(dp320
sg82
g293
sg75
(lp321
g68
(g89
g70
NtRp322
(dp323
g73
(dp324
g93
g94
ssg82
g318
sg75
(lp325
S'domain'
p326
asbag68
(g89
g70
NtRp327
(dp328
g73
(dp329
g100
g101
ssg82
g318
sg75
(lp330
S':'
asbag68
(g89
g70
NtRp331
(dp332
g73
(dp333
sg82
g318
sg75
(lp334
g68
(g69
g70
NtRp335
(dp336
g73
(dp337
g81
I3
ssg82
g331
sg75
(lp338
S''
asbasbasbag68
(g84
g70
NtRp339
(dp340
g73
(dp341
sg82
g293
sg75
(lp342
g68
(g89
g70
NtRp343
(dp344
g73
(dp345
g93
g94
ssg82
g339
sg75
(lp346
S'expires'
p347
asbag68
(g89
g70
NtRp348
(dp349
g73
(dp350
g100
g101
ssg82
g339
sg75
(lp351
S':'
asbag68
(g89
g70
NtRp352
(dp353
g73
(dp354
sg82
g339
sg75
(lp355
g68
(g69
g70
NtRp356
(dp357
g73
(dp358
g81
I3
ssg82
g352
sg75
(lp359
S''
asbasbasbag68
(g84
g70
NtRp360
(dp361
g73
(dp362
sg82
g293
sg75
(lp363
g68
(g89
g70
NtRp364
(dp365
g73
(dp366
g93
g94
ssg82
g360
sg75
(lp367
S'httponly'
p368
asbag68
(g89
g70
NtRp369
(dp370
g73
(dp371
g100
g101
ssg82
g360
sg75
(lp372
S':'
asbag68
(g89
g70
NtRp373
(dp374
g73
(dp375
sg82
g360
sg75
(lp376
g68
(g69
g70
NtRp377
(dp378
g73
(dp379
g81
I3
ssg82
g373
sg75
(lp380
S''
asbasbasbag68
(g84
g70
NtRp381
(dp382
g73
(dp383
sg82
g293
sg75
(lp384
g68
(g89
g70
NtRp385
(dp386
g73
(dp387
g93
g94
ssg82
g381
sg75
(lp388
S'max-age'
p389
asbag68
(g89
g70
NtRp390
(dp391
g73
(dp392
g100
g101
ssg82
g381
sg75
(lp393
S':'
asbag68
(g89
g70
NtRp394
(dp395
g73
(dp396
sg82
g381
sg75
(lp397
g68
(g69
g70
NtRp398
(dp399
g73
(dp400
g81
I3
ssg82
g394
sg75
(lp401
S''
asbasbasbag68
(g84
g70
NtRp402
(dp403
g73
(dp404
sg82
g293
sg75
(lp405
g68
(g89
g70
NtRp406
(dp407
g73
(dp408
g93
g94
ssg82
g402
sg75
(lp409
S'path'
p410
asbag68
(g89
g70
NtRp411
(dp412
g73
(dp413
g100
g101
ssg82
g402
sg75
(lp414
S':'
asbag68
(g89
g70
NtRp415
(dp416
g73
(dp417
sg82
g402
sg75
(lp418
g68
(g69
g70
NtRp419
(dp420
g73
(dp421
g81
I3
ssg82
g415
sg75
(lp422
S''
asbasbasbag68
(g84
g70
NtRp423
(dp424
g73
(dp425
sg82
g293
sg75
(lp426
g68
(g89
g70
NtRp427
(dp428
g73
(dp429
g93
g94
ssg82
g423
sg75
(lp430
S'secure'
p431
asbag68
(g89
g70
NtRp432
(dp433
g73
(dp434
g100
g101
ssg82
g423
sg75
(lp435
S':'
asbag68
(g89
g70
NtRp436
(dp437
g73
(dp438
sg82
g423
sg75
(lp439
g68
(g69
g70
NtRp440
(dp441
g73
(dp442
g81
I3
ssg82
g436
sg75
(lp443
S''
asbasbasbag68
(g84
g70
NtRp444
(dp445
g73
(dp446
sg82
g293
sg75
(lp447
g68
(g89
g70
NtRp448
(dp449
g73
(dp450
g93
g94
ssg82
g444
sg75
(lp451
S'version'
p452
asbag68
(g89
g70
NtRp453
(dp454
g73
(dp455
g100
g101
ssg82
g444
sg75
(lp456
S':'
asbag68
(g89
g70
NtRp457
(dp458
g73
(dp459
sg82
g444
sg75
(lp460
g68
(g69
g70
NtRp461
(dp462
g73
(dp463
g81
I3
ssg82
g457
sg75
(lp464
S''
asbasbasbasbasbasbasbasbasbasbasbag68
(g84
g70
NtRp465
(dp466
g73
(dp467
sg82
g78
sg75
(lp468
g68
(g89
g70
NtRp469
(dp470
g73
(dp471
g93
g94
ssg82
g465
sg75
(lp472
S'env'
p473
asbag68
(g89
g70
NtRp474
(dp475
g73
(dp476
g100
g101
ssg82
g465
sg75
(lp477
S':'
asbag68
(g89
g70
NtRp478
(dp479
g73
(dp480
sg82
g465
sg75
(lp481
g68
(g69
g70
NtRp482
(dp483
g73
(dp484
g81
I5
ssg82
g478
sg75
(lp485
g68
(g77
g70
NtRp486
(dp487
g73
(dp488
g81
I4
ssg82
Nsg75
(lp489
g68
(g84
g70
NtRp490
(dp491
g73
(dp492
sg82
g486
sg75
(lp493
g68
(g89
g70
NtRp494
(dp495
g73
(dp496
g93
g94
ssg82
g490
sg75
(lp497
S'app_folders'
p498
asbag68
(g89
g70
NtRp499
(dp500
g73
(dp501
g100
g101
ssg82
g490
sg75
(lp502
S':'
asbag68
(g89
g70
NtRp503
(dp504
g73
(dp505
sg82
g490
sg75
(lp506
g68
(g69
g70
NtRp507
(dp508
g73
(dp509
g81
I4
ssg82
g503
sg75
(lp510
S"set(['C:\\\\Users\\\\Juliano\\\\Documents\\\\Visual Studio 2012\\\\Projects\\\\PFM-Web\\\\applications\\\\PFM_Web\\\\', 'C:\\\\Users\\\\Juliano\\\\Documents\\\\Visual Studio 2012\\\\Projects\\\\PFM-Web\\\\applications\\\\admin\\\\'])"
p511
asbasbasbag68
(g84
g70
NtRp512
(dp513
g73
(dp514
sg82
g486
sg75
(lp515
g68
(g89
g70
NtRp516
(dp517
g73
(dp518
g93
g94
ssg82
g512
sg75
(lp519
S'applications_parent'
p520
asbag68
(g89
g70
NtRp521
(dp522
g73
(dp523
g100
g101
ssg82
g512
sg75
(lp524
S':'
asbag68
(g89
g70
NtRp525
(dp526
g73
(dp527
sg82
g512
sg75
(lp528
g68
(g69
g70
NtRp529
(dp530
g73
(dp531
g81
I4
ssg82
g525
sg75
(lp532
S'C:\\Users\\Juliano\\Documents\\Visual Studio 2012\\Projects\\PFM-Web'
p533
asbasbasbag68
(g84
g70
NtRp534
(dp535
g73
(dp536
sg82
g486
sg75
(lp537
g68
(g89
g70
NtRp538
(dp539
g73
(dp540
g93
g94
ssg82
g534
sg75
(lp541
S'cmd_args'
p542
asbag68
(g89
g70
NtRp543
(dp544
g73
(dp545
g100
g101
ssg82
g534
sg75
(lp546
S':'
asbag68
(g89
g70
NtRp547
(dp548
g73
(dp549
sg82
g534
sg75
(lp550
g68
(g69
g70
NtRp551
(dp552
g73
(dp553
g81
I4
ssg82
g547
sg75
(lp554
g68
(g77
g70
NtRp555
(dp556
g73
(dp557
g81
I3
ssg82
Nsg75
(lp558
sbasbasbasbag68
(g84
g70
NtRp559
(dp560
g73
(dp561
sg82
g486
sg75
(lp562
g68
(g89
g70
NtRp563
(dp564
g73
(dp565
g93
g94
ssg82
g559
sg75
(lp566
S'cmd_options'
p567
asbag68
(g89
g70
NtRp568
(dp569
g73
(dp570
g100
g101
ssg82
g559
sg75
(lp571
S':'
asbag68
(g89
g70
NtRp572
(dp573
g73
(dp574
sg82
g559
sg75
(lp575
g68
(g69
g70
NtRp576
(dp577
g73
(dp578
g81
I4
ssg82
g572
sg75
(lp579
S"<Values at 0x3117288: {'verbose': False, 'ip': '127.0.0.1', 'with_scheduler': False, 'ips': ['192.168.0.196', 'fe80::2d25:44dc:a58e:afb9%13', '2001:0:9d38:6ab8:1020:96b4:4481:ec9b', 'fe80::1020:96b4:4481:ec9b%16'], 'shutdown_timeout': 5, 'taskbar': False, 'port': 8000, 'maxthreads': None, 'softcron': False, 'server_name': 'Hexed', 'bpython': False, 'nogui': False, 'pid_filename': 'httpserver.pid', 'extcron': False, 'runcron': False, 'run_system_tests': False, 'test': None, 'folder': 'C:\\\\Users\\\\Juliano\\\\Documents\\\\Visual Studio 2012\\\\Projects\\\\PFM-Web', 'config': '', 'import_models': False, 'winservice': '', 'shell': None, 'run': '', 'log_filename': 'httpserver.log', 'debuglevel': 30, 'args': [''], 'socket_timeout': 5, 'ssl_ca_certificate': None, 'scheduler': None, 'profiler_filename': None, 'ssl_private_key': '', 'scheduler_groups': None, 'password': '<ask>', 'request_queue_size': 5, 'ssl_certificate': '', 'cronjob': False, 'numthreads': None, 'quiet': False, 'interfaces': None, 'minthreads': None, 'timeout': 10, 'plain': False, 'nobanner': False}>"
p580
asbasbasbag68
(g84
g70
NtRp581
(dp582
g73
(dp583
sg82
g486
sg75
(lp584
g68
(g89
g70
NtRp585
(dp586
g73
(dp587
g93
g94
ssg82
g581
sg75
(lp588
S'db_sessions'
p589
asbag68
(g89
g70
NtRp590
(dp591
g73
(dp592
g100
g101
ssg82
g581
sg75
(lp593
S':'
asbag68
(g89
g70
NtRp594
(dp595
g73
(dp596
sg82
g581
sg75
(lp597
g68
(g69
g70
NtRp598
(dp599
g73
(dp600
g81
I4
ssg82
g594
sg75
(lp601
S'set([])'
p602
asbasbasbag68
(g84
g70
NtRp603
(dp604
g73
(dp605
sg82
g486
sg75
(lp606
g68
(g89
g70
NtRp607
(dp608
g73
(dp609
g93
g94
ssg82
g603
sg75
(lp610
S'debugging'
p611
asbag68
(g89
g70
NtRp612
(dp613
g73
(dp614
g100
g101
ssg82
g603
sg75
(lp615
S':'
asbag68
(g89
g70
NtRp616
(dp617
g73
(dp618
sg82
g603
sg75
(lp619
g68
(g69
g70
NtRp620
(dp621
g73
(dp622
g81
I4
ssg82
g616
sg75
(lp623
g111
asbasbasbag68
(g84
g70
NtRp624
(dp625
g73
(dp626
sg82
g486
sg75
(lp627
g68
(g89
g70
NtRp628
(dp629
g73
(dp630
g93
g94
ssg82
g624
sg75
(lp631
S'gluon_parent'
p632
asbag68
(g89
g70
NtRp633
(dp634
g73
(dp635
g100
g101
ssg82
g624
sg75
(lp636
S':'
asbag68
(g89
g70
NtRp637
(dp638
g73
(dp639
sg82
g624
sg75
(lp640
g68
(g69
g70
NtRp641
(dp642
g73
(dp643
g81
I4
ssg82
g637
sg75
(lp644
S'C:\\Users\\Juliano\\Documents\\Visual Studio 2012\\Projects\\PFM-Web'
p645
asbasbasbag68
(g84
g70
NtRp646
(dp647
g73
(dp648
sg82
g486
sg75
(lp649
g68
(g89
g70
NtRp650
(dp651
g73
(dp652
g93
g94
ssg82
g646
sg75
(lp653
S'http_accept'
p654
asbag68
(g89
g70
NtRp655
(dp656
g73
(dp657
g100
g101
ssg82
g646
sg75
(lp658
S':'
asbag68
(g89
g70
NtRp659
(dp660
g73
(dp661
sg82
g646
sg75
(lp662
g68
(g69
g70
NtRp663
(dp664
g73
(dp665
g81
I4
ssg82
g659
sg75
(lp666
S'text/html, application/xhtml+xml, */*'
p667
asbasbasbag68
(g84
g70
NtRp668
(dp669
g73
(dp670
sg82
g486
sg75
(lp671
g68
(g89
g70
NtRp672
(dp673
g73
(dp674
g93
g94
ssg82
g668
sg75
(lp675
S'http_accept_encoding'
p676
asbag68
(g89
g70
NtRp677
(dp678
g73
(dp679
g100
g101
ssg82
g668
sg75
(lp680
S':'
asbag68
(g89
g70
NtRp681
(dp682
g73
(dp683
sg82
g668
sg75
(lp684
g68
(g69
g70
NtRp685
(dp686
g73
(dp687
g81
I4
ssg82
g681
sg75
(lp688
S'gzip, deflate'
p689
asbasbasbag68
(g84
g70
NtRp690
(dp691
g73
(dp692
sg82
g486
sg75
(lp693
g68
(g89
g70
NtRp694
(dp695
g73
(dp696
g93
g94
ssg82
g690
sg75
(lp697
S'http_accept_language'
p698
asbag68
(g89
g70
NtRp699
(dp700
g73
(dp701
g100
g101
ssg82
g690
sg75
(lp702
S':'
asbag68
(g89
g70
NtRp703
(dp704
g73
(dp705
sg82
g690
sg75
(lp706
g68
(g69
g70
NtRp707
(dp708
g73
(dp709
g81
I4
ssg82
g703
sg75
(lp710
S'pt-BR,pt;q=0.8,en-US;q=0.5,en;q=0.3'
p711
asbasbasbag68
(g84
g70
NtRp712
(dp713
g73
(dp714
sg82
g486
sg75
(lp715
g68
(g89
g70
NtRp716
(dp717
g73
(dp718
g93
g94
ssg82
g712
sg75
(lp719
S'http_connection'
p720
asbag68
(g89
g70
NtRp721
(dp722
g73
(dp723
g100
g101
ssg82
g712
sg75
(lp724
S':'
asbag68
(g89
g70
NtRp725
(dp726
g73
(dp727
sg82
g712
sg75
(lp728
g68
(g69
g70
NtRp729
(dp730
g73
(dp731
g81
I4
ssg82
g725
sg75
(lp732
S'Keep-Alive'
p733
asbasbasbag68
(g84
g70
NtRp734
(dp735
g73
(dp736
sg82
g486
sg75
(lp737
g68
(g89
g70
NtRp738
(dp739
g73
(dp740
g93
g94
ssg82
g734
sg75
(lp741
S'http_cookie'
p742
asbag68
(g89
g70
NtRp743
(dp744
g73
(dp745
g100
g101
ssg82
g734
sg75
(lp746
S':'
asbag68
(g89
g70
NtRp747
(dp748
g73
(dp749
sg82
g734
sg75
(lp750
g68
(g69
g70
NtRp751
(dp752
g73
(dp753
g81
I4
ssg82
g747
sg75
(lp754
S'session_id_pfm_web=127.0.0.1-20f97d82-38f3-49d5-8814-e32bae7aa042'
p755
asbasbasbag68
(g84
g70
NtRp756
(dp757
g73
(dp758
sg82
g486
sg75
(lp759
g68
(g89
g70
NtRp760
(dp761
g73
(dp762
g93
g94
ssg82
g756
sg75
(lp763
S'http_dnt'
p764
asbag68
(g89
g70
NtRp765
(dp766
g73
(dp767
g100
g101
ssg82
g756
sg75
(lp768
S':'
asbag68
(g89
g70
NtRp769
(dp770
g73
(dp771
sg82
g756
sg75
(lp772
g68
(g69
g70
NtRp773
(dp774
g73
(dp775
g81
I4
ssg82
g769
sg75
(lp776
S'1'
asbasbasbag68
(g84
g70
NtRp777
(dp778
g73
(dp779
sg82
g486
sg75
(lp780
g68
(g89
g70
NtRp781
(dp782
g73
(dp783
g93
g94
ssg82
g777
sg75
(lp784
S'http_host'
p785
asbag68
(g89
g70
NtRp786
(dp787
g73
(dp788
g100
g101
ssg82
g777
sg75
(lp789
S':'
asbag68
(g89
g70
NtRp790
(dp791
g73
(dp792
sg82
g777
sg75
(lp793
g68
(g69
g70
NtRp794
(dp795
g73
(dp796
g81
I4
ssg82
g790
sg75
(lp797
S'127.0.0.1:8000'
p798
asbasbasbag68
(g84
g70
NtRp799
(dp800
g73
(dp801
sg82
g486
sg75
(lp802
g68
(g89
g70
NtRp803
(dp804
g73
(dp805
g93
g94
ssg82
g799
sg75
(lp806
S'http_referer'
p807
asbag68
(g89
g70
NtRp808
(dp809
g73
(dp810
g100
g101
ssg82
g799
sg75
(lp811
S':'
asbag68
(g89
g70
NtRp812
(dp813
g73
(dp814
sg82
g799
sg75
(lp815
g68
(g69
g70
NtRp816
(dp817
g73
(dp818
g81
I4
ssg82
g812
sg75
(lp819
S'http://127.0.0.1:8000/PFM_Web/expenses/index'
p820
asbasbasbag68
(g84
g70
NtRp821
(dp822
g73
(dp823
sg82
g486
sg75
(lp824
g68
(g89
g70
NtRp825
(dp826
g73
(dp827
g93
g94
ssg82
g821
sg75
(lp828
S'http_user_agent'
p829
asbag68
(g89
g70
NtRp830
(dp831
g73
(dp832
g100
g101
ssg82
g821
sg75
(lp833
S':'
asbag68
(g89
g70
NtRp834
(dp835
g73
(dp836
sg82
g821
sg75
(lp837
g68
(g69
g70
NtRp838
(dp839
g73
(dp840
g81
I4
ssg82
g834
sg75
(lp841
S'Mozilla/5.0 (compatible; MSIE 10.0; Windows NT 6.2; WOW64; Trident/6.0)'
p842
asbasbasbag68
(g84
g70
NtRp843
(dp844
g73
(dp845
sg82
g486
sg75
(lp846
g68
(g89
g70
NtRp847
(dp848
g73
(dp849
g93
g94
ssg82
g843
sg75
(lp850
S'is_jython'
p851
asbag68
(g89
g70
NtRp852
(dp853
g73
(dp854
g100
g101
ssg82
g843
sg75
(lp855
S':'
asbag68
(g89
g70
NtRp856
(dp857
g73
(dp858
sg82
g843
sg75
(lp859
g68
(g69
g70
NtRp860
(dp861
g73
(dp862
g81
I4
ssg82
g856
sg75
(lp863
g111
asbasbasbag68
(g84
g70
NtRp864
(dp865
g73
(dp866
sg82
g486
sg75
(lp867
g68
(g89
g70
NtRp868
(dp869
g73
(dp870
g93
g94
ssg82
g864
sg75
(lp871
S'is_pypy'
p872
asbag68
(g89
g70
NtRp873
(dp874
g73
(dp875
g100
g101
ssg82
g864
sg75
(lp876
S':'
asbag68
(g89
g70
NtRp877
(dp878
g73
(dp879
sg82
g864
sg75
(lp880
g68
(g69
g70
NtRp881
(dp882
g73
(dp883
g81
I4
ssg82
g877
sg75
(lp884
g111
asbasbasbag68
(g84
g70
NtRp885
(dp886
g73
(dp887
sg82
g486
sg75
(lp888
g68
(g89
g70
NtRp889
(dp890
g73
(dp891
g93
g94
ssg82
g885
sg75
(lp892
S'local_hosts'
p893
asbag68
(g89
g70
NtRp894
(dp895
g73
(dp896
g100
g101
ssg82
g885
sg75
(lp897
S':'
asbag68
(g89
g70
NtRp898
(dp899
g73
(dp900
sg82
g885
sg75
(lp901
g68
(g69
g70
NtRp902
(dp903
g73
(dp904
g81
I4
ssg82
g898
sg75
(lp905
g68
(g77
g70
NtRp906
(dp907
g73
(dp908
g81
I3
ssg82
Nsg75
(lp909
g68
(g84
g70
NtRp910
(dp911
g73
(dp912
sg82
g906
sg75
(lp913
g68
(g89
g70
NtRp914
(dp915
g73
(dp916
sg82
g910
sg75
(lp917
g68
(g69
g70
NtRp918
(dp919
g73
(dp920
g81
I3
ssg82
g914
sg75
(lp921
S'2001:0:9d38:6ab8:1020:96b4:4481:ec9b'
p922
asbasbasbag68
(g84
g70
NtRp923
(dp924
g73
(dp925
sg82
g906
sg75
(lp926
g68
(g89
g70
NtRp927
(dp928
g73
(dp929
sg82
g923
sg75
(lp930
g68
(g69
g70
NtRp931
(dp932
g73
(dp933
g81
I3
ssg82
g927
sg75
(lp934
S'fe80::1020:96b4:4481:ec9b%16'
p935
asbasbasbag68
(g84
g70
NtRp936
(dp937
g73
(dp938
sg82
g906
sg75
(lp939
g68
(g89
g70
NtRp940
(dp941
g73
(dp942
sg82
g936
sg75
(lp943
g68
(g69
g70
NtRp944
(dp945
g73
(dp946
g81
I3
ssg82
g940
sg75
(lp947
S'192.168.0.196'
p948
asbasbasbag68
(g84
g70
NtRp949
(dp950
g73
(dp951
sg82
g906
sg75
(lp952
g68
(g89
g70
NtRp953
(dp954
g73
(dp955
sg82
g949
sg75
(lp956
g68
(g69
g70
NtRp957
(dp958
g73
(dp959
g81
I3
ssg82
g953
sg75
(lp960
S'::ffff:127.0.0.1'
p961
asbasbasbag68
(g84
g70
NtRp962
(dp963
g73
(dp964
sg82
g906
sg75
(lp965
g68
(g89
g70
NtRp966
(dp967
g73
(dp968
sg82
g962
sg75
(lp969
g68
(g69
g70
NtRp970
(dp971
g73
(dp972
g81
I3
ssg82
g966
sg75
(lp973
S'::1'
p974
asbasbasbag68
(g84
g70
NtRp975
(dp976
g73
(dp977
sg82
g906
sg75
(lp978
g68
(g89
g70
NtRp979
(dp980
g73
(dp981
sg82
g975
sg75
(lp982
g68
(g69
g70
NtRp983
(dp984
g73
(dp985
g81
I3
ssg82
g979
sg75
(lp986
S'fe80::2d25:44dc:a58e:afb9%13'
p987
asbasbasbag68
(g84
g70
NtRp988
(dp989
g73
(dp990
sg82
g906
sg75
(lp991
g68
(g89
g70
NtRp992
(dp993
g73
(dp994
sg82
g988
sg75
(lp995
g68
(g69
g70
NtRp996
(dp997
g73
(dp998
g81
I3
ssg82
g992
sg75
(lp999
S'Hexed'
p1000
asbasbasbag68
(g84
g70
NtRp1001
(dp1002
g73
(dp1003
sg82
g906
sg75
(lp1004
g68
(g89
g70
NtRp1005
(dp1006
g73
(dp1007
sg82
g1001
sg75
(lp1008
g68
(g69
g70
NtRp1009
(dp1010
g73
(dp1011
g81
I3
ssg82
g1005
sg75
(lp1012
S'127.0.0.1'
p1013
asbasbasbasbasbasbasbag68
(g84
g70
NtRp1014
(dp1015
g73
(dp1016
sg82
g486
sg75
(lp1017
g68
(g89
g70
NtRp1018
(dp1019
g73
(dp1020
g93
g94
ssg82
g1014
sg75
(lp1021
S'path_info'
p1022
asbag68
(g89
g70
NtRp1023
(dp1024
g73
(dp1025
g100
g101
ssg82
g1014
sg75
(lp1026
S':'
asbag68
(g89
g70
NtRp1027
(dp1028
g73
(dp1029
sg82
g1014
sg75
(lp1030
g68
(g69
g70
NtRp1031
(dp1032
g73
(dp1033
g81
I4
ssg82
g1027
sg75
(lp1034
S'/PFM_Web/methodsofpayment/index'
p1035
asbasbasbag68
(g84
g70
NtRp1036
(dp1037
g73
(dp1038
sg82
g486
sg75
(lp1039
g68
(g89
g70
NtRp1040
(dp1041
g73
(dp1042
g93
g94
ssg82
g1036
sg75
(lp1043
S'query_string'
p1044
asbag68
(g89
g70
NtRp1045
(dp1046
g73
(dp1047
g100
g101
ssg82
g1036
sg75
(lp1048
S':'
asbag68
(g89
g70
NtRp1049
(dp1050
g73
(dp1051
sg82
g1036
sg75
(lp1052
g68
(g69
g70
NtRp1053
(dp1054
g73
(dp1055
g81
I4
ssg82
g1049
sg75
(lp1056
S''
asbasbasbag68
(g84
g70
NtRp1057
(dp1058
g73
(dp1059
sg82
g486
sg75
(lp1060
g68
(g89
g70
NtRp1061
(dp1062
g73
(dp1063
g93
g94
ssg82
g1057
sg75
(lp1064
S'remote_addr'
p1065
asbag68
(g89
g70
NtRp1066
(dp1067
g73
(dp1068
g100
g101
ssg82
g1057
sg75
(lp1069
S':'
asbag68
(g89
g70
NtRp1070
(dp1071
g73
(dp1072
sg82
g1057
sg75
(lp1073
g68
(g69
g70
NtRp1074
(dp1075
g73
(dp1076
g81
I4
ssg82
g1070
sg75
(lp1077
g223
asbasbasbag68
(g84
g70
NtRp1078
(dp1079
g73
(dp1080
sg82
g486
sg75
(lp1081
g68
(g89
g70
NtRp1082
(dp1083
g73
(dp1084
g93
g94
ssg82
g1078
sg75
(lp1085
S'remote_port'
p1086
asbag68
(g89
g70
NtRp1087
(dp1088
g73
(dp1089
g100
g101
ssg82
g1078
sg75
(lp1090
S':'
asbag68
(g89
g70
NtRp1091
(dp1092
g73
(dp1093
sg82
g1078
sg75
(lp1094
g68
(g69
g70
NtRp1095
(dp1096
g73
(dp1097
g81
I4
ssg82
g1091
sg75
(lp1098
S'59676'
p1099
asbasbasbag68
(g84
g70
NtRp1100
(dp1101
g73
(dp1102
sg82
g486
sg75
(lp1103
g68
(g89
g70
NtRp1104
(dp1105
g73
(dp1106
g93
g94
ssg82
g1100
sg75
(lp1107
S'request_method'
p1108
asbag68
(g89
g70
NtRp1109
(dp1110
g73
(dp1111
g100
g101
ssg82
g1100
sg75
(lp1112
S':'
asbag68
(g89
g70
NtRp1113
(dp1114
g73
(dp1115
sg82
g1100
sg75
(lp1116
g68
(g69
g70
NtRp1117
(dp1118
g73
(dp1119
g81
I4
ssg82
g1113
sg75
(lp1120
S'GET'
p1121
asbasbasbag68
(g84
g70
NtRp1122
(dp1123
g73
(dp1124
sg82
g486
sg75
(lp1125
g68
(g89
g70
NtRp1126
(dp1127
g73
(dp1128
g93
g94
ssg82
g1122
sg75
(lp1129
S'request_uri'
p1130
asbag68
(g89
g70
NtRp1131
(dp1132
g73
(dp1133
g100
g101
ssg82
g1122
sg75
(lp1134
S':'
asbag68
(g89
g70
NtRp1135
(dp1136
g73
(dp1137
sg82
g1122
sg75
(lp1138
g68
(g69
g70
NtRp1139
(dp1140
g73
(dp1141
g81
I4
ssg82
g1135
sg75
(lp1142
g1035
asbasbasbag68
(g84
g70
NtRp1143
(dp1144
g73
(dp1145
sg82
g486
sg75
(lp1146
g68
(g89
g70
NtRp1147
(dp1148
g73
(dp1149
g93
g94
ssg82
g1143
sg75
(lp1150
S'script_name'
p1151
asbag68
(g89
g70
NtRp1152
(dp1153
g73
(dp1154
g100
g101
ssg82
g1143
sg75
(lp1155
S':'
asbag68
(g89
g70
NtRp1156
(dp1157
g73
(dp1158
sg82
g1143
sg75
(lp1159
g68
(g69
g70
NtRp1160
(dp1161
g73
(dp1162
g81
I4
ssg82
g1156
sg75
(lp1163
S''
asbasbasbag68
(g84
g70
NtRp1164
(dp1165
g73
(dp1166
sg82
g486
sg75
(lp1167
g68
(g89
g70
NtRp1168
(dp1169
g73
(dp1170
g93
g94
ssg82
g1164
sg75
(lp1171
S'server_name'
p1172
asbag68
(g89
g70
NtRp1173
(dp1174
g73
(dp1175
g100
g101
ssg82
g1164
sg75
(lp1176
S':'
asbag68
(g89
g70
NtRp1177
(dp1178
g73
(dp1179
sg82
g1164
sg75
(lp1180
g68
(g69
g70
NtRp1181
(dp1182
g73
(dp1183
g81
I4
ssg82
g1177
sg75
(lp1184
S'Hexed'
p1185
asbasbasbag68
(g84
g70
NtRp1186
(dp1187
g73
(dp1188
sg82
g486
sg75
(lp1189
g68
(g89
g70
NtRp1190
(dp1191
g73
(dp1192
g93
g94
ssg82
g1186
sg75
(lp1193
S'server_port'
p1194
asbag68
(g89
g70
NtRp1195
(dp1196
g73
(dp1197
g100
g101
ssg82
g1186
sg75
(lp1198
S':'
asbag68
(g89
g70
NtRp1199
(dp1200
g73
(dp1201
sg82
g1186
sg75
(lp1202
g68
(g69
g70
NtRp1203
(dp1204
g73
(dp1205
g81
I4
ssg82
g1199
sg75
(lp1206
S'8000'
p1207
asbasbasbag68
(g84
g70
NtRp1208
(dp1209
g73
(dp1210
sg82
g486
sg75
(lp1211
g68
(g89
g70
NtRp1212
(dp1213
g73
(dp1214
g93
g94
ssg82
g1208
sg75
(lp1215
S'server_protocol'
p1216
asbag68
(g89
g70
NtRp1217
(dp1218
g73
(dp1219
g100
g101
ssg82
g1208
sg75
(lp1220
S':'
asbag68
(g89
g70
NtRp1221
(dp1222
g73
(dp1223
sg82
g1208
sg75
(lp1224
g68
(g69
g70
NtRp1225
(dp1226
g73
(dp1227
g81
I4
ssg82
g1221
sg75
(lp1228
S'HTTP/1.1'
p1229
asbasbasbag68
(g84
g70
NtRp1230
(dp1231
g73
(dp1232
sg82
g486
sg75
(lp1233
g68
(g89
g70
NtRp1234
(dp1235
g73
(dp1236
g93
g94
ssg82
g1230
sg75
(lp1237
S'server_software'
p1238
asbag68
(g89
g70
NtRp1239
(dp1240
g73
(dp1241
g100
g101
ssg82
g1230
sg75
(lp1242
S':'
asbag68
(g89
g70
NtRp1243
(dp1244
g73
(dp1245
sg82
g1230
sg75
(lp1246
g68
(g69
g70
NtRp1247
(dp1248
g73
(dp1249
g81
I4
ssg82
g1243
sg75
(lp1250
S'Rocket 1.2.6'
p1251
asbasbasbag68
(g84
g70
NtRp1252
(dp1253
g73
(dp1254
sg82
g486
sg75
(lp1255
g68
(g89
g70
NtRp1256
(dp1257
g73
(dp1258
g93
g94
ssg82
g1252
sg75
(lp1259
S'web2py_original_uri'
p1260
asbag68
(g89
g70
NtRp1261
(dp1262
g73
(dp1263
g100
g101
ssg82
g1252
sg75
(lp1264
S':'
asbag68
(g89
g70
NtRp1265
(dp1266
g73
(dp1267
sg82
g1252
sg75
(lp1268
g68
(g69
g70
NtRp1269
(dp1270
g73
(dp1271
g81
I4
ssg82
g1265
sg75
(lp1272
S'/PFM_Web/methodsofpayment/index'
p1273
asbasbasbag68
(g84
g70
NtRp1274
(dp1275
g73
(dp1276
sg82
g486
sg75
(lp1277
g68
(g89
g70
NtRp1278
(dp1279
g73
(dp1280
g93
g94
ssg82
g1274
sg75
(lp1281
S'web2py_path'
p1282
asbag68
(g89
g70
NtRp1283
(dp1284
g73
(dp1285
g100
g101
ssg82
g1274
sg75
(lp1286
S':'
asbag68
(g89
g70
NtRp1287
(dp1288
g73
(dp1289
sg82
g1274
sg75
(lp1290
g68
(g69
g70
NtRp1291
(dp1292
g73
(dp1293
g81
I4
ssg82
g1287
sg75
(lp1294
g533
asbasbasbag68
(g84
g70
NtRp1295
(dp1296
g73
(dp1297
sg82
g486
sg75
(lp1298
g68
(g89
g70
NtRp1299
(dp1300
g73
(dp1301
g93
g94
ssg82
g1295
sg75
(lp1302
S'web2py_version'
p1303
asbag68
(g89
g70
NtRp1304
(dp1305
g73
(dp1306
g100
g101
ssg82
g1295
sg75
(lp1307
S':'
asbag68
(g89
g70
NtRp1308
(dp1309
g73
(dp1310
sg82
g1295
sg75
(lp1311
g68
(g69
g70
NtRp1312
(dp1313
g73
(dp1314
g81
I4
ssg82
g1308
sg75
(lp1315
g68
(g77
g70
NtRp1316
(dp1317
g73
(dp1318
g81
I3
ssg82
Nsg75
(lp1319
g68
(g84
g70
NtRp1320
(dp1321
g73
(dp1322
sg82
g1316
sg75
(lp1323
g68
(g89
g70
NtRp1324
(dp1325
g73
(dp1326
sg82
g1320
sg75
(lp1327
g68
(g69
g70
NtRp1328
(dp1329
g73
(dp1330
g81
I3
ssg82
g1324
sg75
(lp1331
S'2'
asbasbasbag68
(g84
g70
NtRp1332
(dp1333
g73
(dp1334
sg82
g1316
sg75
(lp1335
g68
(g89
g70
NtRp1336
(dp1337
g73
(dp1338
sg82
g1332
sg75
(lp1339
g68
(g69
g70
NtRp1340
(dp1341
g73
(dp1342
g81
I3
ssg82
g1336
sg75
(lp1343
S'3'
asbasbasbag68
(g84
g70
NtRp1344
(dp1345
g73
(dp1346
sg82
g1316
sg75
(lp1347
g68
(g89
g70
NtRp1348
(dp1349
g73
(dp1350
sg82
g1344
sg75
(lp1351
g68
(g69
g70
NtRp1352
(dp1353
g73
(dp1354
g81
I3
ssg82
g1348
sg75
(lp1355
S'2'
asbasbasbag68
(g84
g70
NtRp1356
(dp1357
g73
(dp1358
sg82
g1316
sg75
(lp1359
g68
(g89
g70
NtRp1360
(dp1361
g73
(dp1362
sg82
g1356
sg75
(lp1363
g68
(g69
g70
NtRp1364
(dp1365
g73
(dp1366
g81
I3
ssg82
g1360
sg75
(lp1367
S'datetime.datetime(2012, 12, 17, 15, 3, 30)'
p1368
asbasbasbag68
(g84
g70
NtRp1369
(dp1370
g73
(dp1371
sg82
g1316
sg75
(lp1372
g68
(g89
g70
NtRp1373
(dp1374
g73
(dp1375
sg82
g1369
sg75
(lp1376
g68
(g69
g70
NtRp1377
(dp1378
g73
(dp1379
g81
I3
ssg82
g1373
sg75
(lp1380
S'stable'
p1381
asbasbasbasbasbasbasbag68
(g84
g70
NtRp1382
(dp1383
g73
(dp1384
sg82
g486
sg75
(lp1385
g68
(g89
g70
NtRp1386
(dp1387
g73
(dp1388
g93
g94
ssg82
g1382
sg75
(lp1389
S'wsgi_errors'
p1390
asbag68
(g89
g70
NtRp1391
(dp1392
g73
(dp1393
g100
g101
ssg82
g1382
sg75
(lp1394
S':'
asbag68
(g89
g70
NtRp1395
(dp1396
g73
(dp1397
sg82
g1382
sg75
(lp1398
g68
(g69
g70
NtRp1399
(dp1400
g73
(dp1401
g81
I4
ssg82
g1395
sg75
(lp1402
S"<open file '<stderr>', mode 'w' at 0x0000000001CE71E0>"
p1403
asbasbasbag68
(g84
g70
NtRp1404
(dp1405
g73
(dp1406
sg82
g486
sg75
(lp1407
g68
(g89
g70
NtRp1408
(dp1409
g73
(dp1410
g93
g94
ssg82
g1404
sg75
(lp1411
S'wsgi_file_wrapper'
p1412
asbag68
(g89
g70
NtRp1413
(dp1414
g73
(dp1415
g100
g101
ssg82
g1404
sg75
(lp1416
S':'
asbag68
(g89
g70
NtRp1417
(dp1418
g73
(dp1419
sg82
g1404
sg75
(lp1420
g68
(g69
g70
NtRp1421
(dp1422
g73
(dp1423
g81
I4
ssg82
g1417
sg75
(lp1424
S'<class wsgiref.util.FileWrapper at 0x00000000030BF768>'
p1425
asbasbasbag68
(g84
g70
NtRp1426
(dp1427
g73
(dp1428
sg82
g486
sg75
(lp1429
g68
(g89
g70
NtRp1430
(dp1431
g73
(dp1432
g93
g94
ssg82
g1426
sg75
(lp1433
S'wsgi_input'
p1434
asbag68
(g89
g70
NtRp1435
(dp1436
g73
(dp1437
g100
g101
ssg82
g1426
sg75
(lp1438
S':'
asbag68
(g89
g70
NtRp1439
(dp1440
g73
(dp1441
sg82
g1426
sg75
(lp1442
g68
(g69
g70
NtRp1443
(dp1444
g73
(dp1445
g81
I4
ssg82
g1439
sg75
(lp1446
S'<socket._fileobject object at 0x0000000004C76DE0>'
p1447
asbasbasbag68
(g84
g70
NtRp1448
(dp1449
g73
(dp1450
sg82
g486
sg75
(lp1451
g68
(g89
g70
NtRp1452
(dp1453
g73
(dp1454
g93
g94
ssg82
g1448
sg75
(lp1455
S'wsgi_multiprocess'
p1456
asbag68
(g89
g70
NtRp1457
(dp1458
g73
(dp1459
g100
g101
ssg82
g1448
sg75
(lp1460
S':'
asbag68
(g89
g70
NtRp1461
(dp1462
g73
(dp1463
sg82
g1448
sg75
(lp1464
g68
(g69
g70
NtRp1465
(dp1466
g73
(dp1467
g81
I4
ssg82
g1461
sg75
(lp1468
g111
asbasbasbag68
(g84
g70
NtRp1469
(dp1470
g73
(dp1471
sg82
g486
sg75
(lp1472
g68
(g89
g70
NtRp1473
(dp1474
g73
(dp1475
g93
g94
ssg82
g1469
sg75
(lp1476
S'wsgi_multithread'
p1477
asbag68
(g89
g70
NtRp1478
(dp1479
g73
(dp1480
g100
g101
ssg82
g1469
sg75
(lp1481
S':'
asbag68
(g89
g70
NtRp1482
(dp1483
g73
(dp1484
sg82
g1469
sg75
(lp1485
g68
(g69
g70
NtRp1486
(dp1487
g73
(dp1488
g81
I4
ssg82
g1482
sg75
(lp1489
S'True'
p1490
asbasbasbag68
(g84
g70
NtRp1491
(dp1492
g73
(dp1493
sg82
g486
sg75
(lp1494
g68
(g89
g70
NtRp1495
(dp1496
g73
(dp1497
g93
g94
ssg82
g1491
sg75
(lp1498
S'wsgi_run_once'
p1499
asbag68
(g89
g70
NtRp1500
(dp1501
g73
(dp1502
g100
g101
ssg82
g1491
sg75
(lp1503
S':'
asbag68
(g89
g70
NtRp1504
(dp1505
g73
(dp1506
sg82
g1491
sg75
(lp1507
g68
(g69
g70
NtRp1508
(dp1509
g73
(dp1510
g81
I4
ssg82
g1504
sg75
(lp1511
g111
asbasbasbag68
(g84
g70
NtRp1512
(dp1513
g73
(dp1514
sg82
g486
sg75
(lp1515
g68
(g89
g70
NtRp1516
(dp1517
g73
(dp1518
g93
g94
ssg82
g1512
sg75
(lp1519
S'wsgi_url_scheme'
p1520
asbag68
(g89
g70
NtRp1521
(dp1522
g73
(dp1523
g100
g101
ssg82
g1512
sg75
(lp1524
S':'
asbag68
(g89
g70
NtRp1525
(dp1526
g73
(dp1527
sg82
g1512
sg75
(lp1528
g68
(g69
g70
NtRp1529
(dp1530
g73
(dp1531
g81
I4
ssg82
g1525
sg75
(lp1532
S'http'
p1533
asbasbasbag68
(g84
g70
NtRp1534
(dp1535
g73
(dp1536
sg82
g486
sg75
(lp1537
g68
(g89
g70
NtRp1538
(dp1539
g73
(dp1540
g93
g94
ssg82
g1534
sg75
(lp1541
S'wsgi_version'
p1542
asbag68
(g89
g70
NtRp1543
(dp1544
g73
(dp1545
g100
g101
ssg82
g1534
sg75
(lp1546
S':'
asbag68
(g89
g70
NtRp1547
(dp1548
g73
(dp1549
sg82
g1534
sg75
(lp1550
g68
(g69
g70
NtRp1551
(dp1552
g73
(dp1553
g81
I4
ssg82
g1547
sg75
(lp1554
g68
(g77
g70
NtRp1555
(dp1556
g73
(dp1557
g81
I3
ssg82
Nsg75
(lp1558
g68
(g84
g70
NtRp1559
(dp1560
g73
(dp1561
sg82
g1555
sg75
(lp1562
g68
(g89
g70
NtRp1563
(dp1564
g73
(dp1565
sg82
g1559
sg75
(lp1566
g68
(g69
g70
NtRp1567
(dp1568
g73
(dp1569
g81
I3
ssg82
g1563
sg75
(lp1570
S'1'
asbasbasbag68
(g84
g70
NtRp1571
(dp1572
g73
(dp1573
sg82
g1555
sg75
(lp1574
g68
(g89
g70
NtRp1575
(dp1576
g73
(dp1577
sg82
g1571
sg75
(lp1578
g68
(g69
g70
NtRp1579
(dp1580
g73
(dp1581
g81
I3
ssg82
g1575
sg75
(lp1582
S'0'
asbasbasbasbasbasbasbasbasbasbasbag68
(g84
g70
NtRp1583
(dp1584
g73
(dp1585
sg82
g78
sg75
(lp1586
g68
(g89
g70
NtRp1587
(dp1588
g73
(dp1589
g93
g94
ssg82
g1583
sg75
(lp1590
S'extension'
p1591
asbag68
(g89
g70
NtRp1592
(dp1593
g73
(dp1594
g100
g101
ssg82
g1583
sg75
(lp1595
S':'
asbag68
(g89
g70
NtRp1596
(dp1597
g73
(dp1598
sg82
g1583
sg75
(lp1599
g68
(g69
g70
NtRp1600
(dp1601
g73
(dp1602
g81
I5
ssg82
g1596
sg75
(lp1603
S'html'
p1604
asbasbasbag68
(g84
g70
NtRp1605
(dp1606
g73
(dp1607
sg82
g78
sg75
(lp1608
g68
(g89
g70
NtRp1609
(dp1610
g73
(dp1611
g93
g94
ssg82
g1605
sg75
(lp1612
S'folder'
p1613
asbag68
(g89
g70
NtRp1614
(dp1615
g73
(dp1616
g100
g101
ssg82
g1605
sg75
(lp1617
S':'
asbag68
(g89
g70
NtRp1618
(dp1619
g73
(dp1620
sg82
g1605
sg75
(lp1621
g68
(g69
g70
NtRp1622
(dp1623
g73
(dp1624
g81
I5
ssg82
g1618
sg75
(lp1625
S'C:\\Users\\Juliano\\Documents\\Visual Studio 2012\\Projects\\PFM-Web\\applications\\PFM_Web\\'
p1626
asbasbasbag68
(g84
g70
NtRp1627
(dp1628
g73
(dp1629
sg82
g78
sg75
(lp1630
g68
(g89
g70
NtRp1631
(dp1632
g73
(dp1633
g93
g94
ssg82
g1627
sg75
(lp1634
S'function'
p1635
asbag68
(g89
g70
NtRp1636
(dp1637
g73
(dp1638
g100
g101
ssg82
g1627
sg75
(lp1639
S':'
asbag68
(g89
g70
NtRp1640
(dp1641
g73
(dp1642
sg82
g1627
sg75
(lp1643
g68
(g69
g70
NtRp1644
(dp1645
g73
(dp1646
g81
I5
ssg82
g1640
sg75
(lp1647
S'index'
p1648
asbasbasbag68
(g84
g70
NtRp1649
(dp1650
g73
(dp1651
sg82
g78
sg75
(lp1652
g68
(g89
g70
NtRp1653
(dp1654
g73
(dp1655
g93
g94
ssg82
g1649
sg75
(lp1656
S'get_vars'
p1657
asbag68
(g89
g70
NtRp1658
(dp1659
g73
(dp1660
g100
g101
ssg82
g1649
sg75
(lp1661
S':'
asbag68
(g89
g70
NtRp1662
(dp1663
g73
(dp1664
sg82
g1649
sg75
(lp1665
g68
(g69
g70
NtRp1666
(dp1667
g73
(dp1668
g81
I5
ssg82
g1662
sg75
(lp1669
g68
(g77
g70
NtRp1670
(dp1671
g73
(dp1672
g81
I4
ssg82
Nsg75
(lp1673
sbasbasbasbag68
(g84
g70
NtRp1674
(dp1675
g73
(dp1676
sg82
g78
sg75
(lp1677
g68
(g89
g70
NtRp1678
(dp1679
g73
(dp1680
g93
g94
ssg82
g1674
sg75
(lp1681
S'global_settings'
p1682
asbag68
(g89
g70
NtRp1683
(dp1684
g73
(dp1685
g100
g101
ssg82
g1674
sg75
(lp1686
S':'
asbag68
(g89
g70
NtRp1687
(dp1688
g73
(dp1689
sg82
g1674
sg75
(lp1690
g68
(g69
g70
NtRp1691
(dp1692
g73
(dp1693
g81
I5
ssg82
g1687
sg75
(lp1694
g68
(g77
g70
NtRp1695
(dp1696
g73
(dp1697
g81
I4
ssg82
Nsg75
(lp1698
g68
(g84
g70
NtRp1699
(dp1700
g73
(dp1701
sg82
g1695
sg75
(lp1702
g68
(g89
g70
NtRp1703
(dp1704
g73
(dp1705
g93
g94
ssg82
g1699
sg75
(lp1706
g498
asbag68
(g89
g70
NtRp1707
(dp1708
g73
(dp1709
g100
g101
ssg82
g1699
sg75
(lp1710
S':'
asbag68
(g89
g70
NtRp1711
(dp1712
g73
(dp1713
sg82
g1699
sg75
(lp1714
g68
(g69
g70
NtRp1715
(dp1716
g73
(dp1717
g81
I4
ssg82
g1711
sg75
(lp1718
S"set(['C:\\\\Users\\\\Juliano\\\\Documents\\\\Visual Studio 2012\\\\Projects\\\\PFM-Web\\\\applications\\\\PFM_Web\\\\', 'C:\\\\Users\\\\Juliano\\\\Documents\\\\Visual Studio 2012\\\\Projects\\\\PFM-Web\\\\applications\\\\admin\\\\'])"
p1719
asbasbasbag68
(g84
g70
NtRp1720
(dp1721
g73
(dp1722
sg82
g1695
sg75
(lp1723
g68
(g89
g70
NtRp1724
(dp1725
g73
(dp1726
g93
g94
ssg82
g1720
sg75
(lp1727
g520
asbag68
(g89
g70
NtRp1728
(dp1729
g73
(dp1730
g100
g101
ssg82
g1720
sg75
(lp1731
S':'
asbag68
(g89
g70
NtRp1732
(dp1733
g73
(dp1734
sg82
g1720
sg75
(lp1735
g68
(g69
g70
NtRp1736
(dp1737
g73
(dp1738
g81
I4
ssg82
g1732
sg75
(lp1739
g533
asbasbasbag68
(g84
g70
NtRp1740
(dp1741
g73
(dp1742
sg82
g1695
sg75
(lp1743
g68
(g89
g70
NtRp1744
(dp1745
g73
(dp1746
g93
g94
ssg82
g1740
sg75
(lp1747
g542
asbag68
(g89
g70
NtRp1748
(dp1749
g73
(dp1750
g100
g101
ssg82
g1740
sg75
(lp1751
S':'
asbag68
(g89
g70
NtRp1752
(dp1753
g73
(dp1754
sg82
g1740
sg75
(lp1755
g68
(g69
g70
NtRp1756
(dp1757
g73
(dp1758
g81
I4
ssg82
g1752
sg75
(lp1759
g68
(g77
g70
NtRp1760
(dp1761
g73
(dp1762
g81
I3
ssg82
Nsg75
(lp1763
sbasbasbasbag68
(g84
g70
NtRp1764
(dp1765
g73
(dp1766
sg82
g1695
sg75
(lp1767
g68
(g89
g70
NtRp1768
(dp1769
g73
(dp1770
g93
g94
ssg82
g1764
sg75
(lp1771
g567
asbag68
(g89
g70
NtRp1772
(dp1773
g73
(dp1774
g100
g101
ssg82
g1764
sg75
(lp1775
S':'
asbag68
(g89
g70
NtRp1776
(dp1777
g73
(dp1778
sg82
g1764
sg75
(lp1779
g68
(g69
g70
NtRp1780
(dp1781
g73
(dp1782
g81
I4
ssg82
g1776
sg75
(lp1783
S"<Values at 0x3117288: {'verbose': False, 'ip': '127.0.0.1', 'with_scheduler': False, 'ips': ['192.168.0.196', 'fe80::2d25:44dc:a58e:afb9%13', '2001:0:9d38:6ab8:1020:96b4:4481:ec9b', 'fe80::1020:96b4:4481:ec9b%16'], 'shutdown_timeout': 5, 'taskbar': False, 'port': 8000, 'maxthreads': None, 'softcron': False, 'server_name': 'Hexed', 'bpython': False, 'nogui': False, 'pid_filename': 'httpserver.pid', 'extcron': False, 'runcron': False, 'run_system_tests': False, 'test': None, 'folder': 'C:\\\\Users\\\\Juliano\\\\Documents\\\\Visual Studio 2012\\\\Projects\\\\PFM-Web', 'config': '', 'import_models': False, 'winservice': '', 'shell': None, 'run': '', 'log_filename': 'httpserver.log', 'debuglevel': 30, 'args': [''], 'socket_timeout': 5, 'ssl_ca_certificate': None, 'scheduler': None, 'profiler_filename': None, 'ssl_private_key': '', 'scheduler_groups': None, 'password': '<ask>', 'request_queue_size': 5, 'ssl_certificate': '', 'cronjob': False, 'numthreads': None, 'quiet': False, 'interfaces': None, 'minthreads': None, 'timeout': 10, 'plain': False, 'nobanner': False}>"
p1784
asbasbasbag68
(g84
g70
NtRp1785
(dp1786
g73
(dp1787
sg82
g1695
sg75
(lp1788
g68
(g89
g70
NtRp1789
(dp1790
g73
(dp1791
g93
g94
ssg82
g1785
sg75
(lp1792
g589
asbag68
(g89
g70
NtRp1793
(dp1794
g73
(dp1795
g100
g101
ssg82
g1785
sg75
(lp1796
S':'
asbag68
(g89
g70
NtRp1797
(dp1798
g73
(dp1799
sg82
g1785
sg75
(lp1800
g68
(g69
g70
NtRp1801
(dp1802
g73
(dp1803
g81
I4
ssg82
g1797
sg75
(lp1804
S'set([])'
p1805
asbasbasbag68
(g84
g70
NtRp1806
(dp1807
g73
(dp1808
sg82
g1695
sg75
(lp1809
g68
(g89
g70
NtRp1810
(dp1811
g73
(dp1812
g93
g94
ssg82
g1806
sg75
(lp1813
g611
asbag68
(g89
g70
NtRp1814
(dp1815
g73
(dp1816
g100
g101
ssg82
g1806
sg75
(lp1817
S':'
asbag68
(g89
g70
NtRp1818
(dp1819
g73
(dp1820
sg82
g1806
sg75
(lp1821
g68
(g69
g70
NtRp1822
(dp1823
g73
(dp1824
g81
I4
ssg82
g1818
sg75
(lp1825
g111
asbasbasbag68
(g84
g70
NtRp1826
(dp1827
g73
(dp1828
sg82
g1695
sg75
(lp1829
g68
(g89
g70
NtRp1830
(dp1831
g73
(dp1832
g93
g94
ssg82
g1826
sg75
(lp1833
g632
asbag68
(g89
g70
NtRp1834
(dp1835
g73
(dp1836
g100
g101
ssg82
g1826
sg75
(lp1837
S':'
asbag68
(g89
g70
NtRp1838
(dp1839
g73
(dp1840
sg82
g1826
sg75
(lp1841
g68
(g69
g70
NtRp1842
(dp1843
g73
(dp1844
g81
I4
ssg82
g1838
sg75
(lp1845
g645
asbasbasbag68
(g84
g70
NtRp1846
(dp1847
g73
(dp1848
sg82
g1695
sg75
(lp1849
g68
(g89
g70
NtRp1850
(dp1851
g73
(dp1852
g93
g94
ssg82
g1846
sg75
(lp1853
g851
asbag68
(g89
g70
NtRp1854
(dp1855
g73
(dp1856
g100
g101
ssg82
g1846
sg75
(lp1857
S':'
asbag68
(g89
g70
NtRp1858
(dp1859
g73
(dp1860
sg82
g1846
sg75
(lp1861
g68
(g69
g70
NtRp1862
(dp1863
g73
(dp1864
g81
I4
ssg82
g1858
sg75
(lp1865
g111
asbasbasbag68
(g84
g70
NtRp1866
(dp1867
g73
(dp1868
sg82
g1695
sg75
(lp1869
g68
(g89
g70
NtRp1870
(dp1871
g73
(dp1872
g93
g94
ssg82
g1866
sg75
(lp1873
g872
asbag68
(g89
g70
NtRp1874
(dp1875
g73
(dp1876
g100
g101
ssg82
g1866
sg75
(lp1877
S':'
asbag68
(g89
g70
NtRp1878
(dp1879
g73
(dp1880
sg82
g1866
sg75
(lp1881
g68
(g69
g70
NtRp1882
(dp1883
g73
(dp1884
g81
I4
ssg82
g1878
sg75
(lp1885
g111
asbasbasbag68
(g84
g70
NtRp1886
(dp1887
g73
(dp1888
sg82
g1695
sg75
(lp1889
g68
(g89
g70
NtRp1890
(dp1891
g73
(dp1892
g93
g94
ssg82
g1886
sg75
(lp1893
g893
asbag68
(g89
g70
NtRp1894
(dp1895
g73
(dp1896
g100
g101
ssg82
g1886
sg75
(lp1897
S':'
asbag68
(g89
g70
NtRp1898
(dp1899
g73
(dp1900
sg82
g1886
sg75
(lp1901
g68
(g69
g70
NtRp1902
(dp1903
g73
(dp1904
g81
I4
ssg82
g1898
sg75
(lp1905
g68
(g77
g70
NtRp1906
(dp1907
g73
(dp1908
g81
I3
ssg82
Nsg75
(lp1909
g68
(g84
g70
NtRp1910
(dp1911
g73
(dp1912
sg82
g1906
sg75
(lp1913
g68
(g89
g70
NtRp1914
(dp1915
g73
(dp1916
sg82
g1910
sg75
(lp1917
g68
(g69
g70
NtRp1918
(dp1919
g73
(dp1920
g81
I3
ssg82
g1914
sg75
(lp1921
g922
asbasbasbag68
(g84
g70
NtRp1922
(dp1923
g73
(dp1924
sg82
g1906
sg75
(lp1925
g68
(g89
g70
NtRp1926
(dp1927
g73
(dp1928
sg82
g1922
sg75
(lp1929
g68
(g69
g70
NtRp1930
(dp1931
g73
(dp1932
g81
I3
ssg82
g1926
sg75
(lp1933
g935
asbasbasbag68
(g84
g70
NtRp1934
(dp1935
g73
(dp1936
sg82
g1906
sg75
(lp1937
g68
(g89
g70
NtRp1938
(dp1939
g73
(dp1940
sg82
g1934
sg75
(lp1941
g68
(g69
g70
NtRp1942
(dp1943
g73
(dp1944
g81
I3
ssg82
g1938
sg75
(lp1945
g948
asbasbasbag68
(g84
g70
NtRp1946
(dp1947
g73
(dp1948
sg82
g1906
sg75
(lp1949
g68
(g89
g70
NtRp1950
(dp1951
g73
(dp1952
sg82
g1946
sg75
(lp1953
g68
(g69
g70
NtRp1954
(dp1955
g73
(dp1956
g81
I3
ssg82
g1950
sg75
(lp1957
g961
asbasbasbag68
(g84
g70
NtRp1958
(dp1959
g73
(dp1960
sg82
g1906
sg75
(lp1961
g68
(g89
g70
NtRp1962
(dp1963
g73
(dp1964
sg82
g1958
sg75
(lp1965
g68
(g69
g70
NtRp1966
(dp1967
g73
(dp1968
g81
I3
ssg82
g1962
sg75
(lp1969
g974
asbasbasbag68
(g84
g70
NtRp1970
(dp1971
g73
(dp1972
sg82
g1906
sg75
(lp1973
g68
(g89
g70
NtRp1974
(dp1975
g73
(dp1976
sg82
g1970
sg75
(lp1977
g68
(g69
g70
NtRp1978
(dp1979
g73
(dp1980
g81
I3
ssg82
g1974
sg75
(lp1981
g987
asbasbasbag68
(g84
g70
NtRp1982
(dp1983
g73
(dp1984
sg82
g1906
sg75
(lp1985
g68
(g89
g70
NtRp1986
(dp1987
g73
(dp1988
sg82
g1982
sg75
(lp1989
g68
(g69
g70
NtRp1990
(dp1991
g73
(dp1992
g81
I3
ssg82
g1986
sg75
(lp1993
g1000
asbasbasbag68
(g84
g70
NtRp1994
(dp1995
g73
(dp1996
sg82
g1906
sg75
(lp1997
g68
(g89
g70
NtRp1998
(dp1999
g73
(dp2000
sg82
g1994
sg75
(lp2001
g68
(g69
g70
NtRp2002
(dp2003
g73
(dp2004
g81
I3
ssg82
g1998
sg75
(lp2005
g1013
asbasbasbasbasbasbasbag68
(g84
g70
NtRp2006
(dp2007
g73
(dp2008
sg82
g1695
sg75
(lp2009
g68
(g89
g70
NtRp2010
(dp2011
g73
(dp2012
g93
g94
ssg82
g2006
sg75
(lp2013
g1303
asbag68
(g89
g70
NtRp2014
(dp2015
g73
(dp2016
g100
g101
ssg82
g2006
sg75
(lp2017
S':'
asbag68
(g89
g70
NtRp2018
(dp2019
g73
(dp2020
sg82
g2006
sg75
(lp2021
g68
(g69
g70
NtRp2022
(dp2023
g73
(dp2024
g81
I4
ssg82
g2018
sg75
(lp2025
g68
(g77
g70
NtRp2026
(dp2027
g73
(dp2028
g81
I3
ssg82
Nsg75
(lp2029
g68
(g84
g70
NtRp2030
(dp2031
g73
(dp2032
sg82
g2026
sg75
(lp2033
g68
(g89
g70
NtRp2034
(dp2035
g73
(dp2036
sg82
g2030
sg75
(lp2037
g68
(g69
g70
NtRp2038
(dp2039
g73
(dp2040
g81
I3
ssg82
g2034
sg75
(lp2041
S'2'
asbasbasbag68
(g84
g70
NtRp2042
(dp2043
g73
(dp2044
sg82
g2026
sg75
(lp2045
g68
(g89
g70
NtRp2046
(dp2047
g73
(dp2048
sg82
g2042
sg75
(lp2049
g68
(g69
g70
NtRp2050
(dp2051
g73
(dp2052
g81
I3
ssg82
g2046
sg75
(lp2053
S'3'
asbasbasbag68
(g84
g70
NtRp2054
(dp2055
g73
(dp2056
sg82
g2026
sg75
(lp2057
g68
(g89
g70
NtRp2058
(dp2059
g73
(dp2060
sg82
g2054
sg75
(lp2061
g68
(g69
g70
NtRp2062
(dp2063
g73
(dp2064
g81
I3
ssg82
g2058
sg75
(lp2065
S'2'
asbasbasbag68
(g84
g70
NtRp2066
(dp2067
g73
(dp2068
sg82
g2026
sg75
(lp2069
g68
(g89
g70
NtRp2070
(dp2071
g73
(dp2072
sg82
g2066
sg75
(lp2073
g68
(g69
g70
NtRp2074
(dp2075
g73
(dp2076
g81
I3
ssg82
g2070
sg75
(lp2077
S'datetime.datetime(2012, 12, 17, 15, 3, 30)'
p2078
asbasbasbag68
(g84
g70
NtRp2079
(dp2080
g73
(dp2081
sg82
g2026
sg75
(lp2082
g68
(g89
g70
NtRp2083
(dp2084
g73
(dp2085
sg82
g2079
sg75
(lp2086
g68
(g69
g70
NtRp2087
(dp2088
g73
(dp2089
g81
I3
ssg82
g2083
sg75
(lp2090
g1381
asbasbasbasbasbasbasbasbasbasbasbag68
(g84
g70
NtRp2091
(dp2092
g73
(dp2093
sg82
g78
sg75
(lp2094
g68
(g89
g70
NtRp2095
(dp2096
g73
(dp2097
g93
g94
ssg82
g2091
sg75
(lp2098
S'is_https'
p2099
asbag68
(g89
g70
NtRp2100
(dp2101
g73
(dp2102
g100
g101
ssg82
g2091
sg75
(lp2103
S':'
asbag68
(g89
g70
NtRp2104
(dp2105
g73
(dp2106
sg82
g2091
sg75
(lp2107
g68
(g69
g70
NtRp2108
(dp2109
g73
(dp2110
g81
I5
ssg82
g2104
sg75
(lp2111
g111
asbasbasbag68
(g84
g70
NtRp2112
(dp2113
g73
(dp2114
sg82
g78
sg75
(lp2115
g68
(g89
g70
NtRp2116
(dp2117
g73
(dp2118
g93
g94
ssg82
g2112
sg75
(lp2119
S'is_local'
p2120
asbag68
(g89
g70
NtRp2121
(dp2122
g73
(dp2123
g100
g101
ssg82
g2112
sg75
(lp2124
S':'
asbag68
(g89
g70
NtRp2125
(dp2126
g73
(dp2127
sg82
g2112
sg75
(lp2128
g68
(g69
g70
NtRp2129
(dp2130
g73
(dp2131
g81
I5
ssg82
g2125
sg75
(lp2132
g1490
asbasbasbag68
(g84
g70
NtRp2133
(dp2134
g73
(dp2135
sg82
g78
sg75
(lp2136
g68
(g89
g70
NtRp2137
(dp2138
g73
(dp2139
g93
g94
ssg82
g2133
sg75
(lp2140
S'is_restful'
p2141
asbag68
(g89
g70
NtRp2142
(dp2143
g73
(dp2144
g100
g101
ssg82
g2133
sg75
(lp2145
S':'
asbag68
(g89
g70
NtRp2146
(dp2147
g73
(dp2148
sg82
g2133
sg75
(lp2149
g68
(g69
g70
NtRp2150
(dp2151
g73
(dp2152
g81
I5
ssg82
g2146
sg75
(lp2153
g111
asbasbasbag68
(g84
g70
NtRp2154
(dp2155
g73
(dp2156
sg82
g78
sg75
(lp2157
g68
(g89
g70
NtRp2158
(dp2159
g73
(dp2160
g93
g94
ssg82
g2154
sg75
(lp2161
S'now'
p2162
asbag68
(g89
g70
NtRp2163
(dp2164
g73
(dp2165
g100
g101
ssg82
g2154
sg75
(lp2166
S':'
asbag68
(g89
g70
NtRp2167
(dp2168
g73
(dp2169
sg82
g2154
sg75
(lp2170
g68
(g69
g70
NtRp2171
(dp2172
g73
(dp2173
g81
I5
ssg82
g2167
sg75
(lp2174
S'datetime.datetime(2013, 3, 2, 14, 55, 3, 473000)'
p2175
asbasbasbag68
(g84
g70
NtRp2176
(dp2177
g73
(dp2178
sg82
g78
sg75
(lp2179
g68
(g89
g70
NtRp2180
(dp2181
g73
(dp2182
g93
g94
ssg82
g2176
sg75
(lp2183
S'post_vars'
p2184
asbag68
(g89
g70
NtRp2185
(dp2186
g73
(dp2187
g100
g101
ssg82
g2176
sg75
(lp2188
S':'
asbag68
(g89
g70
NtRp2189
(dp2190
g73
(dp2191
sg82
g2176
sg75
(lp2192
g68
(g69
g70
NtRp2193
(dp2194
g73
(dp2195
g81
I5
ssg82
g2189
sg75
(lp2196
g68
(g77
g70
NtRp2197
(dp2198
g73
(dp2199
g81
I4
ssg82
Nsg75
(lp2200
sbasbasbasbag68
(g84
g70
NtRp2201
(dp2202
g73
(dp2203
sg82
g78
sg75
(lp2204
g68
(g89
g70
NtRp2205
(dp2206
g73
(dp2207
g93
g94
ssg82
g2201
sg75
(lp2208
S'raw_args'
p2209
asbag68
(g89
g70
NtRp2210
(dp2211
g73
(dp2212
g100
g101
ssg82
g2201
sg75
(lp2213
S':'
asbag68
(g89
g70
NtRp2214
(dp2215
g73
(dp2216
sg82
g2201
sg75
(lp2217
g68
(g69
g70
NtRp2218
(dp2219
g73
(dp2220
g81
I5
ssg82
g2214
sg75
(lp2221
S''
asbasbasbag68
(g84
g70
NtRp2222
(dp2223
g73
(dp2224
sg82
g78
sg75
(lp2225
g68
(g89
g70
NtRp2226
(dp2227
g73
(dp2228
g93
g94
ssg82
g2222
sg75
(lp2229
S'raw_extension'
p2230
asbag68
(g89
g70
NtRp2231
(dp2232
g73
(dp2233
g100
g101
ssg82
g2222
sg75
(lp2234
S':'
asbag68
(g89
g70
NtRp2235
(dp2236
g73
(dp2237
sg82
g2222
sg75
(lp2238
g68
(g69
g70
NtRp2239
(dp2240
g73
(dp2241
g81
I5
ssg82
g2235
sg75
(lp2242
S'None'
p2243
asbasbasbag68
(g84
g70
NtRp2244
(dp2245
g73
(dp2246
sg82
g78
sg75
(lp2247
g68
(g89
g70
NtRp2248
(dp2249
g73
(dp2250
g93
g94
ssg82
g2244
sg75
(lp2251
S'url'
p2252
asbag68
(g89
g70
NtRp2253
(dp2254
g73
(dp2255
g100
g101
ssg82
g2244
sg75
(lp2256
S':'
asbag68
(g89
g70
NtRp2257
(dp2258
g73
(dp2259
sg82
g2244
sg75
(lp2260
g68
(g69
g70
NtRp2261
(dp2262
g73
(dp2263
g81
I5
ssg82
g2257
sg75
(lp2264
g1035
asbasbasbag68
(g84
g70
NtRp2265
(dp2266
g73
(dp2267
sg82
g78
sg75
(lp2268
g68
(g89
g70
NtRp2269
(dp2270
g73
(dp2271
g93
g94
ssg82
g2265
sg75
(lp2272
S'utcnow'
p2273
asbag68
(g89
g70
NtRp2274
(dp2275
g73
(dp2276
g100
g101
ssg82
g2265
sg75
(lp2277
S':'
asbag68
(g89
g70
NtRp2278
(dp2279
g73
(dp2280
sg82
g2265
sg75
(lp2281
g68
(g69
g70
NtRp2282
(dp2283
g73
(dp2284
g81
I5
ssg82
g2278
sg75
(lp2285
S'datetime.datetime(2013, 3, 2, 17, 55, 3, 473000)'
p2286
asbasbasbag68
(g84
g70
NtRp2287
(dp2288
g73
(dp2289
sg82
g78
sg75
(lp2290
g68
(g89
g70
NtRp2291
(dp2292
g73
(dp2293
g93
g94
ssg82
g2287
sg75
(lp2294
S'uuid'
p2295
asbag68
(g89
g70
NtRp2296
(dp2297
g73
(dp2298
g100
g101
ssg82
g2287
sg75
(lp2299
S':'
asbag68
(g89
g70
NtRp2300
(dp2301
g73
(dp2302
sg82
g2287
sg75
(lp2303
g68
(g69
g70
NtRp2304
(dp2305
g73
(dp2306
g81
I5
ssg82
g2300
sg75
(lp2307
S'PFM_Web/127.0.0.1.2013-03-02.14-55-03.5eba65b0-a7c8-408b-9679-404469779e50'
p2308
asbasbasbag68
(g84
g70
NtRp2309
(dp2310
g73
(dp2311
sg82
g78
sg75
(lp2312
g68
(g89
g70
NtRp2313
(dp2314
g73
(dp2315
g93
g94
ssg82
g2309
sg75
(lp2316
S'vars'
p2317
asbag68
(g89
g70
NtRp2318
(dp2319
g73
(dp2320
g100
g101
ssg82
g2309
sg75
(lp2321
S':'
asbag68
(g89
g70
NtRp2322
(dp2323
g73
(dp2324
sg82
g2309
sg75
(lp2325
g68
(g69
g70
NtRp2326
(dp2327
g73
(dp2328
g81
I5
ssg82
g2322
sg75
(lp2329
g68
(g77
g70
NtRp2330
(dp2331
g73
(dp2332
g81
I4
ssg82
Nsg75
(lp2333
sbasbasbasbag68
(g84
g70
NtRp2334
(dp2335
g73
(dp2336
sg82
g78
sg75
(lp2337
g68
(g89
g70
NtRp2338
(dp2339
g73
(dp2340
g93
g94
ssg82
g2334
sg75
(lp2341
S'wsgi'
p2342
asbag68
(g89
g70
NtRp2343
(dp2344
g73
(dp2345
g100
g101
ssg82
g2334
sg75
(lp2346
S':'
asbag68
(g89
g70
NtRp2347
(dp2348
g73
(dp2349
sg82
g2334
sg75
(lp2350
g68
(g69
g70
NtRp2351
(dp2352
g73
(dp2353
g81
I5
ssg82
g2347
sg75
(lp2354
g68
(g77
g70
NtRp2355
(dp2356
g73
(dp2357
g81
I4
ssg82
Nsg75
(lp2358
g68
(g84
g70
NtRp2359
(dp2360
g73
(dp2361
sg82
g2355
sg75
(lp2362
g68
(g89
g70
NtRp2363
(dp2364
g73
(dp2365
g93
g94
ssg82
g2359
sg75
(lp2366
S'environ'
p2367
asbag68
(g89
g70
NtRp2368
(dp2369
g73
(dp2370
g100
g101
ssg82
g2359
sg75
(lp2371
S':'
asbag68
(g89
g70
NtRp2372
(dp2373
g73
(dp2374
sg82
g2359
sg75
(lp2375
g68
(g69
g70
NtRp2376
(dp2377
g73
(dp2378
g81
I4
ssg82
g2372
sg75
(lp2379
g68
(g77
g70
NtRp2380
(dp2381
g73
(dp2382
g81
I3
ssg82
Nsg75
(lp2383
g68
(g84
g70
NtRp2384
(dp2385
g73
(dp2386
sg82
g2380
sg75
(lp2387
g68
(g89
g70
NtRp2388
(dp2389
g73
(dp2390
g93
g94
ssg82
g2384
sg75
(lp2391
S'HTTP_ACCEPT'
p2392
asbag68
(g89
g70
NtRp2393
(dp2394
g73
(dp2395
g100
g101
ssg82
g2384
sg75
(lp2396
S':'
asbag68
(g89
g70
NtRp2397
(dp2398
g73
(dp2399
sg82
g2384
sg75
(lp2400
g68
(g69
g70
NtRp2401
(dp2402
g73
(dp2403
g81
I3
ssg82
g2397
sg75
(lp2404
g667
asbasbasbag68
(g84
g70
NtRp2405
(dp2406
g73
(dp2407
sg82
g2380
sg75
(lp2408
g68
(g89
g70
NtRp2409
(dp2410
g73
(dp2411
g93
g94
ssg82
g2405
sg75
(lp2412
S'HTTP_ACCEPT_ENCODING'
p2413
asbag68
(g89
g70
NtRp2414
(dp2415
g73
(dp2416
g100
g101
ssg82
g2405
sg75
(lp2417
S':'
asbag68
(g89
g70
NtRp2418
(dp2419
g73
(dp2420
sg82
g2405
sg75
(lp2421
g68
(g69
g70
NtRp2422
(dp2423
g73
(dp2424
g81
I3
ssg82
g2418
sg75
(lp2425
g689
asbasbasbag68
(g84
g70
NtRp2426
(dp2427
g73
(dp2428
sg82
g2380
sg75
(lp2429
g68
(g89
g70
NtRp2430
(dp2431
g73
(dp2432
g93
g94
ssg82
g2426
sg75
(lp2433
S'HTTP_ACCEPT_LANGUAGE'
p2434
asbag68
(g89
g70
NtRp2435
(dp2436
g73
(dp2437
g100
g101
ssg82
g2426
sg75
(lp2438
S':'
asbag68
(g89
g70
NtRp2439
(dp2440
g73
(dp2441
sg82
g2426
sg75
(lp2442
g68
(g69
g70
NtRp2443
(dp2444
g73
(dp2445
g81
I3
ssg82
g2439
sg75
(lp2446
g711
asbasbasbag68
(g84
g70
NtRp2447
(dp2448
g73
(dp2449
sg82
g2380
sg75
(lp2450
g68
(g89
g70
NtRp2451
(dp2452
g73
(dp2453
g93
g94
ssg82
g2447
sg75
(lp2454
S'HTTP_CONNECTION'
p2455
asbag68
(g89
g70
NtRp2456
(dp2457
g73
(dp2458
g100
g101
ssg82
g2447
sg75
(lp2459
S':'
asbag68
(g89
g70
NtRp2460
(dp2461
g73
(dp2462
sg82
g2447
sg75
(lp2463
g68
(g69
g70
NtRp2464
(dp2465
g73
(dp2466
g81
I3
ssg82
g2460
sg75
(lp2467
g733
asbasbasbag68
(g84
g70
NtRp2468
(dp2469
g73
(dp2470
sg82
g2380
sg75
(lp2471
g68
(g89
g70
NtRp2472
(dp2473
g73
(dp2474
g93
g94
ssg82
g2468
sg75
(lp2475
S'HTTP_COOKIE'
p2476
asbag68
(g89
g70
NtRp2477
(dp2478
g73
(dp2479
g100
g101
ssg82
g2468
sg75
(lp2480
S':'
asbag68
(g89
g70
NtRp2481
(dp2482
g73
(dp2483
sg82
g2468
sg75
(lp2484
g68
(g69
g70
NtRp2485
(dp2486
g73
(dp2487
g81
I3
ssg82
g2481
sg75
(lp2488
g755
asbasbasbag68
(g84
g70
NtRp2489
(dp2490
g73
(dp2491
sg82
g2380
sg75
(lp2492
g68
(g89
g70
NtRp2493
(dp2494
g73
(dp2495
g93
g94
ssg82
g2489
sg75
(lp2496
S'HTTP_DNT'
p2497
asbag68
(g89
g70
NtRp2498
(dp2499
g73
(dp2500
g100
g101
ssg82
g2489
sg75
(lp2501
S':'
asbag68
(g89
g70
NtRp2502
(dp2503
g73
(dp2504
sg82
g2489
sg75
(lp2505
g68
(g69
g70
NtRp2506
(dp2507
g73
(dp2508
g81
I3
ssg82
g2502
sg75
(lp2509
S'1'
asbasbasbag68
(g84
g70
NtRp2510
(dp2511
g73
(dp2512
sg82
g2380
sg75
(lp2513
g68
(g89
g70
NtRp2514
(dp2515
g73
(dp2516
g93
g94
ssg82
g2510
sg75
(lp2517
S'HTTP_HOST'
p2518
asbag68
(g89
g70
NtRp2519
(dp2520
g73
(dp2521
g100
g101
ssg82
g2510
sg75
(lp2522
S':'
asbag68
(g89
g70
NtRp2523
(dp2524
g73
(dp2525
sg82
g2510
sg75
(lp2526
g68
(g69
g70
NtRp2527
(dp2528
g73
(dp2529
g81
I3
ssg82
g2523
sg75
(lp2530
g798
asbasbasbag68
(g84
g70
NtRp2531
(dp2532
g73
(dp2533
sg82
g2380
sg75
(lp2534
g68
(g89
g70
NtRp2535
(dp2536
g73
(dp2537
g93
g94
ssg82
g2531
sg75
(lp2538
S'HTTP_REFERER'
p2539
asbag68
(g89
g70
NtRp2540
(dp2541
g73
(dp2542
g100
g101
ssg82
g2531
sg75
(lp2543
S':'
asbag68
(g89
g70
NtRp2544
(dp2545
g73
(dp2546
sg82
g2531
sg75
(lp2547
g68
(g69
g70
NtRp2548
(dp2549
g73
(dp2550
g81
I3
ssg82
g2544
sg75
(lp2551
g820
asbasbasbag68
(g84
g70
NtRp2552
(dp2553
g73
(dp2554
sg82
g2380
sg75
(lp2555
g68
(g89
g70
NtRp2556
(dp2557
g73
(dp2558
g93
g94
ssg82
g2552
sg75
(lp2559
S'HTTP_USER_AGENT'
p2560
asbag68
(g89
g70
NtRp2561
(dp2562
g73
(dp2563
g100
g101
ssg82
g2552
sg75
(lp2564
S':'
asbag68
(g89
g70
NtRp2565
(dp2566
g73
(dp2567
sg82
g2552
sg75
(lp2568
g68
(g69
g70
NtRp2569
(dp2570
g73
(dp2571
g81
I3
ssg82
g2565
sg75
(lp2572
g842
asbasbasbag68
(g84
g70
NtRp2573
(dp2574
g73
(dp2575
sg82
g2380
sg75
(lp2576
g68
(g89
g70
NtRp2577
(dp2578
g73
(dp2579
g93
g94
ssg82
g2573
sg75
(lp2580
S'PATH_INFO'
p2581
asbag68
(g89
g70
NtRp2582
(dp2583
g73
(dp2584
g100
g101
ssg82
g2573
sg75
(lp2585
S':'
asbag68
(g89
g70
NtRp2586
(dp2587
g73
(dp2588
sg82
g2573
sg75
(lp2589
g68
(g69
g70
NtRp2590
(dp2591
g73
(dp2592
g81
I3
ssg82
g2586
sg75
(lp2593
g1035
asbasbasbag68
(g84
g70
NtRp2594
(dp2595
g73
(dp2596
sg82
g2380
sg75
(lp2597
g68
(g89
g70
NtRp2598
(dp2599
g73
(dp2600
g93
g94
ssg82
g2594
sg75
(lp2601
S'QUERY_STRING'
p2602
asbag68
(g89
g70
NtRp2603
(dp2604
g73
(dp2605
g100
g101
ssg82
g2594
sg75
(lp2606
S':'
asbag68
(g89
g70
NtRp2607
(dp2608
g73
(dp2609
sg82
g2594
sg75
(lp2610
g68
(g69
g70
NtRp2611
(dp2612
g73
(dp2613
g81
I3
ssg82
g2607
sg75
(lp2614
S''
asbasbasbag68
(g84
g70
NtRp2615
(dp2616
g73
(dp2617
sg82
g2380
sg75
(lp2618
g68
(g89
g70
NtRp2619
(dp2620
g73
(dp2621
g93
g94
ssg82
g2615
sg75
(lp2622
S'REMOTE_ADDR'
p2623
asbag68
(g89
g70
NtRp2624
(dp2625
g73
(dp2626
g100
g101
ssg82
g2615
sg75
(lp2627
S':'
asbag68
(g89
g70
NtRp2628
(dp2629
g73
(dp2630
sg82
g2615
sg75
(lp2631
g68
(g69
g70
NtRp2632
(dp2633
g73
(dp2634
g81
I3
ssg82
g2628
sg75
(lp2635
g223
asbasbasbag68
(g84
g70
NtRp2636
(dp2637
g73
(dp2638
sg82
g2380
sg75
(lp2639
g68
(g89
g70
NtRp2640
(dp2641
g73
(dp2642
g93
g94
ssg82
g2636
sg75
(lp2643
S'REMOTE_PORT'
p2644
asbag68
(g89
g70
NtRp2645
(dp2646
g73
(dp2647
g100
g101
ssg82
g2636
sg75
(lp2648
S':'
asbag68
(g89
g70
NtRp2649
(dp2650
g73
(dp2651
sg82
g2636
sg75
(lp2652
g68
(g69
g70
NtRp2653
(dp2654
g73
(dp2655
g81
I3
ssg82
g2649
sg75
(lp2656
g1099
asbasbasbag68
(g84
g70
NtRp2657
(dp2658
g73
(dp2659
sg82
g2380
sg75
(lp2660
g68
(g89
g70
NtRp2661
(dp2662
g73
(dp2663
g93
g94
ssg82
g2657
sg75
(lp2664
S'REQUEST_METHOD'
p2665
asbag68
(g89
g70
NtRp2666
(dp2667
g73
(dp2668
g100
g101
ssg82
g2657
sg75
(lp2669
S':'
asbag68
(g89
g70
NtRp2670
(dp2671
g73
(dp2672
sg82
g2657
sg75
(lp2673
g68
(g69
g70
NtRp2674
(dp2675
g73
(dp2676
g81
I3
ssg82
g2670
sg75
(lp2677
g1121
asbasbasbag68
(g84
g70
NtRp2678
(dp2679
g73
(dp2680
sg82
g2380
sg75
(lp2681
g68
(g89
g70
NtRp2682
(dp2683
g73
(dp2684
g93
g94
ssg82
g2678
sg75
(lp2685
S'REQUEST_URI'
p2686
asbag68
(g89
g70
NtRp2687
(dp2688
g73
(dp2689
g100
g101
ssg82
g2678
sg75
(lp2690
S':'
asbag68
(g89
g70
NtRp2691
(dp2692
g73
(dp2693
sg82
g2678
sg75
(lp2694
g68
(g69
g70
NtRp2695
(dp2696
g73
(dp2697
g81
I3
ssg82
g2691
sg75
(lp2698
g1035
asbasbasbag68
(g84
g70
NtRp2699
(dp2700
g73
(dp2701
sg82
g2380
sg75
(lp2702
g68
(g89
g70
NtRp2703
(dp2704
g73
(dp2705
g93
g94
ssg82
g2699
sg75
(lp2706
S'SCRIPT_NAME'
p2707
asbag68
(g89
g70
NtRp2708
(dp2709
g73
(dp2710
g100
g101
ssg82
g2699
sg75
(lp2711
S':'
asbag68
(g89
g70
NtRp2712
(dp2713
g73
(dp2714
sg82
g2699
sg75
(lp2715
g68
(g69
g70
NtRp2716
(dp2717
g73
(dp2718
g81
I3
ssg82
g2712
sg75
(lp2719
S''
asbasbasbag68
(g84
g70
NtRp2720
(dp2721
g73
(dp2722
sg82
g2380
sg75
(lp2723
g68
(g89
g70
NtRp2724
(dp2725
g73
(dp2726
g93
g94
ssg82
g2720
sg75
(lp2727
S'SERVER_NAME'
p2728
asbag68
(g89
g70
NtRp2729
(dp2730
g73
(dp2731
g100
g101
ssg82
g2720
sg75
(lp2732
S':'
asbag68
(g89
g70
NtRp2733
(dp2734
g73
(dp2735
sg82
g2720
sg75
(lp2736
g68
(g69
g70
NtRp2737
(dp2738
g73
(dp2739
g81
I3
ssg82
g2733
sg75
(lp2740
g1185
asbasbasbag68
(g84
g70
NtRp2741
(dp2742
g73
(dp2743
sg82
g2380
sg75
(lp2744
g68
(g89
g70
NtRp2745
(dp2746
g73
(dp2747
g93
g94
ssg82
g2741
sg75
(lp2748
S'SERVER_PORT'
p2749
asbag68
(g89
g70
NtRp2750
(dp2751
g73
(dp2752
g100
g101
ssg82
g2741
sg75
(lp2753
S':'
asbag68
(g89
g70
NtRp2754
(dp2755
g73
(dp2756
sg82
g2741
sg75
(lp2757
g68
(g69
g70
NtRp2758
(dp2759
g73
(dp2760
g81
I3
ssg82
g2754
sg75
(lp2761
g1207
asbasbasbag68
(g84
g70
NtRp2762
(dp2763
g73
(dp2764
sg82
g2380
sg75
(lp2765
g68
(g89
g70
NtRp2766
(dp2767
g73
(dp2768
g93
g94
ssg82
g2762
sg75
(lp2769
S'SERVER_PROTOCOL'
p2770
asbag68
(g89
g70
NtRp2771
(dp2772
g73
(dp2773
g100
g101
ssg82
g2762
sg75
(lp2774
S':'
asbag68
(g89
g70
NtRp2775
(dp2776
g73
(dp2777
sg82
g2762
sg75
(lp2778
g68
(g69
g70
NtRp2779
(dp2780
g73
(dp2781
g81
I3
ssg82
g2775
sg75
(lp2782
g1229
asbasbasbag68
(g84
g70
NtRp2783
(dp2784
g73
(dp2785
sg82
g2380
sg75
(lp2786
g68
(g89
g70
NtRp2787
(dp2788
g73
(dp2789
g93
g94
ssg82
g2783
sg75
(lp2790
S'SERVER_SOFTWARE'
p2791
asbag68
(g89
g70
NtRp2792
(dp2793
g73
(dp2794
g100
g101
ssg82
g2783
sg75
(lp2795
S':'
asbag68
(g89
g70
NtRp2796
(dp2797
g73
(dp2798
sg82
g2783
sg75
(lp2799
g68
(g69
g70
NtRp2800
(dp2801
g73
(dp2802
g81
I3
ssg82
g2796
sg75
(lp2803
g1251
asbasbasbag68
(g84
g70
NtRp2804
(dp2805
g73
(dp2806
sg82
g2380
sg75
(lp2807
g68
(g89
g70
NtRp2808
(dp2809
g73
(dp2810
g93
g94
ssg82
g2804
sg75
(lp2811
S'WEB2PY_ORIGINAL_URI'
p2812
asbag68
(g89
g70
NtRp2813
(dp2814
g73
(dp2815
g100
g101
ssg82
g2804
sg75
(lp2816
S':'
asbag68
(g89
g70
NtRp2817
(dp2818
g73
(dp2819
sg82
g2804
sg75
(lp2820
g68
(g69
g70
NtRp2821
(dp2822
g73
(dp2823
g81
I3
ssg82
g2817
sg75
(lp2824
g1273
asbasbasbag68
(g84
g70
NtRp2825
(dp2826
g73
(dp2827
sg82
g2380
sg75
(lp2828
g68
(g89
g70
NtRp2829
(dp2830
g73
(dp2831
g93
g94
ssg82
g2825
sg75
(lp2832
S'wsgi.errors'
p2833
asbag68
(g89
g70
NtRp2834
(dp2835
g73
(dp2836
g100
g101
ssg82
g2825
sg75
(lp2837
S':'
asbag68
(g89
g70
NtRp2838
(dp2839
g73
(dp2840
sg82
g2825
sg75
(lp2841
g68
(g69
g70
NtRp2842
(dp2843
g73
(dp2844
g81
I3
ssg82
g2838
sg75
(lp2845
S"<open file '<stderr>', mode 'w' at 0x0000000001CE71E0>"
p2846
asbasbasbag68
(g84
g70
NtRp2847
(dp2848
g73
(dp2849
sg82
g2380
sg75
(lp2850
g68
(g89
g70
NtRp2851
(dp2852
g73
(dp2853
g93
g94
ssg82
g2847
sg75
(lp2854
S'wsgi.file_wrapper'
p2855
asbag68
(g89
g70
NtRp2856
(dp2857
g73
(dp2858
g100
g101
ssg82
g2847
sg75
(lp2859
S':'
asbag68
(g89
g70
NtRp2860
(dp2861
g73
(dp2862
sg82
g2847
sg75
(lp2863
g68
(g69
g70
NtRp2864
(dp2865
g73
(dp2866
g81
I3
ssg82
g2860
sg75
(lp2867
S'<class wsgiref.util.FileWrapper at 0x00000000030BF768>'
p2868
asbasbasbag68
(g84
g70
NtRp2869
(dp2870
g73
(dp2871
sg82
g2380
sg75
(lp2872
g68
(g89
g70
NtRp2873
(dp2874
g73
(dp2875
g93
g94
ssg82
g2869
sg75
(lp2876
S'wsgi.input'
p2877
asbag68
(g89
g70
NtRp2878
(dp2879
g73
(dp2880
g100
g101
ssg82
g2869
sg75
(lp2881
S':'
asbag68
(g89
g70
NtRp2882
(dp2883
g73
(dp2884
sg82
g2869
sg75
(lp2885
g68
(g69
g70
NtRp2886
(dp2887
g73
(dp2888
g81
I3
ssg82
g2882
sg75
(lp2889
S'<cStringIO.StringO object at 0x0000000004592960>'
p2890
asbasbasbag68
(g84
g70
NtRp2891
(dp2892
g73
(dp2893
sg82
g2380
sg75
(lp2894
g68
(g89
g70
NtRp2895
(dp2896
g73
(dp2897
g93
g94
ssg82
g2891
sg75
(lp2898
S'wsgi.multiprocess'
p2899
asbag68
(g89
g70
NtRp2900
(dp2901
g73
(dp2902
g100
g101
ssg82
g2891
sg75
(lp2903
S':'
asbag68
(g89
g70
NtRp2904
(dp2905
g73
(dp2906
sg82
g2891
sg75
(lp2907
g68
(g69
g70
NtRp2908
(dp2909
g73
(dp2910
g81
I3
ssg82
g2904
sg75
(lp2911
g111
asbasbasbag68
(g84
g70
NtRp2912
(dp2913
g73
(dp2914
sg82
g2380
sg75
(lp2915
g68
(g89
g70
NtRp2916
(dp2917
g73
(dp2918
g93
g94
ssg82
g2912
sg75
(lp2919
S'wsgi.multithread'
p2920
asbag68
(g89
g70
NtRp2921
(dp2922
g73
(dp2923
g100
g101
ssg82
g2912
sg75
(lp2924
S':'
asbag68
(g89
g70
NtRp2925
(dp2926
g73
(dp2927
sg82
g2912
sg75
(lp2928
g68
(g69
g70
NtRp2929
(dp2930
g73
(dp2931
g81
I3
ssg82
g2925
sg75
(lp2932
g1490
asbasbasbag68
(g84
g70
NtRp2933
(dp2934
g73
(dp2935
sg82
g2380
sg75
(lp2936
g68
(g89
g70
NtRp2937
(dp2938
g73
(dp2939
g93
g94
ssg82
g2933
sg75
(lp2940
S'wsgi.run_once'
p2941
asbag68
(g89
g70
NtRp2942
(dp2943
g73
(dp2944
g100
g101
ssg82
g2933
sg75
(lp2945
S':'
asbag68
(g89
g70
NtRp2946
(dp2947
g73
(dp2948
sg82
g2933
sg75
(lp2949
g68
(g69
g70
NtRp2950
(dp2951
g73
(dp2952
g81
I3
ssg82
g2946
sg75
(lp2953
g111
asbasbasbag68
(g84
g70
NtRp2954
(dp2955
g73
(dp2956
sg82
g2380
sg75
(lp2957
g68
(g89
g70
NtRp2958
(dp2959
g73
(dp2960
g93
g94
ssg82
g2954
sg75
(lp2961
S'wsgi.url_scheme'
p2962
asbag68
(g89
g70
NtRp2963
(dp2964
g73
(dp2965
g100
g101
ssg82
g2954
sg75
(lp2966
S':'
asbag68
(g89
g70
NtRp2967
(dp2968
g73
(dp2969
sg82
g2954
sg75
(lp2970
g68
(g69
g70
NtRp2971
(dp2972
g73
(dp2973
g81
I3
ssg82
g2967
sg75
(lp2974
g1533
asbasbasbag68
(g84
g70
NtRp2975
(dp2976
g73
(dp2977
sg82
g2380
sg75
(lp2978
g68
(g89
g70
NtRp2979
(dp2980
g73
(dp2981
g93
g94
ssg82
g2975
sg75
(lp2982
S'wsgi.version'
p2983
asbag68
(g89
g70
NtRp2984
(dp2985
g73
(dp2986
g100
g101
ssg82
g2975
sg75
(lp2987
S':'
asbag68
(g89
g70
NtRp2988
(dp2989
g73
(dp2990
sg82
g2975
sg75
(lp2991
g68
(g69
g70
NtRp2992
(dp2993
g73
(dp2994
g81
I3
ssg82
g2988
sg75
(lp2995
S'1'
asbasbasbasbasbasbasbasbasbasbasbasbasbsS'frames'
p2996
(lp2997
(dp2998
S'file'
p2999
S'C:\\Users\\Juliano\\Documents\\Visual Studio 2012\\Projects\\PFM-Web\\gluon\\restricted.py'
p3000
sS'dump'
p3001
(dp3002
S'code'
p3003
S"'# -*- coding: utf-8 -*-\\n\\n@auth.requires_login()\\n...=crud())\\n\\nresponse._vars=response._caller(index)\\n'"
p3004
sS'layer'
p3005
S"r'C:\\Users\\Juliano\\Documents\\Visual Studio 2012\\Pr...lications\\PFM_Web\\controllers/methodsofpayment.py'"
p3006
sS'global compile2'
p3007
S'<function compile2>'
p3008
sS'ccode'
p3009
S'undefined'
p3010
ssS'lnum'
p3011
I211
sS'lines'
p3012
(dp3013
I206
S"    environment['__name__'] = '__restricted__'"
p3014
sI207
S'    try:'
p3015
sI208
S'        if isinstance(code, types.CodeType):'
p3016
sI209
S'            ccode = code'
p3017
sI210
S'        else:'
p3018
sI211
S'            ccode = compile2(code, layer)'
p3019
sI212
S'        exec ccode in environment'
p3020
sI213
S'    except HTTP:'
p3021
sI214
S'        raise'
p3022
sI215
S'    except RestrictedError:'
p3023
ssS'call'
p3024
S"(code='# -*- coding: utf-8 -*-\\n\\n@auth.requires_login()\\n...=crud())\\n\\nresponse._vars=response._caller(index)\\n', environment={'A': <class 'gluon.html.A'>, 'Auth': <class 'gluon.tools.Auth'>, 'B': <class 'gluon.html.B'>, 'BEAUTIFY': <class 'gluon.html.BEAUTIFY'>, 'BODY': <class 'gluon.html.BODY'>, 'BR': <class 'gluon.html.BR'>, 'BUTTON': <class 'gluon.html.BUTTON'>, 'CAT': <class 'gluon.html.CAT'>, 'CENTER': <class 'gluon.html.CENTER'>, 'CLEANUP': <class 'gluon.validators.CLEANUP'>, ...}, layer=r'C:\\Users\\Juliano\\Documents\\Visual Studio 2012\\Pr...lications\\PFM_Web\\controllers/methodsofpayment.py')"
p3025
sS'func'
p3026
S'restricted'
p3027
sa(dp3028
g2999
S'C:\\Users\\Juliano\\Documents\\Visual Studio 2012\\Projects\\PFM-Web\\gluon\\restricted.py'
p3029
sg3001
(dp3030
S'builtincompile'
p3031
S'<built-in function compile>'
p3032
sS'code'
p3033
S"'# -*- coding: utf-8 -*-\\n\\n@auth.requires_login()\\n...=crud())\\n\\nresponse._vars=response._caller(index)\\n'"
p3034
sS'code.rstrip'
p3035
S'<built-in method rstrip of str object>'
p3036
sS').replace'
p3037
g3010
sS'layer'
p3038
S"r'C:\\Users\\Juliano\\Documents\\Visual Studio 2012\\Pr...lications\\PFM_Web\\controllers/methodsofpayment.py'"
p3039
ssg3011
I194
sg3012
(dp3040
I192
S"    The +'\\n' is necessary else compile fails when code ends in a comment."
p3041
sI193
S'    """'
p3042
sI194
S"    return compile(code.rstrip().replace('\\r\\n', '\\n') + '\\n', layer, 'exec')"
p3043
sI195
S''
sI196
S''
sI197
S"def restricted(code, environment=None, layer='Unknown'):"
p3044
sI198
S'    """'
p3045
sI189
S''
sI190
S'def compile2(code, layer):'
p3046
sI191
S'    """'
p3047
ssg3024
S"(code='# -*- coding: utf-8 -*-\\n\\n@auth.requires_login()\\n...=crud())\\n\\nresponse._vars=response._caller(index)\\n', layer=r'C:\\Users\\Juliano\\Documents\\Visual Studio 2012\\Pr...lications\\PFM_Web\\controllers/methodsofpayment.py')"
p3048
sg3026
S'compile2'
p3049
sasS'pyver'
p3050
S'Python 2.7.3: C:\\Python27\\python.exe'
p3051
sS'session'
p3052
g68
(g69
g70
NtRp3053
(dp3054
g73
(dp3055
sg75
(lp3056
g68
(g77
g70
NtRp3057
(dp3058
g73
(dp3059
g81
I5
ssg82
Nsg75
(lp3060
g68
(g84
g70
NtRp3061
(dp3062
g73
(dp3063
sg82
g3057
sg75
(lp3064
g68
(g89
g70
NtRp3065
(dp3066
g73
(dp3067
g93
g94
ssg82
g3061
sg75
(lp3068
S'auth'
p3069
asbag68
(g89
g70
NtRp3070
(dp3071
g73
(dp3072
g100
g101
ssg82
g3061
sg75
(lp3073
S':'
asbag68
(g89
g70
NtRp3074
(dp3075
g73
(dp3076
sg82
g3061
sg75
(lp3077
g68
(g69
g70
NtRp3078
(dp3079
g73
(dp3080
g81
I5
ssg82
g3074
sg75
(lp3081
g68
(g77
g70
NtRp3082
(dp3083
g73
(dp3084
g81
I4
ssg82
Nsg75
(lp3085
g68
(g84
g70
NtRp3086
(dp3087
g73
(dp3088
sg82
g3082
sg75
(lp3089
g68
(g89
g70
NtRp3090
(dp3091
g73
(dp3092
g93
g94
ssg82
g3086
sg75
(lp3093
S'expiration'
p3094
asbag68
(g89
g70
NtRp3095
(dp3096
g73
(dp3097
g100
g101
ssg82
g3086
sg75
(lp3098
S':'
asbag68
(g89
g70
NtRp3099
(dp3100
g73
(dp3101
sg82
g3086
sg75
(lp3102
g68
(g69
g70
NtRp3103
(dp3104
g73
(dp3105
g81
I4
ssg82
g3099
sg75
(lp3106
S'3600'
p3107
asbasbasbag68
(g84
g70
NtRp3108
(dp3109
g73
(dp3110
sg82
g3082
sg75
(lp3111
g68
(g89
g70
NtRp3112
(dp3113
g73
(dp3114
g93
g94
ssg82
g3108
sg75
(lp3115
S'hmac_key'
p3116
asbag68
(g89
g70
NtRp3117
(dp3118
g73
(dp3119
g100
g101
ssg82
g3108
sg75
(lp3120
S':'
asbag68
(g89
g70
NtRp3121
(dp3122
g73
(dp3123
sg82
g3108
sg75
(lp3124
g68
(g69
g70
NtRp3125
(dp3126
g73
(dp3127
g81
I4
ssg82
g3121
sg75
(lp3128
S'ba6ea843-2ae3-4ea1-9f21-fb5d373cea61'
p3129
asbasbasbag68
(g84
g70
NtRp3130
(dp3131
g73
(dp3132
sg82
g3082
sg75
(lp3133
g68
(g89
g70
NtRp3134
(dp3135
g73
(dp3136
g93
g94
ssg82
g3130
sg75
(lp3137
S'last_visit'
p3138
asbag68
(g89
g70
NtRp3139
(dp3140
g73
(dp3141
g100
g101
ssg82
g3130
sg75
(lp3142
S':'
asbag68
(g89
g70
NtRp3143
(dp3144
g73
(dp3145
sg82
g3130
sg75
(lp3146
g68
(g69
g70
NtRp3147
(dp3148
g73
(dp3149
g81
I4
ssg82
g3143
sg75
(lp3150
S'datetime.datetime(2013, 3, 2, 14, 54, 1, 343000)'
p3151
asbasbasbag68
(g84
g70
NtRp3152
(dp3153
g73
(dp3154
sg82
g3082
sg75
(lp3155
g68
(g89
g70
NtRp3156
(dp3157
g73
(dp3158
g93
g94
ssg82
g3152
sg75
(lp3159
S'remember'
p3160
asbag68
(g89
g70
NtRp3161
(dp3162
g73
(dp3163
g100
g101
ssg82
g3152
sg75
(lp3164
S':'
asbag68
(g89
g70
NtRp3165
(dp3166
g73
(dp3167
sg82
g3152
sg75
(lp3168
g68
(g69
g70
NtRp3169
(dp3170
g73
(dp3171
g81
I4
ssg82
g3165
sg75
(lp3172
g111
asbasbasbag68
(g84
g70
NtRp3173
(dp3174
g73
(dp3175
sg82
g3082
sg75
(lp3176
g68
(g89
g70
NtRp3177
(dp3178
g73
(dp3179
g93
g94
ssg82
g3173
sg75
(lp3180
S'user'
p3181
asbag68
(g89
g70
NtRp3182
(dp3183
g73
(dp3184
g100
g101
ssg82
g3173
sg75
(lp3185
S':'
asbag68
(g89
g70
NtRp3186
(dp3187
g73
(dp3188
sg82
g3173
sg75
(lp3189
g68
(g69
g70
NtRp3190
(dp3191
g73
(dp3192
g81
I4
ssg82
g3186
sg75
(lp3193
g68
(g77
g70
NtRp3194
(dp3195
g73
(dp3196
g81
I3
ssg82
Nsg75
(lp3197
g68
(g84
g70
NtRp3198
(dp3199
g73
(dp3200
sg82
g3194
sg75
(lp3201
g68
(g89
g70
NtRp3202
(dp3203
g73
(dp3204
g93
g94
ssg82
g3198
sg75
(lp3205
S'email'
p3206
asbag68
(g89
g70
NtRp3207
(dp3208
g73
(dp3209
g100
g101
ssg82
g3198
sg75
(lp3210
S':'
asbag68
(g89
g70
NtRp3211
(dp3212
g73
(dp3213
sg82
g3198
sg75
(lp3214
g68
(g69
g70
NtRp3215
(dp3216
g73
(dp3217
g81
I3
ssg82
g3211
sg75
(lp3218
S'juliano.sdsouza@gmail.com'
p3219
asbasbasbag68
(g84
g70
NtRp3220
(dp3221
g73
(dp3222
sg82
g3194
sg75
(lp3223
g68
(g89
g70
NtRp3224
(dp3225
g73
(dp3226
g93
g94
ssg82
g3220
sg75
(lp3227
S'first_name'
p3228
asbag68
(g89
g70
NtRp3229
(dp3230
g73
(dp3231
g100
g101
ssg82
g3220
sg75
(lp3232
S':'
asbag68
(g89
g70
NtRp3233
(dp3234
g73
(dp3235
sg82
g3220
sg75
(lp3236
g68
(g69
g70
NtRp3237
(dp3238
g73
(dp3239
g81
I3
ssg82
g3233
sg75
(lp3240
S'juliano.sdsouza'
p3241
asbasbasbag68
(g84
g70
NtRp3242
(dp3243
g73
(dp3244
sg82
g3194
sg75
(lp3245
g68
(g89
g70
NtRp3246
(dp3247
g73
(dp3248
g93
g94
ssg82
g3242
sg75
(lp3249
S'id'
p3250
asbag68
(g89
g70
NtRp3251
(dp3252
g73
(dp3253
g100
g101
ssg82
g3242
sg75
(lp3254
S':'
asbag68
(g89
g70
NtRp3255
(dp3256
g73
(dp3257
sg82
g3242
sg75
(lp3258
g68
(g69
g70
NtRp3259
(dp3260
g73
(dp3261
g81
I3
ssg82
g3255
sg75
(lp3262
S'1'
asbasbasbag68
(g84
g70
NtRp3263
(dp3264
g73
(dp3265
sg82
g3194
sg75
(lp3266
g68
(g89
g70
NtRp3267
(dp3268
g73
(dp3269
g93
g94
ssg82
g3263
sg75
(lp3270
S'last_name'
p3271
asbag68
(g89
g70
NtRp3272
(dp3273
g73
(dp3274
g100
g101
ssg82
g3263
sg75
(lp3275
S':'
asbag68
(g89
g70
NtRp3276
(dp3277
g73
(dp3278
sg82
g3263
sg75
(lp3279
g68
(g69
g70
NtRp3280
(dp3281
g73
(dp3282
g81
I3
ssg82
g3276
sg75
(lp3283
S''
asbasbasbag68
(g84
g70
NtRp3284
(dp3285
g73
(dp3286
sg82
g3194
sg75
(lp3287
g68
(g89
g70
NtRp3288
(dp3289
g73
(dp3290
g93
g94
ssg82
g3284
sg75
(lp3291
S'registration_id'
p3292
asbag68
(g89
g70
NtRp3293
(dp3294
g73
(dp3295
g100
g101
ssg82
g3284
sg75
(lp3296
S':'
asbag68
(g89
g70
NtRp3297
(dp3298
g73
(dp3299
sg82
g3284
sg75
(lp3300
g68
(g69
g70
NtRp3301
(dp3302
g73
(dp3303
g81
I3
ssg82
g3297
sg75
(lp3304
g3219
asbasbasbag68
(g84
g70
NtRp3305
(dp3306
g73
(dp3307
sg82
g3194
sg75
(lp3308
g68
(g89
g70
NtRp3309
(dp3310
g73
(dp3311
g93
g94
ssg82
g3305
sg75
(lp3312
S'registration_key'
p3313
asbag68
(g89
g70
NtRp3314
(dp3315
g73
(dp3316
g100
g101
ssg82
g3305
sg75
(lp3317
S':'
asbag68
(g89
g70
NtRp3318
(dp3319
g73
(dp3320
sg82
g3305
sg75
(lp3321
g68
(g69
g70
NtRp3322
(dp3323
g73
(dp3324
g81
I3
ssg82
g3318
sg75
(lp3325
S''
asbasbasbag68
(g84
g70
NtRp3326
(dp3327
g73
(dp3328
sg82
g3194
sg75
(lp3329
g68
(g89
g70
NtRp3330
(dp3331
g73
(dp3332
g93
g94
ssg82
g3326
sg75
(lp3333
S'reset_password_key'
p3334
asbag68
(g89
g70
NtRp3335
(dp3336
g73
(dp3337
g100
g101
ssg82
g3326
sg75
(lp3338
S':'
asbag68
(g89
g70
NtRp3339
(dp3340
g73
(dp3341
sg82
g3326
sg75
(lp3342
g68
(g69
g70
NtRp3343
(dp3344
g73
(dp3345
g81
I3
ssg82
g3339
sg75
(lp3346
S''
asbasbasbasbasbasbasbag68
(g84
g70
NtRp3347
(dp3348
g73
(dp3349
sg82
g3082
sg75
(lp3350
g68
(g89
g70
NtRp3351
(dp3352
g73
(dp3353
g93
g94
ssg82
g3347
sg75
(lp3354
S'user_groups'
p3355
asbag68
(g89
g70
NtRp3356
(dp3357
g73
(dp3358
g100
g101
ssg82
g3347
sg75
(lp3359
S':'
asbag68
(g89
g70
NtRp3360
(dp3361
g73
(dp3362
sg82
g3347
sg75
(lp3363
g68
(g69
g70
NtRp3364
(dp3365
g73
(dp3366
g81
I4
ssg82
g3360
sg75
(lp3367
g68
(g77
g70
NtRp3368
(dp3369
g73
(dp3370
g81
I3
ssg82
Nsg75
(lp3371
g68
(g84
g70
NtRp3372
(dp3373
g73
(dp3374
sg82
g3368
sg75
(lp3375
g68
(g89
g70
NtRp3376
(dp3377
g73
(dp3378
g93
g94
ssg82
g3372
sg75
(lp3379
S'1'
asbag68
(g89
g70
NtRp3380
(dp3381
g73
(dp3382
g100
g101
ssg82
g3372
sg75
(lp3383
S':'
asbag68
(g89
g70
NtRp3384
(dp3385
g73
(dp3386
sg82
g3372
sg75
(lp3387
g68
(g69
g70
NtRp3388
(dp3389
g73
(dp3390
g81
I3
ssg82
g3384
sg75
(lp3391
S'user_1'
p3392
asbasbasbasbasbasbasbasbasbasbasbag68
(g84
g70
NtRp3393
(dp3394
g73
(dp3395
sg82
g3057
sg75
(lp3396
g68
(g89
g70
NtRp3397
(dp3398
g73
(dp3399
g93
g94
ssg82
g3393
sg75
(lp3400
S'flash'
p3401
asbag68
(g89
g70
NtRp3402
(dp3403
g73
(dp3404
g100
g101
ssg82
g3393
sg75
(lp3405
S':'
asbag68
(g89
g70
NtRp3406
(dp3407
g73
(dp3408
sg82
g3393
sg75
(lp3409
g68
(g69
g70
NtRp3410
(dp3411
g73
(dp3412
g81
I5
ssg82
g3406
sg75
(lp3413
S'None'
p3414
asbasbasbasbasbsS'etype'
p3415
S"<type 'exceptions.SyntaxError'>"
p3416
sS'date'
p3417
S'Sat Mar 02 14:55:03 2013'
p3418
sS'response'
p3419
g68
(g69
g70
NtRp3420
(dp3421
g73
(dp3422
sg75
(lp3423
g68
(g77
g70
NtRp3424
(dp3425
g73
(dp3426
g81
I5
ssg82
Nsg75
(lp3427
g68
(g84
g70
NtRp3428
(dp3429
g73
(dp3430
sg82
g3424
sg75
(lp3431
g68
(g89
g70
NtRp3432
(dp3433
g73
(dp3434
g93
g94
ssg82
g3428
sg75
(lp3435
g166
asbag68
(g89
g70
NtRp3436
(dp3437
g73
(dp3438
g100
g101
ssg82
g3428
sg75
(lp3439
S':'
asbag68
(g89
g70
NtRp3440
(dp3441
g73
(dp3442
sg82
g3428
sg75
(lp3443
g68
(g69
g70
NtRp3444
(dp3445
g73
(dp3446
g81
I5
ssg82
g3440
sg75
(lp3447
S'<cStringIO.StringO object at 0x00000000087AF1B8>'
p3448
asbasbasbag68
(g84
g70
NtRp3449
(dp3450
g73
(dp3451
sg82
g3424
sg75
(lp3452
g68
(g89
g70
NtRp3453
(dp3454
g73
(dp3455
g93
g94
ssg82
g3449
sg75
(lp3456
g254
asbag68
(g89
g70
NtRp3457
(dp3458
g73
(dp3459
g100
g101
ssg82
g3449
sg75
(lp3460
S':'
asbag68
(g89
g70
NtRp3461
(dp3462
g73
(dp3463
sg82
g3449
sg75
(lp3464
g68
(g69
g70
NtRp3465
(dp3466
g73
(dp3467
g81
I5
ssg82
g3461
sg75
(lp3468
g68
(g77
g70
NtRp3469
(dp3470
g73
(dp3471
g81
I4
ssg82
Nsg75
(lp3472
g68
(g84
g70
NtRp3473
(dp3474
g73
(dp3475
sg82
g3469
sg75
(lp3476
g68
(g89
g70
NtRp3477
(dp3478
g73
(dp3479
g93
g94
ssg82
g3473
sg75
(lp3480
S'session_id_pfm_web'
p3481
asbag68
(g89
g70
NtRp3482
(dp3483
g73
(dp3484
g100
g101
ssg82
g3473
sg75
(lp3485
S':'
asbag68
(g89
g70
NtRp3486
(dp3487
g73
(dp3488
sg82
g3473
sg75
(lp3489
g68
(g69
g70
NtRp3490
(dp3491
g73
(dp3492
g81
I4
ssg82
g3486
sg75
(lp3493
g292
ag68
(g77
g70
NtRp3494
(dp3495
g73
(dp3496
g81
I3
ssg82
Nsg75
(lp3497
g68
(g84
g70
NtRp3498
(dp3499
g73
(dp3500
sg82
g3494
sg75
(lp3501
g68
(g89
g70
NtRp3502
(dp3503
g73
(dp3504
g93
g94
ssg82
g3498
sg75
(lp3505
g305
asbag68
(g89
g70
NtRp3506
(dp3507
g73
(dp3508
g100
g101
ssg82
g3498
sg75
(lp3509
S':'
asbag68
(g89
g70
NtRp3510
(dp3511
g73
(dp3512
sg82
g3498
sg75
(lp3513
g68
(g69
g70
NtRp3514
(dp3515
g73
(dp3516
g81
I3
ssg82
g3510
sg75
(lp3517
S''
asbasbasbag68
(g84
g70
NtRp3518
(dp3519
g73
(dp3520
sg82
g3494
sg75
(lp3521
g68
(g89
g70
NtRp3522
(dp3523
g73
(dp3524
g93
g94
ssg82
g3518
sg75
(lp3525
g326
asbag68
(g89
g70
NtRp3526
(dp3527
g73
(dp3528
g100
g101
ssg82
g3518
sg75
(lp3529
S':'
asbag68
(g89
g70
NtRp3530
(dp3531
g73
(dp3532
sg82
g3518
sg75
(lp3533
g68
(g69
g70
NtRp3534
(dp3535
g73
(dp3536
g81
I3
ssg82
g3530
sg75
(lp3537
S''
asbasbasbag68
(g84
g70
NtRp3538
(dp3539
g73
(dp3540
sg82
g3494
sg75
(lp3541
g68
(g89
g70
NtRp3542
(dp3543
g73
(dp3544
g93
g94
ssg82
g3538
sg75
(lp3545
g347
asbag68
(g89
g70
NtRp3546
(dp3547
g73
(dp3548
g100
g101
ssg82
g3538
sg75
(lp3549
S':'
asbag68
(g89
g70
NtRp3550
(dp3551
g73
(dp3552
sg82
g3538
sg75
(lp3553
g68
(g69
g70
NtRp3554
(dp3555
g73
(dp3556
g81
I3
ssg82
g3550
sg75
(lp3557
S''
asbasbasbag68
(g84
g70
NtRp3558
(dp3559
g73
(dp3560
sg82
g3494
sg75
(lp3561
g68
(g89
g70
NtRp3562
(dp3563
g73
(dp3564
g93
g94
ssg82
g3558
sg75
(lp3565
g368
asbag68
(g89
g70
NtRp3566
(dp3567
g73
(dp3568
g100
g101
ssg82
g3558
sg75
(lp3569
S':'
asbag68
(g89
g70
NtRp3570
(dp3571
g73
(dp3572
sg82
g3558
sg75
(lp3573
g68
(g69
g70
NtRp3574
(dp3575
g73
(dp3576
g81
I3
ssg82
g3570
sg75
(lp3577
S''
asbasbasbag68
(g84
g70
NtRp3578
(dp3579
g73
(dp3580
sg82
g3494
sg75
(lp3581
g68
(g89
g70
NtRp3582
(dp3583
g73
(dp3584
g93
g94
ssg82
g3578
sg75
(lp3585
g389
asbag68
(g89
g70
NtRp3586
(dp3587
g73
(dp3588
g100
g101
ssg82
g3578
sg75
(lp3589
S':'
asbag68
(g89
g70
NtRp3590
(dp3591
g73
(dp3592
sg82
g3578
sg75
(lp3593
g68
(g69
g70
NtRp3594
(dp3595
g73
(dp3596
g81
I3
ssg82
g3590
sg75
(lp3597
S''
asbasbasbag68
(g84
g70
NtRp3598
(dp3599
g73
(dp3600
sg82
g3494
sg75
(lp3601
g68
(g89
g70
NtRp3602
(dp3603
g73
(dp3604
g93
g94
ssg82
g3598
sg75
(lp3605
g410
asbag68
(g89
g70
NtRp3606
(dp3607
g73
(dp3608
g100
g101
ssg82
g3598
sg75
(lp3609
S':'
asbag68
(g89
g70
NtRp3610
(dp3611
g73
(dp3612
sg82
g3598
sg75
(lp3613
g68
(g69
g70
NtRp3614
(dp3615
g73
(dp3616
g81
I3
ssg82
g3610
sg75
(lp3617
S'/'
asbasbasbag68
(g84
g70
NtRp3618
(dp3619
g73
(dp3620
sg82
g3494
sg75
(lp3621
g68
(g89
g70
NtRp3622
(dp3623
g73
(dp3624
g93
g94
ssg82
g3618
sg75
(lp3625
g431
asbag68
(g89
g70
NtRp3626
(dp3627
g73
(dp3628
g100
g101
ssg82
g3618
sg75
(lp3629
S':'
asbag68
(g89
g70
NtRp3630
(dp3631
g73
(dp3632
sg82
g3618
sg75
(lp3633
g68
(g69
g70
NtRp3634
(dp3635
g73
(dp3636
g81
I3
ssg82
g3630
sg75
(lp3637
S''
asbasbasbag68
(g84
g70
NtRp3638
(dp3639
g73
(dp3640
sg82
g3494
sg75
(lp3641
g68
(g89
g70
NtRp3642
(dp3643
g73
(dp3644
g93
g94
ssg82
g3638
sg75
(lp3645
g452
asbag68
(g89
g70
NtRp3646
(dp3647
g73
(dp3648
g100
g101
ssg82
g3638
sg75
(lp3649
S':'
asbag68
(g89
g70
NtRp3650
(dp3651
g73
(dp3652
sg82
g3638
sg75
(lp3653
g68
(g69
g70
NtRp3654
(dp3655
g73
(dp3656
g81
I3
ssg82
g3650
sg75
(lp3657
S''
asbasbasbasbasbasbasbasbasbasbasbag68
(g84
g70
NtRp3658
(dp3659
g73
(dp3660
sg82
g3424
sg75
(lp3661
g68
(g89
g70
NtRp3662
(dp3663
g73
(dp3664
g93
g94
ssg82
g3658
sg75
(lp3665
S'delimiters'
p3666
asbag68
(g89
g70
NtRp3667
(dp3668
g73
(dp3669
g100
g101
ssg82
g3658
sg75
(lp3670
S':'
asbag68
(g89
g70
NtRp3671
(dp3672
g73
(dp3673
sg82
g3658
sg75
(lp3674
g68
(g69
g70
NtRp3675
(dp3676
g73
(dp3677
g81
I5
ssg82
g3671
sg75
(lp3678
g68
(g77
g70
NtRp3679
(dp3680
g73
(dp3681
g81
I4
ssg82
Nsg75
(lp3682
g68
(g84
g70
NtRp3683
(dp3684
g73
(dp3685
sg82
g3679
sg75
(lp3686
g68
(g89
g70
NtRp3687
(dp3688
g73
(dp3689
sg82
g3683
sg75
(lp3690
g68
(g69
g70
NtRp3691
(dp3692
g73
(dp3693
g81
I4
ssg82
g3687
sg75
(lp3694
S'{{'
p3695
asbasbasbag68
(g84
g70
NtRp3696
(dp3697
g73
(dp3698
sg82
g3679
sg75
(lp3699
g68
(g89
g70
NtRp3700
(dp3701
g73
(dp3702
sg82
g3696
sg75
(lp3703
g68
(g69
g70
NtRp3704
(dp3705
g73
(dp3706
g81
I4
ssg82
g3700
sg75
(lp3707
S'}}'
p3708
asbasbasbasbasbasbasbag68
(g84
g70
NtRp3709
(dp3710
g73
(dp3711
sg82
g3424
sg75
(lp3712
g68
(g89
g70
NtRp3713
(dp3714
g73
(dp3715
g93
g94
ssg82
g3709
sg75
(lp3716
S'files'
p3717
asbag68
(g89
g70
NtRp3718
(dp3719
g73
(dp3720
g100
g101
ssg82
g3709
sg75
(lp3721
S':'
asbag68
(g89
g70
NtRp3722
(dp3723
g73
(dp3724
sg82
g3709
sg75
(lp3725
g68
(g69
g70
NtRp3726
(dp3727
g73
(dp3728
g81
I5
ssg82
g3722
sg75
(lp3729
g68
(g77
g70
NtRp3730
(dp3731
g73
(dp3732
g81
I4
ssg82
Nsg75
(lp3733
sbasbasbasbag68
(g84
g70
NtRp3734
(dp3735
g73
(dp3736
sg82
g3424
sg75
(lp3737
g68
(g89
g70
NtRp3738
(dp3739
g73
(dp3740
g93
g94
ssg82
g3734
sg75
(lp3741
S'flash'
p3742
asbag68
(g89
g70
NtRp3743
(dp3744
g73
(dp3745
g100
g101
ssg82
g3734
sg75
(lp3746
S':'
asbag68
(g89
g70
NtRp3747
(dp3748
g73
(dp3749
sg82
g3734
sg75
(lp3750
g68
(g69
g70
NtRp3751
(dp3752
g73
(dp3753
g81
I5
ssg82
g3747
sg75
(lp3754
S''
asbasbasbag68
(g84
g70
NtRp3755
(dp3756
g73
(dp3757
sg82
g3424
sg75
(lp3758
g68
(g89
g70
NtRp3759
(dp3760
g73
(dp3761
g93
g94
ssg82
g3755
sg75
(lp3762
S'generic_patterns'
p3763
asbag68
(g89
g70
NtRp3764
(dp3765
g73
(dp3766
g100
g101
ssg82
g3755
sg75
(lp3767
S':'
asbag68
(g89
g70
NtRp3768
(dp3769
g73
(dp3770
sg82
g3755
sg75
(lp3771
g68
(g69
g70
NtRp3772
(dp3773
g73
(dp3774
g81
I5
ssg82
g3768
sg75
(lp3775
g68
(g77
g70
NtRp3776
(dp3777
g73
(dp3778
g81
I4
ssg82
Nsg75
(lp3779
g68
(g84
g70
NtRp3780
(dp3781
g73
(dp3782
sg82
g3776
sg75
(lp3783
g68
(g89
g70
NtRp3784
(dp3785
g73
(dp3786
sg82
g3780
sg75
(lp3787
g68
(g69
g70
NtRp3788
(dp3789
g73
(dp3790
g81
I4
ssg82
g3784
sg75
(lp3791
S'*'
asbasbasbasbasbasbasbag68
(g84
g70
NtRp3792
(dp3793
g73
(dp3794
sg82
g3424
sg75
(lp3795
g68
(g89
g70
NtRp3796
(dp3797
g73
(dp3798
g93
g94
ssg82
g3792
sg75
(lp3799
S'getStarted'
p3800
asbag68
(g89
g70
NtRp3801
(dp3802
g73
(dp3803
g100
g101
ssg82
g3792
sg75
(lp3804
S':'
asbag68
(g89
g70
NtRp3805
(dp3806
g73
(dp3807
sg82
g3792
sg75
(lp3808
g68
(g69
g70
NtRp3809
(dp3810
g73
(dp3811
g81
I5
ssg82
g3805
sg75
(lp3812
cgluon.languages
lazyT_unpickle
p3813
(S's\x11\x00\x00\x00Get started today'
tRp3814
asbasbasbag68
(g84
g70
NtRp3815
(dp3816
g73
(dp3817
sg82
g3424
sg75
(lp3818
g68
(g89
g70
NtRp3819
(dp3820
g73
(dp3821
g93
g94
ssg82
g3815
sg75
(lp3822
S'google_analytics_id'
p3823
asbag68
(g89
g70
NtRp3824
(dp3825
g73
(dp3826
g100
g101
ssg82
g3815
sg75
(lp3827
S':'
asbag68
(g89
g70
NtRp3828
(dp3829
g73
(dp3830
sg82
g3815
sg75
(lp3831
g68
(g69
g70
NtRp3832
(dp3833
g73
(dp3834
g81
I5
ssg82
g3828
sg75
(lp3835
S'None'
p3836
asbasbasbag68
(g84
g70
NtRp3837
(dp3838
g73
(dp3839
sg82
g3424
sg75
(lp3840
g68
(g89
g70
NtRp3841
(dp3842
g73
(dp3843
g93
g94
ssg82
g3837
sg75
(lp3844
S'headers'
p3845
asbag68
(g89
g70
NtRp3846
(dp3847
g73
(dp3848
g100
g101
ssg82
g3837
sg75
(lp3849
S':'
asbag68
(g89
g70
NtRp3850
(dp3851
g73
(dp3852
sg82
g3837
sg75
(lp3853
g68
(g69
g70
NtRp3854
(dp3855
g73
(dp3856
g81
I5
ssg82
g3850
sg75
(lp3857
g68
(g77
g70
NtRp3858
(dp3859
g73
(dp3860
g81
I4
ssg82
Nsg75
(lp3861
g68
(g84
g70
NtRp3862
(dp3863
g73
(dp3864
sg82
g3858
sg75
(lp3865
g68
(g89
g70
NtRp3866
(dp3867
g73
(dp3868
g93
g94
ssg82
g3862
sg75
(lp3869
S'X-Powered-By'
p3870
asbag68
(g89
g70
NtRp3871
(dp3872
g73
(dp3873
g100
g101
ssg82
g3862
sg75
(lp3874
S':'
asbag68
(g89
g70
NtRp3875
(dp3876
g73
(dp3877
sg82
g3862
sg75
(lp3878
g68
(g69
g70
NtRp3879
(dp3880
g73
(dp3881
g81
I4
ssg82
g3875
sg75
(lp3882
S'web2py'
p3883
asbasbasbasbasbasbasbag68
(g84
g70
NtRp3884
(dp3885
g73
(dp3886
sg82
g3424
sg75
(lp3887
g68
(g89
g70
NtRp3888
(dp3889
g73
(dp3890
g93
g94
ssg82
g3884
sg75
(lp3891
S'logo'
p3892
asbag68
(g89
g70
NtRp3893
(dp3894
g73
(dp3895
g100
g101
ssg82
g3884
sg75
(lp3896
S':'
asbag68
(g89
g70
NtRp3897
(dp3898
g73
(dp3899
sg82
g3884
sg75
(lp3900
g68
(g69
g70
NtRp3901
(dp3902
g73
(dp3903
g81
I5
ssg82
g3897
sg75
(lp3904
g68
(cgluon.html
A
p3905
g70
NtRp3906
(dp3907
g73
(dp3908
S'_class'
p3909
S'brand'
p3910
sS'_href'
p3911
S'http://codeagranel.github.com/'
p3912
ssg82
Nsg75
(lp3913
g68
(cgluon.html
B
p3914
g70
NtRp3915
(dp3916
g73
(dp3917
sg82
g3906
sg75
(lp3918
S'Code'
p3919
ag68
(cgluon.html
SPAN
p3920
g70
NtRp3921
(dp3922
g73
(dp3923
sg82
g3915
sg75
(lp3924
S'-A-'
p3925
asbaS'Granel'
p3926
asbacgluon.html
XML_unpickle
p3927
(S's\r\x00\x00\x00&trade;&nbsp;'
tRp3928
asbasbasbasbag68
(g84
g70
NtRp3929
(dp3930
g73
(dp3931
sg82
g3424
sg75
(lp3932
g68
(g89
g70
NtRp3933
(dp3934
g73
(dp3935
g93
g94
ssg82
g3929
sg75
(lp3936
S'menu'
p3937
asbag68
(g89
g70
NtRp3938
(dp3939
g73
(dp3940
g100
g101
ssg82
g3929
sg75
(lp3941
S':'
asbag68
(g89
g70
NtRp3942
(dp3943
g73
(dp3944
sg82
g3929
sg75
(lp3945
g68
(g69
g70
NtRp3946
(dp3947
g73
(dp3948
g81
I5
ssg82
g3942
sg75
(lp3949
g68
(g77
g70
NtRp3950
(dp3951
g73
(dp3952
g81
I4
ssg82
Nsg75
(lp3953
g68
(g84
g70
NtRp3954
(dp3955
g73
(dp3956
sg82
g3950
sg75
(lp3957
g68
(g89
g70
NtRp3958
(dp3959
g73
(dp3960
sg82
g3954
sg75
(lp3961
g68
(g69
g70
NtRp3962
(dp3963
g73
(dp3964
g81
I4
ssg82
g3958
sg75
(lp3965
g68
(g77
g70
NtRp3966
(dp3967
g73
(dp3968
g81
I3
ssg82
Nsg75
(lp3969
g68
(g84
g70
NtRp3970
(dp3971
g73
(dp3972
sg82
g3966
sg75
(lp3973
g68
(g89
g70
NtRp3974
(dp3975
g73
(dp3976
sg82
g3970
sg75
(lp3977
g68
(g69
g70
NtRp3978
(dp3979
g73
(dp3980
g81
I3
ssg82
g3974
sg75
(lp3981
g3813
(S's\x04\x00\x00\x00Home'
tRp3982
asbasbasbag68
(g84
g70
NtRp3983
(dp3984
g73
(dp3985
sg82
g3966
sg75
(lp3986
g68
(g89
g70
NtRp3987
(dp3988
g73
(dp3989
sg82
g3983
sg75
(lp3990
g68
(g69
g70
NtRp3991
(dp3992
g73
(dp3993
g81
I3
ssg82
g3987
sg75
(lp3994
g111
asbasbasbag68
(g84
g70
NtRp3995
(dp3996
g73
(dp3997
sg82
g3966
sg75
(lp3998
g68
(g89
g70
NtRp3999
(dp4000
g73
(dp4001
sg82
g3995
sg75
(lp4002
g68
(g69
g70
NtRp4003
(dp4004
g73
(dp4005
g81
I3
ssg82
g3999
sg75
(lp4006
S'/PFM_Web/default/index'
p4007
asbasbasbag68
(g84
g70
NtRp4008
(dp4009
g73
(dp4010
sg82
g3966
sg75
(lp4011
g68
(g89
g70
NtRp4012
(dp4013
g73
(dp4014
sg82
g4008
sg75
(lp4015
g68
(g69
g70
NtRp4016
(dp4017
g73
(dp4018
g81
I3
ssg82
g4012
sg75
(lp4019
g68
(g77
g70
NtRp4020
(dp4021
g73
(dp4022
g81
I2
ssg82
Nsg75
(lp4023
sbasbasbasbasbasbasbasbag68
(g84
g70
NtRp4024
(dp4025
g73
(dp4026
sg82
g3950
sg75
(lp4027
g68
(g89
g70
NtRp4028
(dp4029
g73
(dp4030
sg82
g4024
sg75
(lp4031
g68
(g69
g70
NtRp4032
(dp4033
g73
(dp4034
g81
I4
ssg82
g4028
sg75
(lp4035
g68
(g77
g70
NtRp4036
(dp4037
g73
(dp4038
g81
I3
ssg82
Nsg75
(lp4039
g68
(g84
g70
NtRp4040
(dp4041
g73
(dp4042
sg82
g4036
sg75
(lp4043
g68
(g89
g70
NtRp4044
(dp4045
g73
(dp4046
sg82
g4040
sg75
(lp4047
g68
(g69
g70
NtRp4048
(dp4049
g73
(dp4050
g81
I3
ssg82
g4044
sg75
(lp4051
g3813
(S's\x08\x00\x00\x00Expenses'
tRp4052
asbasbasbag68
(g84
g70
NtRp4053
(dp4054
g73
(dp4055
sg82
g4036
sg75
(lp4056
g68
(g89
g70
NtRp4057
(dp4058
g73
(dp4059
sg82
g4053
sg75
(lp4060
g68
(g69
g70
NtRp4061
(dp4062
g73
(dp4063
g81
I3
ssg82
g4057
sg75
(lp4064
g111
asbasbasbag68
(g84
g70
NtRp4065
(dp4066
g73
(dp4067
sg82
g4036
sg75
(lp4068
g68
(g89
g70
NtRp4069
(dp4070
g73
(dp4071
sg82
g4065
sg75
(lp4072
g68
(g69
g70
NtRp4073
(dp4074
g73
(dp4075
g81
I3
ssg82
g4069
sg75
(lp4076
S'/PFM_Web/expenses/index'
p4077
asbasbasbag68
(g84
g70
NtRp4078
(dp4079
g73
(dp4080
sg82
g4036
sg75
(lp4081
g68
(g89
g70
NtRp4082
(dp4083
g73
(dp4084
sg82
g4078
sg75
(lp4085
g68
(g69
g70
NtRp4086
(dp4087
g73
(dp4088
g81
I3
ssg82
g4082
sg75
(lp4089
g68
(g77
g70
NtRp4090
(dp4091
g73
(dp4092
g81
I2
ssg82
Nsg75
(lp4093
sbasbasbasbasbasbasbasbag68
(g84
g70
NtRp4094
(dp4095
g73
(dp4096
sg82
g3950
sg75
(lp4097
g68
(g89
g70
NtRp4098
(dp4099
g73
(dp4100
sg82
g4094
sg75
(lp4101
g68
(g69
g70
NtRp4102
(dp4103
g73
(dp4104
g81
I4
ssg82
g4098
sg75
(lp4105
g68
(g77
g70
NtRp4106
(dp4107
g73
(dp4108
g81
I3
ssg82
Nsg75
(lp4109
g68
(g84
g70
NtRp4110
(dp4111
g73
(dp4112
sg82
g4106
sg75
(lp4113
g68
(g89
g70
NtRp4114
(dp4115
g73
(dp4116
sg82
g4110
sg75
(lp4117
g68
(g69
g70
NtRp4118
(dp4119
g73
(dp4120
g81
I3
ssg82
g4114
sg75
(lp4121
g3813
(S's\n\x00\x00\x00Categories'
tRp4122
asbasbasbag68
(g84
g70
NtRp4123
(dp4124
g73
(dp4125
sg82
g4106
sg75
(lp4126
g68
(g89
g70
NtRp4127
(dp4128
g73
(dp4129
sg82
g4123
sg75
(lp4130
g68
(g69
g70
NtRp4131
(dp4132
g73
(dp4133
g81
I3
ssg82
g4127
sg75
(lp4134
g111
asbasbasbag68
(g84
g70
NtRp4135
(dp4136
g73
(dp4137
sg82
g4106
sg75
(lp4138
g68
(g89
g70
NtRp4139
(dp4140
g73
(dp4141
sg82
g4135
sg75
(lp4142
g68
(g69
g70
NtRp4143
(dp4144
g73
(dp4145
g81
I3
ssg82
g4139
sg75
(lp4146
S'/PFM_Web/categories/index'
p4147
asbasbasbag68
(g84
g70
NtRp4148
(dp4149
g73
(dp4150
sg82
g4106
sg75
(lp4151
g68
(g89
g70
NtRp4152
(dp4153
g73
(dp4154
sg82
g4148
sg75
(lp4155
g68
(g69
g70
NtRp4156
(dp4157
g73
(dp4158
g81
I3
ssg82
g4152
sg75
(lp4159
g68
(g77
g70
NtRp4160
(dp4161
g73
(dp4162
g81
I2
ssg82
Nsg75
(lp4163
sbasbasbasbasbasbasbasbag68
(g84
g70
NtRp4164
(dp4165
g73
(dp4166
sg82
g3950
sg75
(lp4167
g68
(g89
g70
NtRp4168
(dp4169
g73
(dp4170
sg82
g4164
sg75
(lp4171
g68
(g69
g70
NtRp4172
(dp4173
g73
(dp4174
g81
I4
ssg82
g4168
sg75
(lp4175
g68
(g77
g70
NtRp4176
(dp4177
g73
(dp4178
g81
I3
ssg82
Nsg75
(lp4179
g68
(g84
g70
NtRp4180
(dp4181
g73
(dp4182
sg82
g4176
sg75
(lp4183
g68
(g89
g70
NtRp4184
(dp4185
g73
(dp4186
sg82
g4180
sg75
(lp4187
g68
(g69
g70
NtRp4188
(dp4189
g73
(dp4190
g81
I3
ssg82
g4184
sg75
(lp4191
g3813
(S's\x12\x00\x00\x00Methods of payment'
tRp4192
asbasbasbag68
(g84
g70
NtRp4193
(dp4194
g73
(dp4195
sg82
g4176
sg75
(lp4196
g68
(g89
g70
NtRp4197
(dp4198
g73
(dp4199
sg82
g4193
sg75
(lp4200
g68
(g69
g70
NtRp4201
(dp4202
g73
(dp4203
g81
I3
ssg82
g4197
sg75
(lp4204
g111
asbasbasbag68
(g84
g70
NtRp4205
(dp4206
g73
(dp4207
sg82
g4176
sg75
(lp4208
g68
(g89
g70
NtRp4209
(dp4210
g73
(dp4211
sg82
g4205
sg75
(lp4212
g68
(g69
g70
NtRp4213
(dp4214
g73
(dp4215
g81
I3
ssg82
g4209
sg75
(lp4216
S'/PFM_Web/methodsofpayment/index'
p4217
asbasbasbag68
(g84
g70
NtRp4218
(dp4219
g73
(dp4220
sg82
g4176
sg75
(lp4221
g68
(g89
g70
NtRp4222
(dp4223
g73
(dp4224
sg82
g4218
sg75
(lp4225
g68
(g69
g70
NtRp4226
(dp4227
g73
(dp4228
g81
I3
ssg82
g4222
sg75
(lp4229
g68
(g77
g70
NtRp4230
(dp4231
g73
(dp4232
g81
I2
ssg82
Nsg75
(lp4233
sbasbasbasbasbasbasbasbasbasbasbasbag68
(g84
g70
NtRp4234
(dp4235
g73
(dp4236
sg82
g3424
sg75
(lp4237
g68
(g89
g70
NtRp4238
(dp4239
g73
(dp4240
g93
g94
ssg82
g4234
sg75
(lp4241
S'meta'
p4242
asbag68
(g89
g70
NtRp4243
(dp4244
g73
(dp4245
g100
g101
ssg82
g4234
sg75
(lp4246
S':'
asbag68
(g89
g70
NtRp4247
(dp4248
g73
(dp4249
sg82
g4234
sg75
(lp4250
g68
(g69
g70
NtRp4251
(dp4252
g73
(dp4253
g81
I5
ssg82
g4247
sg75
(lp4254
g68
(g77
g70
NtRp4255
(dp4256
g73
(dp4257
g81
I4
ssg82
Nsg75
(lp4258
g68
(g84
g70
NtRp4259
(dp4260
g73
(dp4261
sg82
g4255
sg75
(lp4262
g68
(g89
g70
NtRp4263
(dp4264
g73
(dp4265
g93
g94
ssg82
g4259
sg75
(lp4266
S'author'
p4267
asbag68
(g89
g70
NtRp4268
(dp4269
g73
(dp4270
g100
g101
ssg82
g4259
sg75
(lp4271
S':'
asbag68
(g89
g70
NtRp4272
(dp4273
g73
(dp4274
sg82
g4259
sg75
(lp4275
g68
(g69
g70
NtRp4276
(dp4277
g73
(dp4278
g81
I4
ssg82
g4272
sg75
(lp4279
S'Juliano Souza <juliano.sdsouza@gmail.com>'
p4280
asbasbasbag68
(g84
g70
NtRp4281
(dp4282
g73
(dp4283
sg82
g4255
sg75
(lp4284
g68
(g89
g70
NtRp4285
(dp4286
g73
(dp4287
g93
g94
ssg82
g4281
sg75
(lp4288
S'description'
p4289
asbag68
(g89
g70
NtRp4290
(dp4291
g73
(dp4292
g100
g101
ssg82
g4281
sg75
(lp4293
S':'
asbag68
(g89
g70
NtRp4294
(dp4295
g73
(dp4296
sg82
g4281
sg75
(lp4297
g68
(g69
g70
NtRp4298
(dp4299
g73
(dp4300
g81
I4
ssg82
g4294
sg75
(lp4301
S'Your finances in a simpler way'
p4302
asbasbasbag68
(g84
g70
NtRp4303
(dp4304
g73
(dp4305
sg82
g4255
sg75
(lp4306
g68
(g89
g70
NtRp4307
(dp4308
g73
(dp4309
g93
g94
ssg82
g4303
sg75
(lp4310
S'generator'
p4311
asbag68
(g89
g70
NtRp4312
(dp4313
g73
(dp4314
g100
g101
ssg82
g4303
sg75
(lp4315
S':'
asbag68
(g89
g70
NtRp4316
(dp4317
g73
(dp4318
sg82
g4303
sg75
(lp4319
g68
(g69
g70
NtRp4320
(dp4321
g73
(dp4322
g81
I4
ssg82
g4316
sg75
(lp4323
S'Web2py Web Framework'
p4324
asbasbasbag68
(g84
g70
NtRp4325
(dp4326
g73
(dp4327
sg82
g4255
sg75
(lp4328
g68
(g89
g70
NtRp4329
(dp4330
g73
(dp4331
g93
g94
ssg82
g4325
sg75
(lp4332
S'keywords'
p4333
asbag68
(g89
g70
NtRp4334
(dp4335
g73
(dp4336
g100
g101
ssg82
g4325
sg75
(lp4337
S':'
asbag68
(g89
g70
NtRp4338
(dp4339
g73
(dp4340
sg82
g4325
sg75
(lp4341
g68
(g69
g70
NtRp4342
(dp4343
g73
(dp4344
g81
I4
ssg82
g4338
sg75
(lp4345
S'finances, management, personal, app, application'
p4346
asbasbasbasbasbasbasbag68
(g84
g70
NtRp4347
(dp4348
g73
(dp4349
sg82
g3424
sg75
(lp4350
g68
(g89
g70
NtRp4351
(dp4352
g73
(dp4353
g93
g94
ssg82
g4347
sg75
(lp4354
S'models_to_run'
p4355
asbag68
(g89
g70
NtRp4356
(dp4357
g73
(dp4358
g100
g101
ssg82
g4347
sg75
(lp4359
S':'
asbag68
(g89
g70
NtRp4360
(dp4361
g73
(dp4362
sg82
g4347
sg75
(lp4363
g68
(g69
g70
NtRp4364
(dp4365
g73
(dp4366
g81
I5
ssg82
g4360
sg75
(lp4367
g68
(g77
g70
NtRp4368
(dp4369
g73
(dp4370
g81
I4
ssg82
Nsg75
(lp4371
g68
(g84
g70
NtRp4372
(dp4373
g73
(dp4374
sg82
g4368
sg75
(lp4375
g68
(g89
g70
NtRp4376
(dp4377
g73
(dp4378
sg82
g4372
sg75
(lp4379
g68
(g69
g70
NtRp4380
(dp4381
g73
(dp4382
g81
I4
ssg82
g4376
sg75
(lp4383
S'^\\w+\\.py$'
p4384
asbasbasbag68
(g84
g70
NtRp4385
(dp4386
g73
(dp4387
sg82
g4368
sg75
(lp4388
g68
(g89
g70
NtRp4389
(dp4390
g73
(dp4391
sg82
g4385
sg75
(lp4392
g68
(g69
g70
NtRp4393
(dp4394
g73
(dp4395
g81
I4
ssg82
g4389
sg75
(lp4396
S'^methodsofpayment/\\w+\\.py$'
p4397
asbasbasbag68
(g84
g70
NtRp4398
(dp4399
g73
(dp4400
sg82
g4368
sg75
(lp4401
g68
(g89
g70
NtRp4402
(dp4403
g73
(dp4404
sg82
g4398
sg75
(lp4405
g68
(g69
g70
NtRp4406
(dp4407
g73
(dp4408
g81
I4
ssg82
g4402
sg75
(lp4409
S'^methodsofpayment/index/\\w+\\.py$'
p4410
asbasbasbasbasbasbasbag68
(g84
g70
NtRp4411
(dp4412
g73
(dp4413
sg82
g3424
sg75
(lp4414
g68
(g89
g70
NtRp4415
(dp4416
g73
(dp4417
g93
g94
ssg82
g4411
sg75
(lp4418
S'postprocessing'
p4419
asbag68
(g89
g70
NtRp4420
(dp4421
g73
(dp4422
g100
g101
ssg82
g4411
sg75
(lp4423
S':'
asbag68
(g89
g70
NtRp4424
(dp4425
g73
(dp4426
sg82
g4411
sg75
(lp4427
g68
(g69
g70
NtRp4428
(dp4429
g73
(dp4430
g81
I5
ssg82
g4424
sg75
(lp4431
g68
(g77
g70
NtRp4432
(dp4433
g73
(dp4434
g81
I4
ssg82
Nsg75
(lp4435
sbasbasbasbag68
(g84
g70
NtRp4436
(dp4437
g73
(dp4438
sg82
g3424
sg75
(lp4439
g68
(g89
g70
NtRp4440
(dp4441
g73
(dp4442
g93
g94
ssg82
g4436
sg75
(lp4443
S'session_cookie_expires'
p4444
asbag68
(g89
g70
NtRp4445
(dp4446
g73
(dp4447
g100
g101
ssg82
g4436
sg75
(lp4448
S':'
asbag68
(g89
g70
NtRp4449
(dp4450
g73
(dp4451
sg82
g4436
sg75
(lp4452
g68
(g69
g70
NtRp4453
(dp4454
g73
(dp4455
g81
I5
ssg82
g4449
sg75
(lp4456
S'None'
p4457
asbasbasbag68
(g84
g70
NtRp4458
(dp4459
g73
(dp4460
sg82
g3424
sg75
(lp4461
g68
(g89
g70
NtRp4462
(dp4463
g73
(dp4464
g93
g94
ssg82
g4458
sg75
(lp4465
S'session_data_name'
p4466
asbag68
(g89
g70
NtRp4467
(dp4468
g73
(dp4469
g100
g101
ssg82
g4458
sg75
(lp4470
S':'
asbag68
(g89
g70
NtRp4471
(dp4472
g73
(dp4473
sg82
g4458
sg75
(lp4474
g68
(g69
g70
NtRp4475
(dp4476
g73
(dp4477
g81
I5
ssg82
g4471
sg75
(lp4478
S'session_data_pfm_web'
p4479
asbasbasbag68
(g84
g70
NtRp4480
(dp4481
g73
(dp4482
sg82
g3424
sg75
(lp4483
g68
(g89
g70
NtRp4484
(dp4485
g73
(dp4486
g93
g94
ssg82
g4480
sg75
(lp4487
S'session_file'
p4488
asbag68
(g89
g70
NtRp4489
(dp4490
g73
(dp4491
g100
g101
ssg82
g4480
sg75
(lp4492
S':'
asbag68
(g89
g70
NtRp4493
(dp4494
g73
(dp4495
sg82
g4480
sg75
(lp4496
g68
(g69
g70
NtRp4497
(dp4498
g73
(dp4499
g81
I5
ssg82
g4493
sg75
(lp4500
S"<open file 'C:\\Users\\Juliano\\Documents\\Visual Studio 2012\\Projects\\PFM-Web\\applications\\PFM_Web\\sessions\\127.0.0.1-20f97d82-38f3-49d5-8814-e32bae7aa042', mode 'rb+' at 0x0000000004C13930>"
p4501
asbasbasbag68
(g84
g70
NtRp4502
(dp4503
g73
(dp4504
sg82
g3424
sg75
(lp4505
g68
(g89
g70
NtRp4506
(dp4507
g73
(dp4508
g93
g94
ssg82
g4502
sg75
(lp4509
S'session_filename'
p4510
asbag68
(g89
g70
NtRp4511
(dp4512
g73
(dp4513
g100
g101
ssg82
g4502
sg75
(lp4514
S':'
asbag68
(g89
g70
NtRp4515
(dp4516
g73
(dp4517
sg82
g4502
sg75
(lp4518
g68
(g69
g70
NtRp4519
(dp4520
g73
(dp4521
g81
I5
ssg82
g4515
sg75
(lp4522
S'C:\\Users\\Juliano\\Documents\\Visual Studio 2012\\Projects\\PFM-Web\\applications\\PFM_Web\\sessions\\127.0.0.1-20f97d82-38f3-49d5-8814-e32bae7aa042'
p4523
asbasbasbag68
(g84
g70
NtRp4524
(dp4525
g73
(dp4526
sg82
g3424
sg75
(lp4527
g68
(g89
g70
NtRp4528
(dp4529
g73
(dp4530
g93
g94
ssg82
g4524
sg75
(lp4531
S'session_id'
p4532
asbag68
(g89
g70
NtRp4533
(dp4534
g73
(dp4535
g100
g101
ssg82
g4524
sg75
(lp4536
S':'
asbag68
(g89
g70
NtRp4537
(dp4538
g73
(dp4539
sg82
g4524
sg75
(lp4540
g68
(g69
g70
NtRp4541
(dp4542
g73
(dp4543
g81
I5
ssg82
g4537
sg75
(lp4544
g292
asbasbasbag68
(g84
g70
NtRp4545
(dp4546
g73
(dp4547
sg82
g3424
sg75
(lp4548
g68
(g89
g70
NtRp4549
(dp4550
g73
(dp4551
g93
g94
ssg82
g4545
sg75
(lp4552
S'session_id_name'
p4553
asbag68
(g89
g70
NtRp4554
(dp4555
g73
(dp4556
g100
g101
ssg82
g4545
sg75
(lp4557
S':'
asbag68
(g89
g70
NtRp4558
(dp4559
g73
(dp4560
sg82
g4545
sg75
(lp4561
g68
(g69
g70
NtRp4562
(dp4563
g73
(dp4564
g81
I5
ssg82
g4558
sg75
(lp4565
g3481
asbasbasbag68
(g84
g70
NtRp4566
(dp4567
g73
(dp4568
sg82
g3424
sg75
(lp4569
g68
(g89
g70
NtRp4570
(dp4571
g73
(dp4572
g93
g94
ssg82
g4566
sg75
(lp4573
S'session_locked'
p4574
asbag68
(g89
g70
NtRp4575
(dp4576
g73
(dp4577
g100
g101
ssg82
g4566
sg75
(lp4578
S':'
asbag68
(g89
g70
NtRp4579
(dp4580
g73
(dp4581
sg82
g4566
sg75
(lp4582
g68
(g69
g70
NtRp4583
(dp4584
g73
(dp4585
g81
I5
ssg82
g4579
sg75
(lp4586
g1490
asbasbasbag68
(g84
g70
NtRp4587
(dp4588
g73
(dp4589
sg82
g3424
sg75
(lp4590
g68
(g89
g70
NtRp4591
(dp4592
g73
(dp4593
g93
g94
ssg82
g4587
sg75
(lp4594
S'session_new'
p4595
asbag68
(g89
g70
NtRp4596
(dp4597
g73
(dp4598
g100
g101
ssg82
g4587
sg75
(lp4599
S':'
asbag68
(g89
g70
NtRp4600
(dp4601
g73
(dp4602
sg82
g4587
sg75
(lp4603
g68
(g69
g70
NtRp4604
(dp4605
g73
(dp4606
g81
I5
ssg82
g4600
sg75
(lp4607
g111
asbasbasbag68
(g84
g70
NtRp4608
(dp4609
g73
(dp4610
sg82
g3424
sg75
(lp4611
g68
(g89
g70
NtRp4612
(dp4613
g73
(dp4614
g93
g94
ssg82
g4608
sg75
(lp4615
S'session_storage_type'
p4616
asbag68
(g89
g70
NtRp4617
(dp4618
g73
(dp4619
g100
g101
ssg82
g4608
sg75
(lp4620
S':'
asbag68
(g89
g70
NtRp4621
(dp4622
g73
(dp4623
sg82
g4608
sg75
(lp4624
g68
(g69
g70
NtRp4625
(dp4626
g73
(dp4627
g81
I5
ssg82
g4621
sg75
(lp4628
g2999
asbasbasbag68
(g84
g70
NtRp4629
(dp4630
g73
(dp4631
sg82
g3424
sg75
(lp4632
g68
(g89
g70
NtRp4633
(dp4634
g73
(dp4635
g93
g94
ssg82
g4629
sg75
(lp4636
S'status'
p4637
asbag68
(g89
g70
NtRp4638
(dp4639
g73
(dp4640
g100
g101
ssg82
g4629
sg75
(lp4641
S':'
asbag68
(g89
g70
NtRp4642
(dp4643
g73
(dp4644
sg82
g4629
sg75
(lp4645
g68
(g69
g70
NtRp4646
(dp4647
g73
(dp4648
g81
I5
ssg82
g4642
sg75
(lp4649
S'200'
p4650
asbasbasbag68
(g84
g70
NtRp4651
(dp4652
g73
(dp4653
sg82
g3424
sg75
(lp4654
g68
(g89
g70
NtRp4655
(dp4656
g73
(dp4657
g93
g94
ssg82
g4651
sg75
(lp4658
S'subtitle'
p4659
asbag68
(g89
g70
NtRp4660
(dp4661
g73
(dp4662
g100
g101
ssg82
g4651
sg75
(lp4663
S':'
asbag68
(g89
g70
NtRp4664
(dp4665
g73
(dp4666
sg82
g4651
sg75
(lp4667
g68
(g69
g70
NtRp4668
(dp4669
g73
(dp4670
g81
I5
ssg82
g4664
sg75
(lp4671
g3813
(S's\x1e\x00\x00\x00Your finances in a simpler way'
tRp4672
asbasbasbag68
(g84
g70
NtRp4673
(dp4674
g73
(dp4675
sg82
g3424
sg75
(lp4676
g68
(g89
g70
NtRp4677
(dp4678
g73
(dp4679
g93
g94
ssg82
g4673
sg75
(lp4680
S'title'
p4681
asbag68
(g89
g70
NtRp4682
(dp4683
g73
(dp4684
g100
g101
ssg82
g4673
sg75
(lp4685
S':'
asbag68
(g89
g70
NtRp4686
(dp4687
g73
(dp4688
sg82
g4673
sg75
(lp4689
g68
(g69
g70
NtRp4690
(dp4691
g73
(dp4692
g81
I5
ssg82
g4686
sg75
(lp4693
S'Personal Finances Manager'
p4694
asbasbasbag68
(g84
g70
NtRp4695
(dp4696
g73
(dp4697
sg82
g3424
sg75
(lp4698
g68
(g89
g70
NtRp4699
(dp4700
g73
(dp4701
g93
g94
ssg82
g4695
sg75
(lp4702
S'view'
p4703
asbag68
(g89
g70
NtRp4704
(dp4705
g73
(dp4706
g100
g101
ssg82
g4695
sg75
(lp4707
S':'
asbag68
(g89
g70
NtRp4708
(dp4709
g73
(dp4710
sg82
g4695
sg75
(lp4711
g68
(g69
g70
NtRp4712
(dp4713
g73
(dp4714
g81
I5
ssg82
g4708
sg75
(lp4715
S'methodsofpayment/index.html'
p4716
asbasbasbasbasbsS'locals'
p4717
(dp4718
g4
S"r'C:\\Users\\Juliano\\Documents\\Visual Studio 2012\\Pr...lications\\PFM_Web\\controllers/methodsofpayment.py'"
p4719
sg6
S"'# -*- coding: utf-8 -*-\\n\\n@auth.requires_login()\\n...=crud())\\n\\nresponse._vars=response._caller(index)\\n'"
p4720
sssS'traceback'
p4721
S'Traceback (most recent call last):\n  File "C:\\Users\\Juliano\\Documents\\Visual Studio 2012\\Projects\\PFM-Web\\gluon\\restricted.py", line 211, in restricted\n    ccode = compile2(code, layer)\n  File "C:\\Users\\Juliano\\Documents\\Visual Studio 2012\\Projects\\PFM-Web\\gluon\\restricted.py", line 194, in compile2\n    return compile(code.rstrip().replace(\'\\r\\n\', \'\\n\') + \'\\n\', layer, \'exec\')\n  File "C:\\Users\\Juliano\\Documents\\Visual Studio 2012\\Projects\\PFM-Web\\applications\\PFM_Web\\controllers/methodsofpayment.py", line 5\n    grid = SQLFORM.grid(db()select(db.methodOfPayment.user_id == auth.user_id))\n                                 ^\nSyntaxError: invalid syntax\n'
p4722
s.