(dp1
S'output'
p2
S"<type 'exceptions.AttributeError'> 'DAL' object has no attribute 'person'"
p3
sS'layer'
p4
S'C:\\Users\\Juliano\\Documents\\Visual Studio 2012\\Projects\\PFM-Web\\applications\\PFM_Web\\controllers/expenses.py'
p5
sS'code'
p6
S'# -*- coding: utf-8 -*-\n\ndef index():\n    return dict(message=T(\'Hello World\'))\n\ndef addnew():\n    form = SQLFORM(db.person)\n    if form.process().accepted:\n        response.flash = \'Item added\'\n    elif form.errors:\n        response.flash = \'Errors detected\'\n    else:\n        response.flash = \'Please fill out the form\'\n    return dict(form=form)\n\ndef user():\n    """\n    exposes:\n    http://..../[app]/default/user/login\n    http://..../[app]/default/user/logout\n    http://..../[app]/default/user/register\n    http://..../[app]/default/user/profile\n    http://..../[app]/default/user/retrieve_password\n    http://..../[app]/default/user/change_password\n    use @auth.requires_login()\n        @auth.requires_membership(\'group name\')\n        @auth.requires_permission(\'read\',\'table name\',record_id)\n    to decorate functions that need access control\n    """\n    return dict(form=auth())\n\ndef download():\n    """\n    allows downloading of uploaded files\n    http://..../[app]/default/download/[filename]\n    """\n    return response.download(request, db)\n\ndef call():\n    """\n    exposes services. for example:\n    http://..../[app]/default/call/jsonrpc\n    decorate with @services.jsonrpc the functions to expose\n    supports xml, json, xmlrpc, jsonrpc, amfrpc, rss, csv\n    """\n    return service()\n\n@auth.requires_signature()\ndef data():\n    """\n    http://..../[app]/default/data/tables\n    http://..../[app]/default/data/create/[table]\n    http://..../[app]/default/data/read/[table]/[id]\n    http://..../[app]/default/data/update/[table]/[id]\n    http://..../[app]/default/data/delete/[table]/[id]\n    http://..../[app]/default/data/select/[table]\n    http://..../[app]/default/data/search/[table]\n    but URLs must be signed, i.e. linked with\n      A(\'table\',_href=URL(\'data/tables\',user_signature=True))\n    or with the signed load operator\n      LOAD(\'default\',\'data.load\',args=\'tables\',ajax=True,user_signature=True)\n    """\n    return dict(form=crud())\n\nresponse._vars=response._caller(addnew)\n'
p7
sS'snapshot'
p8
(dp9
S'exception'
p10
(dp11
S'__hash__'
p12
S"<method-wrapper '__hash__' of exceptions.AttributeError object>"
p13
sS'__setattr__'
p14
S"<method-wrapper '__setattr__' of exceptions.AttributeError object>"
p15
sS'__reduce_ex__'
p16
S'<built-in method __reduce_ex__ of exceptions.AttributeError object>'
p17
sS'__getslice__'
p18
S"<method-wrapper '__getslice__' of exceptions.AttributeError object>"
p19
sS'__getitem__'
p20
S"<method-wrapper '__getitem__' of exceptions.AttributeError object>"
p21
sS'__setstate__'
p22
S'<built-in method __setstate__ of exceptions.AttributeError object>'
p23
sS'__reduce__'
p24
S'<built-in method __reduce__ of exceptions.AttributeError object>'
p25
sS'__str__'
p26
S"<method-wrapper '__str__' of exceptions.AttributeError object>"
p27
sS'__format__'
p28
S'<built-in method __format__ of exceptions.AttributeError object>'
p29
sS'__getattribute__'
p30
S"<method-wrapper '__getattribute__' of exceptions.AttributeError object>"
p31
sS'__class__'
p32
S"<type 'exceptions.AttributeError'>"
p33
sS'__unicode__'
p34
S'<built-in method __unicode__ of exceptions.AttributeError object>'
p35
sS'__delattr__'
p36
S"<method-wrapper '__delattr__' of exceptions.AttributeError object>"
p37
sS'__subclasshook__'
p38
S'<built-in method __subclasshook__ of type object>'
p39
sS'__repr__'
p40
S"<method-wrapper '__repr__' of exceptions.AttributeError object>"
p41
sS'__dict__'
p42
S'{}'
p43
sS'args'
p44
S'("\'DAL\' object has no attribute \'person\'",)'
p45
sS'__sizeof__'
p46
S'<built-in method __sizeof__ of exceptions.AttributeError object>'
p47
sS'__doc__'
p48
S"'Attribute not found.'"
p49
sS'__init__'
p50
S"<method-wrapper '__init__' of exceptions.AttributeError object>"
p51
sS'__new__'
p52
S'<built-in method __new__ of type object>'
p53
ssS'evalue'
p54
S"'DAL' object has no attribute 'person'"
p55
sS'request'
p56
ccopy_reg
_reconstructor
p57
(cgluon.html
BEAUTIFY
p58
c__builtin__
object
p59
NtRp60
(dp61
S'attributes'
p62
(dp63
sS'components'
p64
(lp65
g57
(cgluon.html
TABLE
p66
g59
NtRp67
(dp68
g62
(dp69
S'level'
p70
I5
ssS'parent'
p71
Nsg64
(lp72
g57
(cgluon.html
TR
p73
g59
NtRp74
(dp75
g62
(dp76
sg71
g67
sg64
(lp77
g57
(cgluon.html
TD
p78
g59
NtRp79
(dp80
g62
(dp81
S'_style'
p82
S'font-weight:bold;vertical-align:top'
p83
ssg71
g74
sg64
(lp84
S'ajax'
p85
asbag57
(g78
g59
NtRp86
(dp87
g62
(dp88
S'_valign'
p89
S'top'
p90
ssg71
g74
sg64
(lp91
S':'
asbag57
(g78
g59
NtRp92
(dp93
g62
(dp94
sg71
g74
sg64
(lp95
g57
(g58
g59
NtRp96
(dp97
g62
(dp98
g70
I5
ssg71
g92
sg64
(lp99
S'False'
p100
asbasbasbag57
(g73
g59
NtRp101
(dp102
g62
(dp103
sg71
g67
sg64
(lp104
g57
(g78
g59
NtRp105
(dp106
g62
(dp107
g82
g83
ssg71
g101
sg64
(lp108
S'application'
p109
asbag57
(g78
g59
NtRp110
(dp111
g62
(dp112
g89
g90
ssg71
g101
sg64
(lp113
S':'
asbag57
(g78
g59
NtRp114
(dp115
g62
(dp116
sg71
g101
sg64
(lp117
g57
(g58
g59
NtRp118
(dp119
g62
(dp120
g70
I5
ssg71
g114
sg64
(lp121
S'PFM_Web'
p122
asbasbasbag57
(g73
g59
NtRp123
(dp124
g62
(dp125
sg71
g67
sg64
(lp126
g57
(g78
g59
NtRp127
(dp128
g62
(dp129
g82
g83
ssg71
g123
sg64
(lp130
g44
asbag57
(g78
g59
NtRp131
(dp132
g62
(dp133
g89
g90
ssg71
g123
sg64
(lp134
S':'
asbag57
(g78
g59
NtRp135
(dp136
g62
(dp137
sg71
g123
sg64
(lp138
g57
(g58
g59
NtRp139
(dp140
g62
(dp141
g70
I5
ssg71
g135
sg64
(lp142
g57
(g66
g59
NtRp143
(dp144
g62
(dp145
g70
I4
ssg71
Nsg64
(lp146
sbasbasbasbag57
(g73
g59
NtRp147
(dp148
g62
(dp149
sg71
g67
sg64
(lp150
g57
(g78
g59
NtRp151
(dp152
g62
(dp153
g82
g83
ssg71
g147
sg64
(lp154
S'body'
p155
asbag57
(g78
g59
NtRp156
(dp157
g62
(dp158
g89
g90
ssg71
g147
sg64
(lp159
S':'
asbag57
(g78
g59
NtRp160
(dp161
g62
(dp162
sg71
g147
sg64
(lp163
g57
(g58
g59
NtRp164
(dp165
g62
(dp166
g70
I5
ssg71
g160
sg64
(lp167
S'<cStringIO.StringO object at 0x00000000048133E8>'
p168
asbasbasbag57
(g73
g59
NtRp169
(dp170
g62
(dp171
sg71
g67
sg64
(lp172
g57
(g78
g59
NtRp173
(dp174
g62
(dp175
g82
g83
ssg71
g169
sg64
(lp176
S'cid'
p177
asbag57
(g78
g59
NtRp178
(dp179
g62
(dp180
g89
g90
ssg71
g169
sg64
(lp181
S':'
asbag57
(g78
g59
NtRp182
(dp183
g62
(dp184
sg71
g169
sg64
(lp185
g57
(g58
g59
NtRp186
(dp187
g62
(dp188
g70
I5
ssg71
g182
sg64
(lp189
S'None'
p190
asbasbasbag57
(g73
g59
NtRp191
(dp192
g62
(dp193
sg71
g67
sg64
(lp194
g57
(g78
g59
NtRp195
(dp196
g62
(dp197
g82
g83
ssg71
g191
sg64
(lp198
S'client'
p199
asbag57
(g78
g59
NtRp200
(dp201
g62
(dp202
g89
g90
ssg71
g191
sg64
(lp203
S':'
asbag57
(g78
g59
NtRp204
(dp205
g62
(dp206
sg71
g191
sg64
(lp207
g57
(g58
g59
NtRp208
(dp209
g62
(dp210
g70
I5
ssg71
g204
sg64
(lp211
S'127.0.0.1'
p212
asbasbasbag57
(g73
g59
NtRp213
(dp214
g62
(dp215
sg71
g67
sg64
(lp216
g57
(g78
g59
NtRp217
(dp218
g62
(dp219
g82
g83
ssg71
g213
sg64
(lp220
S'controller'
p221
asbag57
(g78
g59
NtRp222
(dp223
g62
(dp224
g89
g90
ssg71
g213
sg64
(lp225
S':'
asbag57
(g78
g59
NtRp226
(dp227
g62
(dp228
sg71
g213
sg64
(lp229
g57
(g58
g59
NtRp230
(dp231
g62
(dp232
g70
I5
ssg71
g226
sg64
(lp233
S'expenses'
p234
asbasbasbag57
(g73
g59
NtRp235
(dp236
g62
(dp237
sg71
g67
sg64
(lp238
g57
(g78
g59
NtRp239
(dp240
g62
(dp241
g82
g83
ssg71
g235
sg64
(lp242
S'cookies'
p243
asbag57
(g78
g59
NtRp244
(dp245
g62
(dp246
g89
g90
ssg71
g235
sg64
(lp247
S':'
asbag57
(g78
g59
NtRp248
(dp249
g62
(dp250
sg71
g235
sg64
(lp251
g57
(g58
g59
NtRp252
(dp253
g62
(dp254
g70
I5
ssg71
g248
sg64
(lp255
g57
(g66
g59
NtRp256
(dp257
g62
(dp258
g70
I4
ssg71
Nsg64
(lp259
g57
(g73
g59
NtRp260
(dp261
g62
(dp262
sg71
g256
sg64
(lp263
g57
(g78
g59
NtRp264
(dp265
g62
(dp266
g82
g83
ssg71
g260
sg64
(lp267
S'session_id_admin'
p268
asbag57
(g78
g59
NtRp269
(dp270
g62
(dp271
g89
g90
ssg71
g260
sg64
(lp272
S':'
asbag57
(g78
g59
NtRp273
(dp274
g62
(dp275
sg71
g260
sg64
(lp276
g57
(g58
g59
NtRp277
(dp278
g62
(dp279
g70
I4
ssg71
g273
sg64
(lp280
S'127.0.0.1-e12d6916-8656-4736-b975-72200c915786'
p281
ag57
(g66
g59
NtRp282
(dp283
g62
(dp284
g70
I3
ssg71
Nsg64
(lp285
g57
(g73
g59
NtRp286
(dp287
g62
(dp288
sg71
g282
sg64
(lp289
g57
(g78
g59
NtRp290
(dp291
g62
(dp292
g82
g83
ssg71
g286
sg64
(lp293
S'comment'
p294
asbag57
(g78
g59
NtRp295
(dp296
g62
(dp297
g89
g90
ssg71
g286
sg64
(lp298
S':'
asbag57
(g78
g59
NtRp299
(dp300
g62
(dp301
sg71
g286
sg64
(lp302
g57
(g58
g59
NtRp303
(dp304
g62
(dp305
g70
I3
ssg71
g299
sg64
(lp306
S''
asbasbasbag57
(g73
g59
NtRp307
(dp308
g62
(dp309
sg71
g282
sg64
(lp310
g57
(g78
g59
NtRp311
(dp312
g62
(dp313
g82
g83
ssg71
g307
sg64
(lp314
S'domain'
p315
asbag57
(g78
g59
NtRp316
(dp317
g62
(dp318
g89
g90
ssg71
g307
sg64
(lp319
S':'
asbag57
(g78
g59
NtRp320
(dp321
g62
(dp322
sg71
g307
sg64
(lp323
g57
(g58
g59
NtRp324
(dp325
g62
(dp326
g70
I3
ssg71
g320
sg64
(lp327
S''
asbasbasbag57
(g73
g59
NtRp328
(dp329
g62
(dp330
sg71
g282
sg64
(lp331
g57
(g78
g59
NtRp332
(dp333
g62
(dp334
g82
g83
ssg71
g328
sg64
(lp335
S'expires'
p336
asbag57
(g78
g59
NtRp337
(dp338
g62
(dp339
g89
g90
ssg71
g328
sg64
(lp340
S':'
asbag57
(g78
g59
NtRp341
(dp342
g62
(dp343
sg71
g328
sg64
(lp344
g57
(g58
g59
NtRp345
(dp346
g62
(dp347
g70
I3
ssg71
g341
sg64
(lp348
S''
asbasbasbag57
(g73
g59
NtRp349
(dp350
g62
(dp351
sg71
g282
sg64
(lp352
g57
(g78
g59
NtRp353
(dp354
g62
(dp355
g82
g83
ssg71
g349
sg64
(lp356
S'httponly'
p357
asbag57
(g78
g59
NtRp358
(dp359
g62
(dp360
g89
g90
ssg71
g349
sg64
(lp361
S':'
asbag57
(g78
g59
NtRp362
(dp363
g62
(dp364
sg71
g349
sg64
(lp365
g57
(g58
g59
NtRp366
(dp367
g62
(dp368
g70
I3
ssg71
g362
sg64
(lp369
S''
asbasbasbag57
(g73
g59
NtRp370
(dp371
g62
(dp372
sg71
g282
sg64
(lp373
g57
(g78
g59
NtRp374
(dp375
g62
(dp376
g82
g83
ssg71
g370
sg64
(lp377
S'max-age'
p378
asbag57
(g78
g59
NtRp379
(dp380
g62
(dp381
g89
g90
ssg71
g370
sg64
(lp382
S':'
asbag57
(g78
g59
NtRp383
(dp384
g62
(dp385
sg71
g370
sg64
(lp386
g57
(g58
g59
NtRp387
(dp388
g62
(dp389
g70
I3
ssg71
g383
sg64
(lp390
S''
asbasbasbag57
(g73
g59
NtRp391
(dp392
g62
(dp393
sg71
g282
sg64
(lp394
g57
(g78
g59
NtRp395
(dp396
g62
(dp397
g82
g83
ssg71
g391
sg64
(lp398
S'path'
p399
asbag57
(g78
g59
NtRp400
(dp401
g62
(dp402
g89
g90
ssg71
g391
sg64
(lp403
S':'
asbag57
(g78
g59
NtRp404
(dp405
g62
(dp406
sg71
g391
sg64
(lp407
g57
(g58
g59
NtRp408
(dp409
g62
(dp410
g70
I3
ssg71
g404
sg64
(lp411
S''
asbasbasbag57
(g73
g59
NtRp412
(dp413
g62
(dp414
sg71
g282
sg64
(lp415
g57
(g78
g59
NtRp416
(dp417
g62
(dp418
g82
g83
ssg71
g412
sg64
(lp419
S'secure'
p420
asbag57
(g78
g59
NtRp421
(dp422
g62
(dp423
g89
g90
ssg71
g412
sg64
(lp424
S':'
asbag57
(g78
g59
NtRp425
(dp426
g62
(dp427
sg71
g412
sg64
(lp428
g57
(g58
g59
NtRp429
(dp430
g62
(dp431
g70
I3
ssg71
g425
sg64
(lp432
S''
asbasbasbag57
(g73
g59
NtRp433
(dp434
g62
(dp435
sg71
g282
sg64
(lp436
g57
(g78
g59
NtRp437
(dp438
g62
(dp439
g82
g83
ssg71
g433
sg64
(lp440
S'version'
p441
asbag57
(g78
g59
NtRp442
(dp443
g62
(dp444
g89
g90
ssg71
g433
sg64
(lp445
S':'
asbag57
(g78
g59
NtRp446
(dp447
g62
(dp448
sg71
g433
sg64
(lp449
g57
(g58
g59
NtRp450
(dp451
g62
(dp452
g70
I3
ssg71
g446
sg64
(lp453
S''
asbasbasbasbasbasbasbag57
(g73
g59
NtRp454
(dp455
g62
(dp456
sg71
g256
sg64
(lp457
g57
(g78
g59
NtRp458
(dp459
g62
(dp460
g82
g83
ssg71
g454
sg64
(lp461
S'session_id_pfm_web'
p462
asbag57
(g78
g59
NtRp463
(dp464
g62
(dp465
g89
g90
ssg71
g454
sg64
(lp466
S':'
asbag57
(g78
g59
NtRp467
(dp468
g62
(dp469
sg71
g454
sg64
(lp470
g57
(g58
g59
NtRp471
(dp472
g62
(dp473
g70
I4
ssg71
g467
sg64
(lp474
S'127.0.0.1-140a1922-a5d0-44eb-9a21-a4c388e16f08'
p475
ag57
(g66
g59
NtRp476
(dp477
g62
(dp478
g70
I3
ssg71
Nsg64
(lp479
g57
(g73
g59
NtRp480
(dp481
g62
(dp482
sg71
g476
sg64
(lp483
g57
(g78
g59
NtRp484
(dp485
g62
(dp486
g82
g83
ssg71
g480
sg64
(lp487
g294
asbag57
(g78
g59
NtRp488
(dp489
g62
(dp490
g89
g90
ssg71
g480
sg64
(lp491
S':'
asbag57
(g78
g59
NtRp492
(dp493
g62
(dp494
sg71
g480
sg64
(lp495
g57
(g58
g59
NtRp496
(dp497
g62
(dp498
g70
I3
ssg71
g492
sg64
(lp499
S''
asbasbasbag57
(g73
g59
NtRp500
(dp501
g62
(dp502
sg71
g476
sg64
(lp503
g57
(g78
g59
NtRp504
(dp505
g62
(dp506
g82
g83
ssg71
g500
sg64
(lp507
g315
asbag57
(g78
g59
NtRp508
(dp509
g62
(dp510
g89
g90
ssg71
g500
sg64
(lp511
S':'
asbag57
(g78
g59
NtRp512
(dp513
g62
(dp514
sg71
g500
sg64
(lp515
g57
(g58
g59
NtRp516
(dp517
g62
(dp518
g70
I3
ssg71
g512
sg64
(lp519
S''
asbasbasbag57
(g73
g59
NtRp520
(dp521
g62
(dp522
sg71
g476
sg64
(lp523
g57
(g78
g59
NtRp524
(dp525
g62
(dp526
g82
g83
ssg71
g520
sg64
(lp527
g336
asbag57
(g78
g59
NtRp528
(dp529
g62
(dp530
g89
g90
ssg71
g520
sg64
(lp531
S':'
asbag57
(g78
g59
NtRp532
(dp533
g62
(dp534
sg71
g520
sg64
(lp535
g57
(g58
g59
NtRp536
(dp537
g62
(dp538
g70
I3
ssg71
g532
sg64
(lp539
S''
asbasbasbag57
(g73
g59
NtRp540
(dp541
g62
(dp542
sg71
g476
sg64
(lp543
g57
(g78
g59
NtRp544
(dp545
g62
(dp546
g82
g83
ssg71
g540
sg64
(lp547
g357
asbag57
(g78
g59
NtRp548
(dp549
g62
(dp550
g89
g90
ssg71
g540
sg64
(lp551
S':'
asbag57
(g78
g59
NtRp552
(dp553
g62
(dp554
sg71
g540
sg64
(lp555
g57
(g58
g59
NtRp556
(dp557
g62
(dp558
g70
I3
ssg71
g552
sg64
(lp559
S''
asbasbasbag57
(g73
g59
NtRp560
(dp561
g62
(dp562
sg71
g476
sg64
(lp563
g57
(g78
g59
NtRp564
(dp565
g62
(dp566
g82
g83
ssg71
g560
sg64
(lp567
g378
asbag57
(g78
g59
NtRp568
(dp569
g62
(dp570
g89
g90
ssg71
g560
sg64
(lp571
S':'
asbag57
(g78
g59
NtRp572
(dp573
g62
(dp574
sg71
g560
sg64
(lp575
g57
(g58
g59
NtRp576
(dp577
g62
(dp578
g70
I3
ssg71
g572
sg64
(lp579
S''
asbasbasbag57
(g73
g59
NtRp580
(dp581
g62
(dp582
sg71
g476
sg64
(lp583
g57
(g78
g59
NtRp584
(dp585
g62
(dp586
g82
g83
ssg71
g580
sg64
(lp587
g399
asbag57
(g78
g59
NtRp588
(dp589
g62
(dp590
g89
g90
ssg71
g580
sg64
(lp591
S':'
asbag57
(g78
g59
NtRp592
(dp593
g62
(dp594
sg71
g580
sg64
(lp595
g57
(g58
g59
NtRp596
(dp597
g62
(dp598
g70
I3
ssg71
g592
sg64
(lp599
S''
asbasbasbag57
(g73
g59
NtRp600
(dp601
g62
(dp602
sg71
g476
sg64
(lp603
g57
(g78
g59
NtRp604
(dp605
g62
(dp606
g82
g83
ssg71
g600
sg64
(lp607
g420
asbag57
(g78
g59
NtRp608
(dp609
g62
(dp610
g89
g90
ssg71
g600
sg64
(lp611
S':'
asbag57
(g78
g59
NtRp612
(dp613
g62
(dp614
sg71
g600
sg64
(lp615
g57
(g58
g59
NtRp616
(dp617
g62
(dp618
g70
I3
ssg71
g612
sg64
(lp619
S''
asbasbasbag57
(g73
g59
NtRp620
(dp621
g62
(dp622
sg71
g476
sg64
(lp623
g57
(g78
g59
NtRp624
(dp625
g62
(dp626
g82
g83
ssg71
g620
sg64
(lp627
g441
asbag57
(g78
g59
NtRp628
(dp629
g62
(dp630
g89
g90
ssg71
g620
sg64
(lp631
S':'
asbag57
(g78
g59
NtRp632
(dp633
g62
(dp634
sg71
g620
sg64
(lp635
g57
(g58
g59
NtRp636
(dp637
g62
(dp638
g70
I3
ssg71
g632
sg64
(lp639
S''
asbasbasbasbasbasbasbasbasbasbasbag57
(g73
g59
NtRp640
(dp641
g62
(dp642
sg71
g67
sg64
(lp643
g57
(g78
g59
NtRp644
(dp645
g62
(dp646
g82
g83
ssg71
g640
sg64
(lp647
S'env'
p648
asbag57
(g78
g59
NtRp649
(dp650
g62
(dp651
g89
g90
ssg71
g640
sg64
(lp652
S':'
asbag57
(g78
g59
NtRp653
(dp654
g62
(dp655
sg71
g640
sg64
(lp656
g57
(g58
g59
NtRp657
(dp658
g62
(dp659
g70
I5
ssg71
g653
sg64
(lp660
g57
(g66
g59
NtRp661
(dp662
g62
(dp663
g70
I4
ssg71
Nsg64
(lp664
g57
(g73
g59
NtRp665
(dp666
g62
(dp667
sg71
g661
sg64
(lp668
g57
(g78
g59
NtRp669
(dp670
g62
(dp671
g82
g83
ssg71
g665
sg64
(lp672
S'app_folders'
p673
asbag57
(g78
g59
NtRp674
(dp675
g62
(dp676
g89
g90
ssg71
g665
sg64
(lp677
S':'
asbag57
(g78
g59
NtRp678
(dp679
g62
(dp680
sg71
g665
sg64
(lp681
g57
(g58
g59
NtRp682
(dp683
g62
(dp684
g70
I4
ssg71
g678
sg64
(lp685
S"set(['C:\\\\Users\\\\Juliano\\\\Documents\\\\Visual Studio 2012\\\\Projects\\\\PFM-Web\\\\applications\\\\PFM_Web\\\\', 'C:\\\\Users\\\\Juliano\\\\Documents\\\\Visual Studio 2012\\\\Projects\\\\PFM-Web\\\\applications\\\\admin\\\\'])"
p686
asbasbasbag57
(g73
g59
NtRp687
(dp688
g62
(dp689
sg71
g661
sg64
(lp690
g57
(g78
g59
NtRp691
(dp692
g62
(dp693
g82
g83
ssg71
g687
sg64
(lp694
S'applications_parent'
p695
asbag57
(g78
g59
NtRp696
(dp697
g62
(dp698
g89
g90
ssg71
g687
sg64
(lp699
S':'
asbag57
(g78
g59
NtRp700
(dp701
g62
(dp702
sg71
g687
sg64
(lp703
g57
(g58
g59
NtRp704
(dp705
g62
(dp706
g70
I4
ssg71
g700
sg64
(lp707
S'C:\\Users\\Juliano\\Documents\\Visual Studio 2012\\Projects\\PFM-Web'
p708
asbasbasbag57
(g73
g59
NtRp709
(dp710
g62
(dp711
sg71
g661
sg64
(lp712
g57
(g78
g59
NtRp713
(dp714
g62
(dp715
g82
g83
ssg71
g709
sg64
(lp716
S'cmd_args'
p717
asbag57
(g78
g59
NtRp718
(dp719
g62
(dp720
g89
g90
ssg71
g709
sg64
(lp721
S':'
asbag57
(g78
g59
NtRp722
(dp723
g62
(dp724
sg71
g709
sg64
(lp725
g57
(g58
g59
NtRp726
(dp727
g62
(dp728
g70
I4
ssg71
g722
sg64
(lp729
g57
(g66
g59
NtRp730
(dp731
g62
(dp732
g70
I3
ssg71
Nsg64
(lp733
sbasbasbasbag57
(g73
g59
NtRp734
(dp735
g62
(dp736
sg71
g661
sg64
(lp737
g57
(g78
g59
NtRp738
(dp739
g62
(dp740
g82
g83
ssg71
g734
sg64
(lp741
S'cmd_options'
p742
asbag57
(g78
g59
NtRp743
(dp744
g62
(dp745
g89
g90
ssg71
g734
sg64
(lp746
S':'
asbag57
(g78
g59
NtRp747
(dp748
g62
(dp749
sg71
g734
sg64
(lp750
g57
(g58
g59
NtRp751
(dp752
g62
(dp753
g70
I4
ssg71
g747
sg64
(lp754
S"<Values at 0x3426288: {'verbose': False, 'ip': '127.0.0.1', 'with_scheduler': False, 'ips': ['192.168.0.196', 'fe80::2d25:44dc:a58e:afb9%13', '2001:0:9d38:953c:10e6:25ea:3f57:ff3b', 'fe80::10e6:25ea:3f57:ff3b%16'], 'shutdown_timeout': 5, 'taskbar': False, 'port': 8000, 'maxthreads': None, 'softcron': False, 'server_name': 'Hexed', 'bpython': False, 'nogui': False, 'pid_filename': 'httpserver.pid', 'extcron': False, 'runcron': False, 'run_system_tests': False, 'test': None, 'folder': 'C:\\\\Users\\\\Juliano\\\\Documents\\\\Visual Studio 2012\\\\Projects\\\\PFM-Web', 'config': '', 'import_models': False, 'winservice': '', 'shell': None, 'run': '', 'log_filename': 'httpserver.log', 'debuglevel': 30, 'args': [''], 'socket_timeout': 5, 'ssl_ca_certificate': None, 'scheduler': None, 'profiler_filename': None, 'ssl_private_key': '', 'scheduler_groups': None, 'password': '<ask>', 'request_queue_size': 5, 'ssl_certificate': '', 'cronjob': False, 'numthreads': None, 'quiet': False, 'interfaces': None, 'minthreads': None, 'timeout': 10, 'plain': False, 'nobanner': False}>"
p755
asbasbasbag57
(g73
g59
NtRp756
(dp757
g62
(dp758
sg71
g661
sg64
(lp759
g57
(g78
g59
NtRp760
(dp761
g62
(dp762
g82
g83
ssg71
g756
sg64
(lp763
S'db_sessions'
p764
asbag57
(g78
g59
NtRp765
(dp766
g62
(dp767
g89
g90
ssg71
g756
sg64
(lp768
S':'
asbag57
(g78
g59
NtRp769
(dp770
g62
(dp771
sg71
g756
sg64
(lp772
g57
(g58
g59
NtRp773
(dp774
g62
(dp775
g70
I4
ssg71
g769
sg64
(lp776
S'set([])'
p777
asbasbasbag57
(g73
g59
NtRp778
(dp779
g62
(dp780
sg71
g661
sg64
(lp781
g57
(g78
g59
NtRp782
(dp783
g62
(dp784
g82
g83
ssg71
g778
sg64
(lp785
S'debugging'
p786
asbag57
(g78
g59
NtRp787
(dp788
g62
(dp789
g89
g90
ssg71
g778
sg64
(lp790
S':'
asbag57
(g78
g59
NtRp791
(dp792
g62
(dp793
sg71
g778
sg64
(lp794
g57
(g58
g59
NtRp795
(dp796
g62
(dp797
g70
I4
ssg71
g791
sg64
(lp798
g100
asbasbasbag57
(g73
g59
NtRp799
(dp800
g62
(dp801
sg71
g661
sg64
(lp802
g57
(g78
g59
NtRp803
(dp804
g62
(dp805
g82
g83
ssg71
g799
sg64
(lp806
S'gluon_parent'
p807
asbag57
(g78
g59
NtRp808
(dp809
g62
(dp810
g89
g90
ssg71
g799
sg64
(lp811
S':'
asbag57
(g78
g59
NtRp812
(dp813
g62
(dp814
sg71
g799
sg64
(lp815
g57
(g58
g59
NtRp816
(dp817
g62
(dp818
g70
I4
ssg71
g812
sg64
(lp819
S'C:\\Users\\Juliano\\Documents\\Visual Studio 2012\\Projects\\PFM-Web'
p820
asbasbasbag57
(g73
g59
NtRp821
(dp822
g62
(dp823
sg71
g661
sg64
(lp824
g57
(g78
g59
NtRp825
(dp826
g62
(dp827
g82
g83
ssg71
g821
sg64
(lp828
S'http_accept'
p829
asbag57
(g78
g59
NtRp830
(dp831
g62
(dp832
g89
g90
ssg71
g821
sg64
(lp833
S':'
asbag57
(g78
g59
NtRp834
(dp835
g62
(dp836
sg71
g821
sg64
(lp837
g57
(g58
g59
NtRp838
(dp839
g62
(dp840
g70
I4
ssg71
g834
sg64
(lp841
S'text/html, application/xhtml+xml, */*'
p842
asbasbasbag57
(g73
g59
NtRp843
(dp844
g62
(dp845
sg71
g661
sg64
(lp846
g57
(g78
g59
NtRp847
(dp848
g62
(dp849
g82
g83
ssg71
g843
sg64
(lp850
S'http_accept_encoding'
p851
asbag57
(g78
g59
NtRp852
(dp853
g62
(dp854
g89
g90
ssg71
g843
sg64
(lp855
S':'
asbag57
(g78
g59
NtRp856
(dp857
g62
(dp858
sg71
g843
sg64
(lp859
g57
(g58
g59
NtRp860
(dp861
g62
(dp862
g70
I4
ssg71
g856
sg64
(lp863
S'gzip, deflate'
p864
asbasbasbag57
(g73
g59
NtRp865
(dp866
g62
(dp867
sg71
g661
sg64
(lp868
g57
(g78
g59
NtRp869
(dp870
g62
(dp871
g82
g83
ssg71
g865
sg64
(lp872
S'http_accept_language'
p873
asbag57
(g78
g59
NtRp874
(dp875
g62
(dp876
g89
g90
ssg71
g865
sg64
(lp877
S':'
asbag57
(g78
g59
NtRp878
(dp879
g62
(dp880
sg71
g865
sg64
(lp881
g57
(g58
g59
NtRp882
(dp883
g62
(dp884
g70
I4
ssg71
g878
sg64
(lp885
S'pt-BR,pt;q=0.8,en-US;q=0.5,en;q=0.3'
p886
asbasbasbag57
(g73
g59
NtRp887
(dp888
g62
(dp889
sg71
g661
sg64
(lp890
g57
(g78
g59
NtRp891
(dp892
g62
(dp893
g82
g83
ssg71
g887
sg64
(lp894
S'http_connection'
p895
asbag57
(g78
g59
NtRp896
(dp897
g62
(dp898
g89
g90
ssg71
g887
sg64
(lp899
S':'
asbag57
(g78
g59
NtRp900
(dp901
g62
(dp902
sg71
g887
sg64
(lp903
g57
(g58
g59
NtRp904
(dp905
g62
(dp906
g70
I4
ssg71
g900
sg64
(lp907
S'Keep-Alive'
p908
asbasbasbag57
(g73
g59
NtRp909
(dp910
g62
(dp911
sg71
g661
sg64
(lp912
g57
(g78
g59
NtRp913
(dp914
g62
(dp915
g82
g83
ssg71
g909
sg64
(lp916
S'http_cookie'
p917
asbag57
(g78
g59
NtRp918
(dp919
g62
(dp920
g89
g90
ssg71
g909
sg64
(lp921
S':'
asbag57
(g78
g59
NtRp922
(dp923
g62
(dp924
sg71
g909
sg64
(lp925
g57
(g58
g59
NtRp926
(dp927
g62
(dp928
g70
I4
ssg71
g922
sg64
(lp929
S'session_id_admin=127.0.0.1-e12d6916-8656-4736-b975-72200c915786; session_id_pfm_web=127.0.0.1-140a1922-a5d0-44eb-9a21-a4c388e16f08'
p930
asbasbasbag57
(g73
g59
NtRp931
(dp932
g62
(dp933
sg71
g661
sg64
(lp934
g57
(g78
g59
NtRp935
(dp936
g62
(dp937
g82
g83
ssg71
g931
sg64
(lp938
S'http_dnt'
p939
asbag57
(g78
g59
NtRp940
(dp941
g62
(dp942
g89
g90
ssg71
g931
sg64
(lp943
S':'
asbag57
(g78
g59
NtRp944
(dp945
g62
(dp946
sg71
g931
sg64
(lp947
g57
(g58
g59
NtRp948
(dp949
g62
(dp950
g70
I4
ssg71
g944
sg64
(lp951
S'1'
asbasbasbag57
(g73
g59
NtRp952
(dp953
g62
(dp954
sg71
g661
sg64
(lp955
g57
(g78
g59
NtRp956
(dp957
g62
(dp958
g82
g83
ssg71
g952
sg64
(lp959
S'http_host'
p960
asbag57
(g78
g59
NtRp961
(dp962
g62
(dp963
g89
g90
ssg71
g952
sg64
(lp964
S':'
asbag57
(g78
g59
NtRp965
(dp966
g62
(dp967
sg71
g952
sg64
(lp968
g57
(g58
g59
NtRp969
(dp970
g62
(dp971
g70
I4
ssg71
g965
sg64
(lp972
S'127.0.0.1:8000'
p973
asbasbasbag57
(g73
g59
NtRp974
(dp975
g62
(dp976
sg71
g661
sg64
(lp977
g57
(g78
g59
NtRp978
(dp979
g62
(dp980
g82
g83
ssg71
g974
sg64
(lp981
S'http_user_agent'
p982
asbag57
(g78
g59
NtRp983
(dp984
g62
(dp985
g89
g90
ssg71
g974
sg64
(lp986
S':'
asbag57
(g78
g59
NtRp987
(dp988
g62
(dp989
sg71
g974
sg64
(lp990
g57
(g58
g59
NtRp991
(dp992
g62
(dp993
g70
I4
ssg71
g987
sg64
(lp994
S'Mozilla/5.0 (compatible; MSIE 10.0; Windows NT 6.2; WOW64; Trident/6.0)'
p995
asbasbasbag57
(g73
g59
NtRp996
(dp997
g62
(dp998
sg71
g661
sg64
(lp999
g57
(g78
g59
NtRp1000
(dp1001
g62
(dp1002
g82
g83
ssg71
g996
sg64
(lp1003
S'is_jython'
p1004
asbag57
(g78
g59
NtRp1005
(dp1006
g62
(dp1007
g89
g90
ssg71
g996
sg64
(lp1008
S':'
asbag57
(g78
g59
NtRp1009
(dp1010
g62
(dp1011
sg71
g996
sg64
(lp1012
g57
(g58
g59
NtRp1013
(dp1014
g62
(dp1015
g70
I4
ssg71
g1009
sg64
(lp1016
g100
asbasbasbag57
(g73
g59
NtRp1017
(dp1018
g62
(dp1019
sg71
g661
sg64
(lp1020
g57
(g78
g59
NtRp1021
(dp1022
g62
(dp1023
g82
g83
ssg71
g1017
sg64
(lp1024
S'is_pypy'
p1025
asbag57
(g78
g59
NtRp1026
(dp1027
g62
(dp1028
g89
g90
ssg71
g1017
sg64
(lp1029
S':'
asbag57
(g78
g59
NtRp1030
(dp1031
g62
(dp1032
sg71
g1017
sg64
(lp1033
g57
(g58
g59
NtRp1034
(dp1035
g62
(dp1036
g70
I4
ssg71
g1030
sg64
(lp1037
g100
asbasbasbag57
(g73
g59
NtRp1038
(dp1039
g62
(dp1040
sg71
g661
sg64
(lp1041
g57
(g78
g59
NtRp1042
(dp1043
g62
(dp1044
g82
g83
ssg71
g1038
sg64
(lp1045
S'local_hosts'
p1046
asbag57
(g78
g59
NtRp1047
(dp1048
g62
(dp1049
g89
g90
ssg71
g1038
sg64
(lp1050
S':'
asbag57
(g78
g59
NtRp1051
(dp1052
g62
(dp1053
sg71
g1038
sg64
(lp1054
g57
(g58
g59
NtRp1055
(dp1056
g62
(dp1057
g70
I4
ssg71
g1051
sg64
(lp1058
g57
(g66
g59
NtRp1059
(dp1060
g62
(dp1061
g70
I3
ssg71
Nsg64
(lp1062
g57
(g73
g59
NtRp1063
(dp1064
g62
(dp1065
sg71
g1059
sg64
(lp1066
g57
(g78
g59
NtRp1067
(dp1068
g62
(dp1069
sg71
g1063
sg64
(lp1070
g57
(g58
g59
NtRp1071
(dp1072
g62
(dp1073
g70
I3
ssg71
g1067
sg64
(lp1074
S'192.168.0.196'
p1075
asbasbasbag57
(g73
g59
NtRp1076
(dp1077
g62
(dp1078
sg71
g1059
sg64
(lp1079
g57
(g78
g59
NtRp1080
(dp1081
g62
(dp1082
sg71
g1076
sg64
(lp1083
g57
(g58
g59
NtRp1084
(dp1085
g62
(dp1086
g70
I3
ssg71
g1080
sg64
(lp1087
S'2001:0:9d38:953c:10e6:25ea:3f57:ff3b'
p1088
asbasbasbag57
(g73
g59
NtRp1089
(dp1090
g62
(dp1091
sg71
g1059
sg64
(lp1092
g57
(g78
g59
NtRp1093
(dp1094
g62
(dp1095
sg71
g1089
sg64
(lp1096
g57
(g58
g59
NtRp1097
(dp1098
g62
(dp1099
g70
I3
ssg71
g1093
sg64
(lp1100
S'::ffff:127.0.0.1'
p1101
asbasbasbag57
(g73
g59
NtRp1102
(dp1103
g62
(dp1104
sg71
g1059
sg64
(lp1105
g57
(g78
g59
NtRp1106
(dp1107
g62
(dp1108
sg71
g1102
sg64
(lp1109
g57
(g58
g59
NtRp1110
(dp1111
g62
(dp1112
g70
I3
ssg71
g1106
sg64
(lp1113
S'::1'
p1114
asbasbasbag57
(g73
g59
NtRp1115
(dp1116
g62
(dp1117
sg71
g1059
sg64
(lp1118
g57
(g78
g59
NtRp1119
(dp1120
g62
(dp1121
sg71
g1115
sg64
(lp1122
g57
(g58
g59
NtRp1123
(dp1124
g62
(dp1125
g70
I3
ssg71
g1119
sg64
(lp1126
S'fe80::10e6:25ea:3f57:ff3b%16'
p1127
asbasbasbag57
(g73
g59
NtRp1128
(dp1129
g62
(dp1130
sg71
g1059
sg64
(lp1131
g57
(g78
g59
NtRp1132
(dp1133
g62
(dp1134
sg71
g1128
sg64
(lp1135
g57
(g58
g59
NtRp1136
(dp1137
g62
(dp1138
g70
I3
ssg71
g1132
sg64
(lp1139
S'fe80::2d25:44dc:a58e:afb9%13'
p1140
asbasbasbag57
(g73
g59
NtRp1141
(dp1142
g62
(dp1143
sg71
g1059
sg64
(lp1144
g57
(g78
g59
NtRp1145
(dp1146
g62
(dp1147
sg71
g1141
sg64
(lp1148
g57
(g58
g59
NtRp1149
(dp1150
g62
(dp1151
g70
I3
ssg71
g1145
sg64
(lp1152
S'Hexed'
p1153
asbasbasbag57
(g73
g59
NtRp1154
(dp1155
g62
(dp1156
sg71
g1059
sg64
(lp1157
g57
(g78
g59
NtRp1158
(dp1159
g62
(dp1160
sg71
g1154
sg64
(lp1161
g57
(g58
g59
NtRp1162
(dp1163
g62
(dp1164
g70
I3
ssg71
g1158
sg64
(lp1165
S'127.0.0.1'
p1166
asbasbasbasbasbasbasbag57
(g73
g59
NtRp1167
(dp1168
g62
(dp1169
sg71
g661
sg64
(lp1170
g57
(g78
g59
NtRp1171
(dp1172
g62
(dp1173
g82
g83
ssg71
g1167
sg64
(lp1174
S'path_info'
p1175
asbag57
(g78
g59
NtRp1176
(dp1177
g62
(dp1178
g89
g90
ssg71
g1167
sg64
(lp1179
S':'
asbag57
(g78
g59
NtRp1180
(dp1181
g62
(dp1182
sg71
g1167
sg64
(lp1183
g57
(g58
g59
NtRp1184
(dp1185
g62
(dp1186
g70
I4
ssg71
g1180
sg64
(lp1187
S'/PFM_Web/expenses/addnew'
p1188
asbasbasbag57
(g73
g59
NtRp1189
(dp1190
g62
(dp1191
sg71
g661
sg64
(lp1192
g57
(g78
g59
NtRp1193
(dp1194
g62
(dp1195
g82
g83
ssg71
g1189
sg64
(lp1196
S'query_string'
p1197
asbag57
(g78
g59
NtRp1198
(dp1199
g62
(dp1200
g89
g90
ssg71
g1189
sg64
(lp1201
S':'
asbag57
(g78
g59
NtRp1202
(dp1203
g62
(dp1204
sg71
g1189
sg64
(lp1205
g57
(g58
g59
NtRp1206
(dp1207
g62
(dp1208
g70
I4
ssg71
g1202
sg64
(lp1209
S''
asbasbasbag57
(g73
g59
NtRp1210
(dp1211
g62
(dp1212
sg71
g661
sg64
(lp1213
g57
(g78
g59
NtRp1214
(dp1215
g62
(dp1216
g82
g83
ssg71
g1210
sg64
(lp1217
S'remote_addr'
p1218
asbag57
(g78
g59
NtRp1219
(dp1220
g62
(dp1221
g89
g90
ssg71
g1210
sg64
(lp1222
S':'
asbag57
(g78
g59
NtRp1223
(dp1224
g62
(dp1225
sg71
g1210
sg64
(lp1226
g57
(g58
g59
NtRp1227
(dp1228
g62
(dp1229
g70
I4
ssg71
g1223
sg64
(lp1230
g212
asbasbasbag57
(g73
g59
NtRp1231
(dp1232
g62
(dp1233
sg71
g661
sg64
(lp1234
g57
(g78
g59
NtRp1235
(dp1236
g62
(dp1237
g82
g83
ssg71
g1231
sg64
(lp1238
S'remote_port'
p1239
asbag57
(g78
g59
NtRp1240
(dp1241
g62
(dp1242
g89
g90
ssg71
g1231
sg64
(lp1243
S':'
asbag57
(g78
g59
NtRp1244
(dp1245
g62
(dp1246
sg71
g1231
sg64
(lp1247
g57
(g58
g59
NtRp1248
(dp1249
g62
(dp1250
g70
I4
ssg71
g1244
sg64
(lp1251
S'65084'
p1252
asbasbasbag57
(g73
g59
NtRp1253
(dp1254
g62
(dp1255
sg71
g661
sg64
(lp1256
g57
(g78
g59
NtRp1257
(dp1258
g62
(dp1259
g82
g83
ssg71
g1253
sg64
(lp1260
S'request_method'
p1261
asbag57
(g78
g59
NtRp1262
(dp1263
g62
(dp1264
g89
g90
ssg71
g1253
sg64
(lp1265
S':'
asbag57
(g78
g59
NtRp1266
(dp1267
g62
(dp1268
sg71
g1253
sg64
(lp1269
g57
(g58
g59
NtRp1270
(dp1271
g62
(dp1272
g70
I4
ssg71
g1266
sg64
(lp1273
S'GET'
p1274
asbasbasbag57
(g73
g59
NtRp1275
(dp1276
g62
(dp1277
sg71
g661
sg64
(lp1278
g57
(g78
g59
NtRp1279
(dp1280
g62
(dp1281
g82
g83
ssg71
g1275
sg64
(lp1282
S'request_uri'
p1283
asbag57
(g78
g59
NtRp1284
(dp1285
g62
(dp1286
g89
g90
ssg71
g1275
sg64
(lp1287
S':'
asbag57
(g78
g59
NtRp1288
(dp1289
g62
(dp1290
sg71
g1275
sg64
(lp1291
g57
(g58
g59
NtRp1292
(dp1293
g62
(dp1294
g70
I4
ssg71
g1288
sg64
(lp1295
g1188
asbasbasbag57
(g73
g59
NtRp1296
(dp1297
g62
(dp1298
sg71
g661
sg64
(lp1299
g57
(g78
g59
NtRp1300
(dp1301
g62
(dp1302
g82
g83
ssg71
g1296
sg64
(lp1303
S'script_name'
p1304
asbag57
(g78
g59
NtRp1305
(dp1306
g62
(dp1307
g89
g90
ssg71
g1296
sg64
(lp1308
S':'
asbag57
(g78
g59
NtRp1309
(dp1310
g62
(dp1311
sg71
g1296
sg64
(lp1312
g57
(g58
g59
NtRp1313
(dp1314
g62
(dp1315
g70
I4
ssg71
g1309
sg64
(lp1316
S''
asbasbasbag57
(g73
g59
NtRp1317
(dp1318
g62
(dp1319
sg71
g661
sg64
(lp1320
g57
(g78
g59
NtRp1321
(dp1322
g62
(dp1323
g82
g83
ssg71
g1317
sg64
(lp1324
S'server_name'
p1325
asbag57
(g78
g59
NtRp1326
(dp1327
g62
(dp1328
g89
g90
ssg71
g1317
sg64
(lp1329
S':'
asbag57
(g78
g59
NtRp1330
(dp1331
g62
(dp1332
sg71
g1317
sg64
(lp1333
g57
(g58
g59
NtRp1334
(dp1335
g62
(dp1336
g70
I4
ssg71
g1330
sg64
(lp1337
S'Hexed'
p1338
asbasbasbag57
(g73
g59
NtRp1339
(dp1340
g62
(dp1341
sg71
g661
sg64
(lp1342
g57
(g78
g59
NtRp1343
(dp1344
g62
(dp1345
g82
g83
ssg71
g1339
sg64
(lp1346
S'server_port'
p1347
asbag57
(g78
g59
NtRp1348
(dp1349
g62
(dp1350
g89
g90
ssg71
g1339
sg64
(lp1351
S':'
asbag57
(g78
g59
NtRp1352
(dp1353
g62
(dp1354
sg71
g1339
sg64
(lp1355
g57
(g58
g59
NtRp1356
(dp1357
g62
(dp1358
g70
I4
ssg71
g1352
sg64
(lp1359
S'8000'
p1360
asbasbasbag57
(g73
g59
NtRp1361
(dp1362
g62
(dp1363
sg71
g661
sg64
(lp1364
g57
(g78
g59
NtRp1365
(dp1366
g62
(dp1367
g82
g83
ssg71
g1361
sg64
(lp1368
S'server_protocol'
p1369
asbag57
(g78
g59
NtRp1370
(dp1371
g62
(dp1372
g89
g90
ssg71
g1361
sg64
(lp1373
S':'
asbag57
(g78
g59
NtRp1374
(dp1375
g62
(dp1376
sg71
g1361
sg64
(lp1377
g57
(g58
g59
NtRp1378
(dp1379
g62
(dp1380
g70
I4
ssg71
g1374
sg64
(lp1381
S'HTTP/1.1'
p1382
asbasbasbag57
(g73
g59
NtRp1383
(dp1384
g62
(dp1385
sg71
g661
sg64
(lp1386
g57
(g78
g59
NtRp1387
(dp1388
g62
(dp1389
g82
g83
ssg71
g1383
sg64
(lp1390
S'server_software'
p1391
asbag57
(g78
g59
NtRp1392
(dp1393
g62
(dp1394
g89
g90
ssg71
g1383
sg64
(lp1395
S':'
asbag57
(g78
g59
NtRp1396
(dp1397
g62
(dp1398
sg71
g1383
sg64
(lp1399
g57
(g58
g59
NtRp1400
(dp1401
g62
(dp1402
g70
I4
ssg71
g1396
sg64
(lp1403
S'Rocket 1.2.6'
p1404
asbasbasbag57
(g73
g59
NtRp1405
(dp1406
g62
(dp1407
sg71
g661
sg64
(lp1408
g57
(g78
g59
NtRp1409
(dp1410
g62
(dp1411
g82
g83
ssg71
g1405
sg64
(lp1412
S'web2py_original_uri'
p1413
asbag57
(g78
g59
NtRp1414
(dp1415
g62
(dp1416
g89
g90
ssg71
g1405
sg64
(lp1417
S':'
asbag57
(g78
g59
NtRp1418
(dp1419
g62
(dp1420
sg71
g1405
sg64
(lp1421
g57
(g58
g59
NtRp1422
(dp1423
g62
(dp1424
g70
I4
ssg71
g1418
sg64
(lp1425
S'/PFM_Web/expenses/addnew'
p1426
asbasbasbag57
(g73
g59
NtRp1427
(dp1428
g62
(dp1429
sg71
g661
sg64
(lp1430
g57
(g78
g59
NtRp1431
(dp1432
g62
(dp1433
g82
g83
ssg71
g1427
sg64
(lp1434
S'web2py_path'
p1435
asbag57
(g78
g59
NtRp1436
(dp1437
g62
(dp1438
g89
g90
ssg71
g1427
sg64
(lp1439
S':'
asbag57
(g78
g59
NtRp1440
(dp1441
g62
(dp1442
sg71
g1427
sg64
(lp1443
g57
(g58
g59
NtRp1444
(dp1445
g62
(dp1446
g70
I4
ssg71
g1440
sg64
(lp1447
g708
asbasbasbag57
(g73
g59
NtRp1448
(dp1449
g62
(dp1450
sg71
g661
sg64
(lp1451
g57
(g78
g59
NtRp1452
(dp1453
g62
(dp1454
g82
g83
ssg71
g1448
sg64
(lp1455
S'web2py_version'
p1456
asbag57
(g78
g59
NtRp1457
(dp1458
g62
(dp1459
g89
g90
ssg71
g1448
sg64
(lp1460
S':'
asbag57
(g78
g59
NtRp1461
(dp1462
g62
(dp1463
sg71
g1448
sg64
(lp1464
g57
(g58
g59
NtRp1465
(dp1466
g62
(dp1467
g70
I4
ssg71
g1461
sg64
(lp1468
g57
(g66
g59
NtRp1469
(dp1470
g62
(dp1471
g70
I3
ssg71
Nsg64
(lp1472
g57
(g73
g59
NtRp1473
(dp1474
g62
(dp1475
sg71
g1469
sg64
(lp1476
g57
(g78
g59
NtRp1477
(dp1478
g62
(dp1479
sg71
g1473
sg64
(lp1480
g57
(g58
g59
NtRp1481
(dp1482
g62
(dp1483
g70
I3
ssg71
g1477
sg64
(lp1484
S'2'
asbasbasbag57
(g73
g59
NtRp1485
(dp1486
g62
(dp1487
sg71
g1469
sg64
(lp1488
g57
(g78
g59
NtRp1489
(dp1490
g62
(dp1491
sg71
g1485
sg64
(lp1492
g57
(g58
g59
NtRp1493
(dp1494
g62
(dp1495
g70
I3
ssg71
g1489
sg64
(lp1496
S'3'
asbasbasbag57
(g73
g59
NtRp1497
(dp1498
g62
(dp1499
sg71
g1469
sg64
(lp1500
g57
(g78
g59
NtRp1501
(dp1502
g62
(dp1503
sg71
g1497
sg64
(lp1504
g57
(g58
g59
NtRp1505
(dp1506
g62
(dp1507
g70
I3
ssg71
g1501
sg64
(lp1508
S'2'
asbasbasbag57
(g73
g59
NtRp1509
(dp1510
g62
(dp1511
sg71
g1469
sg64
(lp1512
g57
(g78
g59
NtRp1513
(dp1514
g62
(dp1515
sg71
g1509
sg64
(lp1516
g57
(g58
g59
NtRp1517
(dp1518
g62
(dp1519
g70
I3
ssg71
g1513
sg64
(lp1520
S'datetime.datetime(2012, 12, 17, 15, 3, 30)'
p1521
asbasbasbag57
(g73
g59
NtRp1522
(dp1523
g62
(dp1524
sg71
g1469
sg64
(lp1525
g57
(g78
g59
NtRp1526
(dp1527
g62
(dp1528
sg71
g1522
sg64
(lp1529
g57
(g58
g59
NtRp1530
(dp1531
g62
(dp1532
g70
I3
ssg71
g1526
sg64
(lp1533
S'stable'
p1534
asbasbasbasbasbasbasbag57
(g73
g59
NtRp1535
(dp1536
g62
(dp1537
sg71
g661
sg64
(lp1538
g57
(g78
g59
NtRp1539
(dp1540
g62
(dp1541
g82
g83
ssg71
g1535
sg64
(lp1542
S'wsgi_errors'
p1543
asbag57
(g78
g59
NtRp1544
(dp1545
g62
(dp1546
g89
g90
ssg71
g1535
sg64
(lp1547
S':'
asbag57
(g78
g59
NtRp1548
(dp1549
g62
(dp1550
sg71
g1535
sg64
(lp1551
g57
(g58
g59
NtRp1552
(dp1553
g62
(dp1554
g70
I4
ssg71
g1548
sg64
(lp1555
S"<open file '<stderr>', mode 'w' at 0x0000000001D871E0>"
p1556
asbasbasbag57
(g73
g59
NtRp1557
(dp1558
g62
(dp1559
sg71
g661
sg64
(lp1560
g57
(g78
g59
NtRp1561
(dp1562
g62
(dp1563
g82
g83
ssg71
g1557
sg64
(lp1564
S'wsgi_file_wrapper'
p1565
asbag57
(g78
g59
NtRp1566
(dp1567
g62
(dp1568
g89
g90
ssg71
g1557
sg64
(lp1569
S':'
asbag57
(g78
g59
NtRp1570
(dp1571
g62
(dp1572
sg71
g1557
sg64
(lp1573
g57
(g58
g59
NtRp1574
(dp1575
g62
(dp1576
g70
I4
ssg71
g1570
sg64
(lp1577
S'<class wsgiref.util.FileWrapper at 0x00000000033AE7C8>'
p1578
asbasbasbag57
(g73
g59
NtRp1579
(dp1580
g62
(dp1581
sg71
g661
sg64
(lp1582
g57
(g78
g59
NtRp1583
(dp1584
g62
(dp1585
g82
g83
ssg71
g1579
sg64
(lp1586
S'wsgi_input'
p1587
asbag57
(g78
g59
NtRp1588
(dp1589
g62
(dp1590
g89
g90
ssg71
g1579
sg64
(lp1591
S':'
asbag57
(g78
g59
NtRp1592
(dp1593
g62
(dp1594
sg71
g1579
sg64
(lp1595
g57
(g58
g59
NtRp1596
(dp1597
g62
(dp1598
g70
I4
ssg71
g1592
sg64
(lp1599
S'<socket._fileobject object at 0x0000000004C860C0>'
p1600
asbasbasbag57
(g73
g59
NtRp1601
(dp1602
g62
(dp1603
sg71
g661
sg64
(lp1604
g57
(g78
g59
NtRp1605
(dp1606
g62
(dp1607
g82
g83
ssg71
g1601
sg64
(lp1608
S'wsgi_multiprocess'
p1609
asbag57
(g78
g59
NtRp1610
(dp1611
g62
(dp1612
g89
g90
ssg71
g1601
sg64
(lp1613
S':'
asbag57
(g78
g59
NtRp1614
(dp1615
g62
(dp1616
sg71
g1601
sg64
(lp1617
g57
(g58
g59
NtRp1618
(dp1619
g62
(dp1620
g70
I4
ssg71
g1614
sg64
(lp1621
g100
asbasbasbag57
(g73
g59
NtRp1622
(dp1623
g62
(dp1624
sg71
g661
sg64
(lp1625
g57
(g78
g59
NtRp1626
(dp1627
g62
(dp1628
g82
g83
ssg71
g1622
sg64
(lp1629
S'wsgi_multithread'
p1630
asbag57
(g78
g59
NtRp1631
(dp1632
g62
(dp1633
g89
g90
ssg71
g1622
sg64
(lp1634
S':'
asbag57
(g78
g59
NtRp1635
(dp1636
g62
(dp1637
sg71
g1622
sg64
(lp1638
g57
(g58
g59
NtRp1639
(dp1640
g62
(dp1641
g70
I4
ssg71
g1635
sg64
(lp1642
S'True'
p1643
asbasbasbag57
(g73
g59
NtRp1644
(dp1645
g62
(dp1646
sg71
g661
sg64
(lp1647
g57
(g78
g59
NtRp1648
(dp1649
g62
(dp1650
g82
g83
ssg71
g1644
sg64
(lp1651
S'wsgi_run_once'
p1652
asbag57
(g78
g59
NtRp1653
(dp1654
g62
(dp1655
g89
g90
ssg71
g1644
sg64
(lp1656
S':'
asbag57
(g78
g59
NtRp1657
(dp1658
g62
(dp1659
sg71
g1644
sg64
(lp1660
g57
(g58
g59
NtRp1661
(dp1662
g62
(dp1663
g70
I4
ssg71
g1657
sg64
(lp1664
g100
asbasbasbag57
(g73
g59
NtRp1665
(dp1666
g62
(dp1667
sg71
g661
sg64
(lp1668
g57
(g78
g59
NtRp1669
(dp1670
g62
(dp1671
g82
g83
ssg71
g1665
sg64
(lp1672
S'wsgi_url_scheme'
p1673
asbag57
(g78
g59
NtRp1674
(dp1675
g62
(dp1676
g89
g90
ssg71
g1665
sg64
(lp1677
S':'
asbag57
(g78
g59
NtRp1678
(dp1679
g62
(dp1680
sg71
g1665
sg64
(lp1681
g57
(g58
g59
NtRp1682
(dp1683
g62
(dp1684
g70
I4
ssg71
g1678
sg64
(lp1685
S'http'
p1686
asbasbasbag57
(g73
g59
NtRp1687
(dp1688
g62
(dp1689
sg71
g661
sg64
(lp1690
g57
(g78
g59
NtRp1691
(dp1692
g62
(dp1693
g82
g83
ssg71
g1687
sg64
(lp1694
S'wsgi_version'
p1695
asbag57
(g78
g59
NtRp1696
(dp1697
g62
(dp1698
g89
g90
ssg71
g1687
sg64
(lp1699
S':'
asbag57
(g78
g59
NtRp1700
(dp1701
g62
(dp1702
sg71
g1687
sg64
(lp1703
g57
(g58
g59
NtRp1704
(dp1705
g62
(dp1706
g70
I4
ssg71
g1700
sg64
(lp1707
g57
(g66
g59
NtRp1708
(dp1709
g62
(dp1710
g70
I3
ssg71
Nsg64
(lp1711
g57
(g73
g59
NtRp1712
(dp1713
g62
(dp1714
sg71
g1708
sg64
(lp1715
g57
(g78
g59
NtRp1716
(dp1717
g62
(dp1718
sg71
g1712
sg64
(lp1719
g57
(g58
g59
NtRp1720
(dp1721
g62
(dp1722
g70
I3
ssg71
g1716
sg64
(lp1723
S'1'
asbasbasbag57
(g73
g59
NtRp1724
(dp1725
g62
(dp1726
sg71
g1708
sg64
(lp1727
g57
(g78
g59
NtRp1728
(dp1729
g62
(dp1730
sg71
g1724
sg64
(lp1731
g57
(g58
g59
NtRp1732
(dp1733
g62
(dp1734
g70
I3
ssg71
g1728
sg64
(lp1735
S'0'
asbasbasbasbasbasbasbasbasbasbasbag57
(g73
g59
NtRp1736
(dp1737
g62
(dp1738
sg71
g67
sg64
(lp1739
g57
(g78
g59
NtRp1740
(dp1741
g62
(dp1742
g82
g83
ssg71
g1736
sg64
(lp1743
S'extension'
p1744
asbag57
(g78
g59
NtRp1745
(dp1746
g62
(dp1747
g89
g90
ssg71
g1736
sg64
(lp1748
S':'
asbag57
(g78
g59
NtRp1749
(dp1750
g62
(dp1751
sg71
g1736
sg64
(lp1752
g57
(g58
g59
NtRp1753
(dp1754
g62
(dp1755
g70
I5
ssg71
g1749
sg64
(lp1756
S'html'
p1757
asbasbasbag57
(g73
g59
NtRp1758
(dp1759
g62
(dp1760
sg71
g67
sg64
(lp1761
g57
(g78
g59
NtRp1762
(dp1763
g62
(dp1764
g82
g83
ssg71
g1758
sg64
(lp1765
S'folder'
p1766
asbag57
(g78
g59
NtRp1767
(dp1768
g62
(dp1769
g89
g90
ssg71
g1758
sg64
(lp1770
S':'
asbag57
(g78
g59
NtRp1771
(dp1772
g62
(dp1773
sg71
g1758
sg64
(lp1774
g57
(g58
g59
NtRp1775
(dp1776
g62
(dp1777
g70
I5
ssg71
g1771
sg64
(lp1778
S'C:\\Users\\Juliano\\Documents\\Visual Studio 2012\\Projects\\PFM-Web\\applications\\PFM_Web\\'
p1779
asbasbasbag57
(g73
g59
NtRp1780
(dp1781
g62
(dp1782
sg71
g67
sg64
(lp1783
g57
(g78
g59
NtRp1784
(dp1785
g62
(dp1786
g82
g83
ssg71
g1780
sg64
(lp1787
S'function'
p1788
asbag57
(g78
g59
NtRp1789
(dp1790
g62
(dp1791
g89
g90
ssg71
g1780
sg64
(lp1792
S':'
asbag57
(g78
g59
NtRp1793
(dp1794
g62
(dp1795
sg71
g1780
sg64
(lp1796
g57
(g58
g59
NtRp1797
(dp1798
g62
(dp1799
g70
I5
ssg71
g1793
sg64
(lp1800
S'addnew'
p1801
asbasbasbag57
(g73
g59
NtRp1802
(dp1803
g62
(dp1804
sg71
g67
sg64
(lp1805
g57
(g78
g59
NtRp1806
(dp1807
g62
(dp1808
g82
g83
ssg71
g1802
sg64
(lp1809
S'get_vars'
p1810
asbag57
(g78
g59
NtRp1811
(dp1812
g62
(dp1813
g89
g90
ssg71
g1802
sg64
(lp1814
S':'
asbag57
(g78
g59
NtRp1815
(dp1816
g62
(dp1817
sg71
g1802
sg64
(lp1818
g57
(g58
g59
NtRp1819
(dp1820
g62
(dp1821
g70
I5
ssg71
g1815
sg64
(lp1822
g57
(g66
g59
NtRp1823
(dp1824
g62
(dp1825
g70
I4
ssg71
Nsg64
(lp1826
sbasbasbasbag57
(g73
g59
NtRp1827
(dp1828
g62
(dp1829
sg71
g67
sg64
(lp1830
g57
(g78
g59
NtRp1831
(dp1832
g62
(dp1833
g82
g83
ssg71
g1827
sg64
(lp1834
S'global_settings'
p1835
asbag57
(g78
g59
NtRp1836
(dp1837
g62
(dp1838
g89
g90
ssg71
g1827
sg64
(lp1839
S':'
asbag57
(g78
g59
NtRp1840
(dp1841
g62
(dp1842
sg71
g1827
sg64
(lp1843
g57
(g58
g59
NtRp1844
(dp1845
g62
(dp1846
g70
I5
ssg71
g1840
sg64
(lp1847
g57
(g66
g59
NtRp1848
(dp1849
g62
(dp1850
g70
I4
ssg71
Nsg64
(lp1851
g57
(g73
g59
NtRp1852
(dp1853
g62
(dp1854
sg71
g1848
sg64
(lp1855
g57
(g78
g59
NtRp1856
(dp1857
g62
(dp1858
g82
g83
ssg71
g1852
sg64
(lp1859
g673
asbag57
(g78
g59
NtRp1860
(dp1861
g62
(dp1862
g89
g90
ssg71
g1852
sg64
(lp1863
S':'
asbag57
(g78
g59
NtRp1864
(dp1865
g62
(dp1866
sg71
g1852
sg64
(lp1867
g57
(g58
g59
NtRp1868
(dp1869
g62
(dp1870
g70
I4
ssg71
g1864
sg64
(lp1871
S"set(['C:\\\\Users\\\\Juliano\\\\Documents\\\\Visual Studio 2012\\\\Projects\\\\PFM-Web\\\\applications\\\\PFM_Web\\\\', 'C:\\\\Users\\\\Juliano\\\\Documents\\\\Visual Studio 2012\\\\Projects\\\\PFM-Web\\\\applications\\\\admin\\\\'])"
p1872
asbasbasbag57
(g73
g59
NtRp1873
(dp1874
g62
(dp1875
sg71
g1848
sg64
(lp1876
g57
(g78
g59
NtRp1877
(dp1878
g62
(dp1879
g82
g83
ssg71
g1873
sg64
(lp1880
g695
asbag57
(g78
g59
NtRp1881
(dp1882
g62
(dp1883
g89
g90
ssg71
g1873
sg64
(lp1884
S':'
asbag57
(g78
g59
NtRp1885
(dp1886
g62
(dp1887
sg71
g1873
sg64
(lp1888
g57
(g58
g59
NtRp1889
(dp1890
g62
(dp1891
g70
I4
ssg71
g1885
sg64
(lp1892
g708
asbasbasbag57
(g73
g59
NtRp1893
(dp1894
g62
(dp1895
sg71
g1848
sg64
(lp1896
g57
(g78
g59
NtRp1897
(dp1898
g62
(dp1899
g82
g83
ssg71
g1893
sg64
(lp1900
g717
asbag57
(g78
g59
NtRp1901
(dp1902
g62
(dp1903
g89
g90
ssg71
g1893
sg64
(lp1904
S':'
asbag57
(g78
g59
NtRp1905
(dp1906
g62
(dp1907
sg71
g1893
sg64
(lp1908
g57
(g58
g59
NtRp1909
(dp1910
g62
(dp1911
g70
I4
ssg71
g1905
sg64
(lp1912
g57
(g66
g59
NtRp1913
(dp1914
g62
(dp1915
g70
I3
ssg71
Nsg64
(lp1916
sbasbasbasbag57
(g73
g59
NtRp1917
(dp1918
g62
(dp1919
sg71
g1848
sg64
(lp1920
g57
(g78
g59
NtRp1921
(dp1922
g62
(dp1923
g82
g83
ssg71
g1917
sg64
(lp1924
g742
asbag57
(g78
g59
NtRp1925
(dp1926
g62
(dp1927
g89
g90
ssg71
g1917
sg64
(lp1928
S':'
asbag57
(g78
g59
NtRp1929
(dp1930
g62
(dp1931
sg71
g1917
sg64
(lp1932
g57
(g58
g59
NtRp1933
(dp1934
g62
(dp1935
g70
I4
ssg71
g1929
sg64
(lp1936
S"<Values at 0x3426288: {'verbose': False, 'ip': '127.0.0.1', 'with_scheduler': False, 'ips': ['192.168.0.196', 'fe80::2d25:44dc:a58e:afb9%13', '2001:0:9d38:953c:10e6:25ea:3f57:ff3b', 'fe80::10e6:25ea:3f57:ff3b%16'], 'shutdown_timeout': 5, 'taskbar': False, 'port': 8000, 'maxthreads': None, 'softcron': False, 'server_name': 'Hexed', 'bpython': False, 'nogui': False, 'pid_filename': 'httpserver.pid', 'extcron': False, 'runcron': False, 'run_system_tests': False, 'test': None, 'folder': 'C:\\\\Users\\\\Juliano\\\\Documents\\\\Visual Studio 2012\\\\Projects\\\\PFM-Web', 'config': '', 'import_models': False, 'winservice': '', 'shell': None, 'run': '', 'log_filename': 'httpserver.log', 'debuglevel': 30, 'args': [''], 'socket_timeout': 5, 'ssl_ca_certificate': None, 'scheduler': None, 'profiler_filename': None, 'ssl_private_key': '', 'scheduler_groups': None, 'password': '<ask>', 'request_queue_size': 5, 'ssl_certificate': '', 'cronjob': False, 'numthreads': None, 'quiet': False, 'interfaces': None, 'minthreads': None, 'timeout': 10, 'plain': False, 'nobanner': False}>"
p1937
asbasbasbag57
(g73
g59
NtRp1938
(dp1939
g62
(dp1940
sg71
g1848
sg64
(lp1941
g57
(g78
g59
NtRp1942
(dp1943
g62
(dp1944
g82
g83
ssg71
g1938
sg64
(lp1945
g764
asbag57
(g78
g59
NtRp1946
(dp1947
g62
(dp1948
g89
g90
ssg71
g1938
sg64
(lp1949
S':'
asbag57
(g78
g59
NtRp1950
(dp1951
g62
(dp1952
sg71
g1938
sg64
(lp1953
g57
(g58
g59
NtRp1954
(dp1955
g62
(dp1956
g70
I4
ssg71
g1950
sg64
(lp1957
S'set([])'
p1958
asbasbasbag57
(g73
g59
NtRp1959
(dp1960
g62
(dp1961
sg71
g1848
sg64
(lp1962
g57
(g78
g59
NtRp1963
(dp1964
g62
(dp1965
g82
g83
ssg71
g1959
sg64
(lp1966
g786
asbag57
(g78
g59
NtRp1967
(dp1968
g62
(dp1969
g89
g90
ssg71
g1959
sg64
(lp1970
S':'
asbag57
(g78
g59
NtRp1971
(dp1972
g62
(dp1973
sg71
g1959
sg64
(lp1974
g57
(g58
g59
NtRp1975
(dp1976
g62
(dp1977
g70
I4
ssg71
g1971
sg64
(lp1978
g100
asbasbasbag57
(g73
g59
NtRp1979
(dp1980
g62
(dp1981
sg71
g1848
sg64
(lp1982
g57
(g78
g59
NtRp1983
(dp1984
g62
(dp1985
g82
g83
ssg71
g1979
sg64
(lp1986
g807
asbag57
(g78
g59
NtRp1987
(dp1988
g62
(dp1989
g89
g90
ssg71
g1979
sg64
(lp1990
S':'
asbag57
(g78
g59
NtRp1991
(dp1992
g62
(dp1993
sg71
g1979
sg64
(lp1994
g57
(g58
g59
NtRp1995
(dp1996
g62
(dp1997
g70
I4
ssg71
g1991
sg64
(lp1998
g820
asbasbasbag57
(g73
g59
NtRp1999
(dp2000
g62
(dp2001
sg71
g1848
sg64
(lp2002
g57
(g78
g59
NtRp2003
(dp2004
g62
(dp2005
g82
g83
ssg71
g1999
sg64
(lp2006
g1004
asbag57
(g78
g59
NtRp2007
(dp2008
g62
(dp2009
g89
g90
ssg71
g1999
sg64
(lp2010
S':'
asbag57
(g78
g59
NtRp2011
(dp2012
g62
(dp2013
sg71
g1999
sg64
(lp2014
g57
(g58
g59
NtRp2015
(dp2016
g62
(dp2017
g70
I4
ssg71
g2011
sg64
(lp2018
g100
asbasbasbag57
(g73
g59
NtRp2019
(dp2020
g62
(dp2021
sg71
g1848
sg64
(lp2022
g57
(g78
g59
NtRp2023
(dp2024
g62
(dp2025
g82
g83
ssg71
g2019
sg64
(lp2026
g1025
asbag57
(g78
g59
NtRp2027
(dp2028
g62
(dp2029
g89
g90
ssg71
g2019
sg64
(lp2030
S':'
asbag57
(g78
g59
NtRp2031
(dp2032
g62
(dp2033
sg71
g2019
sg64
(lp2034
g57
(g58
g59
NtRp2035
(dp2036
g62
(dp2037
g70
I4
ssg71
g2031
sg64
(lp2038
g100
asbasbasbag57
(g73
g59
NtRp2039
(dp2040
g62
(dp2041
sg71
g1848
sg64
(lp2042
g57
(g78
g59
NtRp2043
(dp2044
g62
(dp2045
g82
g83
ssg71
g2039
sg64
(lp2046
g1046
asbag57
(g78
g59
NtRp2047
(dp2048
g62
(dp2049
g89
g90
ssg71
g2039
sg64
(lp2050
S':'
asbag57
(g78
g59
NtRp2051
(dp2052
g62
(dp2053
sg71
g2039
sg64
(lp2054
g57
(g58
g59
NtRp2055
(dp2056
g62
(dp2057
g70
I4
ssg71
g2051
sg64
(lp2058
g57
(g66
g59
NtRp2059
(dp2060
g62
(dp2061
g70
I3
ssg71
Nsg64
(lp2062
g57
(g73
g59
NtRp2063
(dp2064
g62
(dp2065
sg71
g2059
sg64
(lp2066
g57
(g78
g59
NtRp2067
(dp2068
g62
(dp2069
sg71
g2063
sg64
(lp2070
g57
(g58
g59
NtRp2071
(dp2072
g62
(dp2073
g70
I3
ssg71
g2067
sg64
(lp2074
g1075
asbasbasbag57
(g73
g59
NtRp2075
(dp2076
g62
(dp2077
sg71
g2059
sg64
(lp2078
g57
(g78
g59
NtRp2079
(dp2080
g62
(dp2081
sg71
g2075
sg64
(lp2082
g57
(g58
g59
NtRp2083
(dp2084
g62
(dp2085
g70
I3
ssg71
g2079
sg64
(lp2086
g1088
asbasbasbag57
(g73
g59
NtRp2087
(dp2088
g62
(dp2089
sg71
g2059
sg64
(lp2090
g57
(g78
g59
NtRp2091
(dp2092
g62
(dp2093
sg71
g2087
sg64
(lp2094
g57
(g58
g59
NtRp2095
(dp2096
g62
(dp2097
g70
I3
ssg71
g2091
sg64
(lp2098
g1101
asbasbasbag57
(g73
g59
NtRp2099
(dp2100
g62
(dp2101
sg71
g2059
sg64
(lp2102
g57
(g78
g59
NtRp2103
(dp2104
g62
(dp2105
sg71
g2099
sg64
(lp2106
g57
(g58
g59
NtRp2107
(dp2108
g62
(dp2109
g70
I3
ssg71
g2103
sg64
(lp2110
g1114
asbasbasbag57
(g73
g59
NtRp2111
(dp2112
g62
(dp2113
sg71
g2059
sg64
(lp2114
g57
(g78
g59
NtRp2115
(dp2116
g62
(dp2117
sg71
g2111
sg64
(lp2118
g57
(g58
g59
NtRp2119
(dp2120
g62
(dp2121
g70
I3
ssg71
g2115
sg64
(lp2122
g1127
asbasbasbag57
(g73
g59
NtRp2123
(dp2124
g62
(dp2125
sg71
g2059
sg64
(lp2126
g57
(g78
g59
NtRp2127
(dp2128
g62
(dp2129
sg71
g2123
sg64
(lp2130
g57
(g58
g59
NtRp2131
(dp2132
g62
(dp2133
g70
I3
ssg71
g2127
sg64
(lp2134
g1140
asbasbasbag57
(g73
g59
NtRp2135
(dp2136
g62
(dp2137
sg71
g2059
sg64
(lp2138
g57
(g78
g59
NtRp2139
(dp2140
g62
(dp2141
sg71
g2135
sg64
(lp2142
g57
(g58
g59
NtRp2143
(dp2144
g62
(dp2145
g70
I3
ssg71
g2139
sg64
(lp2146
g1153
asbasbasbag57
(g73
g59
NtRp2147
(dp2148
g62
(dp2149
sg71
g2059
sg64
(lp2150
g57
(g78
g59
NtRp2151
(dp2152
g62
(dp2153
sg71
g2147
sg64
(lp2154
g57
(g58
g59
NtRp2155
(dp2156
g62
(dp2157
g70
I3
ssg71
g2151
sg64
(lp2158
g1166
asbasbasbasbasbasbasbag57
(g73
g59
NtRp2159
(dp2160
g62
(dp2161
sg71
g1848
sg64
(lp2162
g57
(g78
g59
NtRp2163
(dp2164
g62
(dp2165
g82
g83
ssg71
g2159
sg64
(lp2166
g1456
asbag57
(g78
g59
NtRp2167
(dp2168
g62
(dp2169
g89
g90
ssg71
g2159
sg64
(lp2170
S':'
asbag57
(g78
g59
NtRp2171
(dp2172
g62
(dp2173
sg71
g2159
sg64
(lp2174
g57
(g58
g59
NtRp2175
(dp2176
g62
(dp2177
g70
I4
ssg71
g2171
sg64
(lp2178
g57
(g66
g59
NtRp2179
(dp2180
g62
(dp2181
g70
I3
ssg71
Nsg64
(lp2182
g57
(g73
g59
NtRp2183
(dp2184
g62
(dp2185
sg71
g2179
sg64
(lp2186
g57
(g78
g59
NtRp2187
(dp2188
g62
(dp2189
sg71
g2183
sg64
(lp2190
g57
(g58
g59
NtRp2191
(dp2192
g62
(dp2193
g70
I3
ssg71
g2187
sg64
(lp2194
S'2'
asbasbasbag57
(g73
g59
NtRp2195
(dp2196
g62
(dp2197
sg71
g2179
sg64
(lp2198
g57
(g78
g59
NtRp2199
(dp2200
g62
(dp2201
sg71
g2195
sg64
(lp2202
g57
(g58
g59
NtRp2203
(dp2204
g62
(dp2205
g70
I3
ssg71
g2199
sg64
(lp2206
S'3'
asbasbasbag57
(g73
g59
NtRp2207
(dp2208
g62
(dp2209
sg71
g2179
sg64
(lp2210
g57
(g78
g59
NtRp2211
(dp2212
g62
(dp2213
sg71
g2207
sg64
(lp2214
g57
(g58
g59
NtRp2215
(dp2216
g62
(dp2217
g70
I3
ssg71
g2211
sg64
(lp2218
S'2'
asbasbasbag57
(g73
g59
NtRp2219
(dp2220
g62
(dp2221
sg71
g2179
sg64
(lp2222
g57
(g78
g59
NtRp2223
(dp2224
g62
(dp2225
sg71
g2219
sg64
(lp2226
g57
(g58
g59
NtRp2227
(dp2228
g62
(dp2229
g70
I3
ssg71
g2223
sg64
(lp2230
S'datetime.datetime(2012, 12, 17, 15, 3, 30)'
p2231
asbasbasbag57
(g73
g59
NtRp2232
(dp2233
g62
(dp2234
sg71
g2179
sg64
(lp2235
g57
(g78
g59
NtRp2236
(dp2237
g62
(dp2238
sg71
g2232
sg64
(lp2239
g57
(g58
g59
NtRp2240
(dp2241
g62
(dp2242
g70
I3
ssg71
g2236
sg64
(lp2243
g1534
asbasbasbasbasbasbasbasbasbasbasbag57
(g73
g59
NtRp2244
(dp2245
g62
(dp2246
sg71
g67
sg64
(lp2247
g57
(g78
g59
NtRp2248
(dp2249
g62
(dp2250
g82
g83
ssg71
g2244
sg64
(lp2251
S'is_https'
p2252
asbag57
(g78
g59
NtRp2253
(dp2254
g62
(dp2255
g89
g90
ssg71
g2244
sg64
(lp2256
S':'
asbag57
(g78
g59
NtRp2257
(dp2258
g62
(dp2259
sg71
g2244
sg64
(lp2260
g57
(g58
g59
NtRp2261
(dp2262
g62
(dp2263
g70
I5
ssg71
g2257
sg64
(lp2264
g100
asbasbasbag57
(g73
g59
NtRp2265
(dp2266
g62
(dp2267
sg71
g67
sg64
(lp2268
g57
(g78
g59
NtRp2269
(dp2270
g62
(dp2271
g82
g83
ssg71
g2265
sg64
(lp2272
S'is_local'
p2273
asbag57
(g78
g59
NtRp2274
(dp2275
g62
(dp2276
g89
g90
ssg71
g2265
sg64
(lp2277
S':'
asbag57
(g78
g59
NtRp2278
(dp2279
g62
(dp2280
sg71
g2265
sg64
(lp2281
g57
(g58
g59
NtRp2282
(dp2283
g62
(dp2284
g70
I5
ssg71
g2278
sg64
(lp2285
g1643
asbasbasbag57
(g73
g59
NtRp2286
(dp2287
g62
(dp2288
sg71
g67
sg64
(lp2289
g57
(g78
g59
NtRp2290
(dp2291
g62
(dp2292
g82
g83
ssg71
g2286
sg64
(lp2293
S'is_restful'
p2294
asbag57
(g78
g59
NtRp2295
(dp2296
g62
(dp2297
g89
g90
ssg71
g2286
sg64
(lp2298
S':'
asbag57
(g78
g59
NtRp2299
(dp2300
g62
(dp2301
sg71
g2286
sg64
(lp2302
g57
(g58
g59
NtRp2303
(dp2304
g62
(dp2305
g70
I5
ssg71
g2299
sg64
(lp2306
g100
asbasbasbag57
(g73
g59
NtRp2307
(dp2308
g62
(dp2309
sg71
g67
sg64
(lp2310
g57
(g78
g59
NtRp2311
(dp2312
g62
(dp2313
g82
g83
ssg71
g2307
sg64
(lp2314
S'now'
p2315
asbag57
(g78
g59
NtRp2316
(dp2317
g62
(dp2318
g89
g90
ssg71
g2307
sg64
(lp2319
S':'
asbag57
(g78
g59
NtRp2320
(dp2321
g62
(dp2322
sg71
g2307
sg64
(lp2323
g57
(g58
g59
NtRp2324
(dp2325
g62
(dp2326
g70
I5
ssg71
g2320
sg64
(lp2327
S'datetime.datetime(2013, 2, 23, 18, 16, 26, 692000)'
p2328
asbasbasbag57
(g73
g59
NtRp2329
(dp2330
g62
(dp2331
sg71
g67
sg64
(lp2332
g57
(g78
g59
NtRp2333
(dp2334
g62
(dp2335
g82
g83
ssg71
g2329
sg64
(lp2336
S'post_vars'
p2337
asbag57
(g78
g59
NtRp2338
(dp2339
g62
(dp2340
g89
g90
ssg71
g2329
sg64
(lp2341
S':'
asbag57
(g78
g59
NtRp2342
(dp2343
g62
(dp2344
sg71
g2329
sg64
(lp2345
g57
(g58
g59
NtRp2346
(dp2347
g62
(dp2348
g70
I5
ssg71
g2342
sg64
(lp2349
g57
(g66
g59
NtRp2350
(dp2351
g62
(dp2352
g70
I4
ssg71
Nsg64
(lp2353
sbasbasbasbag57
(g73
g59
NtRp2354
(dp2355
g62
(dp2356
sg71
g67
sg64
(lp2357
g57
(g78
g59
NtRp2358
(dp2359
g62
(dp2360
g82
g83
ssg71
g2354
sg64
(lp2361
S'raw_args'
p2362
asbag57
(g78
g59
NtRp2363
(dp2364
g62
(dp2365
g89
g90
ssg71
g2354
sg64
(lp2366
S':'
asbag57
(g78
g59
NtRp2367
(dp2368
g62
(dp2369
sg71
g2354
sg64
(lp2370
g57
(g58
g59
NtRp2371
(dp2372
g62
(dp2373
g70
I5
ssg71
g2367
sg64
(lp2374
S''
asbasbasbag57
(g73
g59
NtRp2375
(dp2376
g62
(dp2377
sg71
g67
sg64
(lp2378
g57
(g78
g59
NtRp2379
(dp2380
g62
(dp2381
g82
g83
ssg71
g2375
sg64
(lp2382
S'raw_extension'
p2383
asbag57
(g78
g59
NtRp2384
(dp2385
g62
(dp2386
g89
g90
ssg71
g2375
sg64
(lp2387
S':'
asbag57
(g78
g59
NtRp2388
(dp2389
g62
(dp2390
sg71
g2375
sg64
(lp2391
g57
(g58
g59
NtRp2392
(dp2393
g62
(dp2394
g70
I5
ssg71
g2388
sg64
(lp2395
S'None'
p2396
asbasbasbag57
(g73
g59
NtRp2397
(dp2398
g62
(dp2399
sg71
g67
sg64
(lp2400
g57
(g78
g59
NtRp2401
(dp2402
g62
(dp2403
g82
g83
ssg71
g2397
sg64
(lp2404
S'url'
p2405
asbag57
(g78
g59
NtRp2406
(dp2407
g62
(dp2408
g89
g90
ssg71
g2397
sg64
(lp2409
S':'
asbag57
(g78
g59
NtRp2410
(dp2411
g62
(dp2412
sg71
g2397
sg64
(lp2413
g57
(g58
g59
NtRp2414
(dp2415
g62
(dp2416
g70
I5
ssg71
g2410
sg64
(lp2417
g1188
asbasbasbag57
(g73
g59
NtRp2418
(dp2419
g62
(dp2420
sg71
g67
sg64
(lp2421
g57
(g78
g59
NtRp2422
(dp2423
g62
(dp2424
g82
g83
ssg71
g2418
sg64
(lp2425
S'utcnow'
p2426
asbag57
(g78
g59
NtRp2427
(dp2428
g62
(dp2429
g89
g90
ssg71
g2418
sg64
(lp2430
S':'
asbag57
(g78
g59
NtRp2431
(dp2432
g62
(dp2433
sg71
g2418
sg64
(lp2434
g57
(g58
g59
NtRp2435
(dp2436
g62
(dp2437
g70
I5
ssg71
g2431
sg64
(lp2438
S'datetime.datetime(2013, 2, 23, 21, 16, 26, 692000)'
p2439
asbasbasbag57
(g73
g59
NtRp2440
(dp2441
g62
(dp2442
sg71
g67
sg64
(lp2443
g57
(g78
g59
NtRp2444
(dp2445
g62
(dp2446
g82
g83
ssg71
g2440
sg64
(lp2447
S'uuid'
p2448
asbag57
(g78
g59
NtRp2449
(dp2450
g62
(dp2451
g89
g90
ssg71
g2440
sg64
(lp2452
S':'
asbag57
(g78
g59
NtRp2453
(dp2454
g62
(dp2455
sg71
g2440
sg64
(lp2456
g57
(g58
g59
NtRp2457
(dp2458
g62
(dp2459
g70
I5
ssg71
g2453
sg64
(lp2460
S'PFM_Web/127.0.0.1.2013-02-23.18-16-26.781b5557-277d-4c68-a448-5be540fe0825'
p2461
asbasbasbag57
(g73
g59
NtRp2462
(dp2463
g62
(dp2464
sg71
g67
sg64
(lp2465
g57
(g78
g59
NtRp2466
(dp2467
g62
(dp2468
g82
g83
ssg71
g2462
sg64
(lp2469
S'vars'
p2470
asbag57
(g78
g59
NtRp2471
(dp2472
g62
(dp2473
g89
g90
ssg71
g2462
sg64
(lp2474
S':'
asbag57
(g78
g59
NtRp2475
(dp2476
g62
(dp2477
sg71
g2462
sg64
(lp2478
g57
(g58
g59
NtRp2479
(dp2480
g62
(dp2481
g70
I5
ssg71
g2475
sg64
(lp2482
g57
(g66
g59
NtRp2483
(dp2484
g62
(dp2485
g70
I4
ssg71
Nsg64
(lp2486
sbasbasbasbag57
(g73
g59
NtRp2487
(dp2488
g62
(dp2489
sg71
g67
sg64
(lp2490
g57
(g78
g59
NtRp2491
(dp2492
g62
(dp2493
g82
g83
ssg71
g2487
sg64
(lp2494
S'wsgi'
p2495
asbag57
(g78
g59
NtRp2496
(dp2497
g62
(dp2498
g89
g90
ssg71
g2487
sg64
(lp2499
S':'
asbag57
(g78
g59
NtRp2500
(dp2501
g62
(dp2502
sg71
g2487
sg64
(lp2503
g57
(g58
g59
NtRp2504
(dp2505
g62
(dp2506
g70
I5
ssg71
g2500
sg64
(lp2507
g57
(g66
g59
NtRp2508
(dp2509
g62
(dp2510
g70
I4
ssg71
Nsg64
(lp2511
g57
(g73
g59
NtRp2512
(dp2513
g62
(dp2514
sg71
g2508
sg64
(lp2515
g57
(g78
g59
NtRp2516
(dp2517
g62
(dp2518
g82
g83
ssg71
g2512
sg64
(lp2519
S'environ'
p2520
asbag57
(g78
g59
NtRp2521
(dp2522
g62
(dp2523
g89
g90
ssg71
g2512
sg64
(lp2524
S':'
asbag57
(g78
g59
NtRp2525
(dp2526
g62
(dp2527
sg71
g2512
sg64
(lp2528
g57
(g58
g59
NtRp2529
(dp2530
g62
(dp2531
g70
I4
ssg71
g2525
sg64
(lp2532
g57
(g66
g59
NtRp2533
(dp2534
g62
(dp2535
g70
I3
ssg71
Nsg64
(lp2536
g57
(g73
g59
NtRp2537
(dp2538
g62
(dp2539
sg71
g2533
sg64
(lp2540
g57
(g78
g59
NtRp2541
(dp2542
g62
(dp2543
g82
g83
ssg71
g2537
sg64
(lp2544
S'HTTP_ACCEPT'
p2545
asbag57
(g78
g59
NtRp2546
(dp2547
g62
(dp2548
g89
g90
ssg71
g2537
sg64
(lp2549
S':'
asbag57
(g78
g59
NtRp2550
(dp2551
g62
(dp2552
sg71
g2537
sg64
(lp2553
g57
(g58
g59
NtRp2554
(dp2555
g62
(dp2556
g70
I3
ssg71
g2550
sg64
(lp2557
g842
asbasbasbag57
(g73
g59
NtRp2558
(dp2559
g62
(dp2560
sg71
g2533
sg64
(lp2561
g57
(g78
g59
NtRp2562
(dp2563
g62
(dp2564
g82
g83
ssg71
g2558
sg64
(lp2565
S'HTTP_ACCEPT_ENCODING'
p2566
asbag57
(g78
g59
NtRp2567
(dp2568
g62
(dp2569
g89
g90
ssg71
g2558
sg64
(lp2570
S':'
asbag57
(g78
g59
NtRp2571
(dp2572
g62
(dp2573
sg71
g2558
sg64
(lp2574
g57
(g58
g59
NtRp2575
(dp2576
g62
(dp2577
g70
I3
ssg71
g2571
sg64
(lp2578
g864
asbasbasbag57
(g73
g59
NtRp2579
(dp2580
g62
(dp2581
sg71
g2533
sg64
(lp2582
g57
(g78
g59
NtRp2583
(dp2584
g62
(dp2585
g82
g83
ssg71
g2579
sg64
(lp2586
S'HTTP_ACCEPT_LANGUAGE'
p2587
asbag57
(g78
g59
NtRp2588
(dp2589
g62
(dp2590
g89
g90
ssg71
g2579
sg64
(lp2591
S':'
asbag57
(g78
g59
NtRp2592
(dp2593
g62
(dp2594
sg71
g2579
sg64
(lp2595
g57
(g58
g59
NtRp2596
(dp2597
g62
(dp2598
g70
I3
ssg71
g2592
sg64
(lp2599
g886
asbasbasbag57
(g73
g59
NtRp2600
(dp2601
g62
(dp2602
sg71
g2533
sg64
(lp2603
g57
(g78
g59
NtRp2604
(dp2605
g62
(dp2606
g82
g83
ssg71
g2600
sg64
(lp2607
S'HTTP_CONNECTION'
p2608
asbag57
(g78
g59
NtRp2609
(dp2610
g62
(dp2611
g89
g90
ssg71
g2600
sg64
(lp2612
S':'
asbag57
(g78
g59
NtRp2613
(dp2614
g62
(dp2615
sg71
g2600
sg64
(lp2616
g57
(g58
g59
NtRp2617
(dp2618
g62
(dp2619
g70
I3
ssg71
g2613
sg64
(lp2620
g908
asbasbasbag57
(g73
g59
NtRp2621
(dp2622
g62
(dp2623
sg71
g2533
sg64
(lp2624
g57
(g78
g59
NtRp2625
(dp2626
g62
(dp2627
g82
g83
ssg71
g2621
sg64
(lp2628
S'HTTP_COOKIE'
p2629
asbag57
(g78
g59
NtRp2630
(dp2631
g62
(dp2632
g89
g90
ssg71
g2621
sg64
(lp2633
S':'
asbag57
(g78
g59
NtRp2634
(dp2635
g62
(dp2636
sg71
g2621
sg64
(lp2637
g57
(g58
g59
NtRp2638
(dp2639
g62
(dp2640
g70
I3
ssg71
g2634
sg64
(lp2641
g930
asbasbasbag57
(g73
g59
NtRp2642
(dp2643
g62
(dp2644
sg71
g2533
sg64
(lp2645
g57
(g78
g59
NtRp2646
(dp2647
g62
(dp2648
g82
g83
ssg71
g2642
sg64
(lp2649
S'HTTP_DNT'
p2650
asbag57
(g78
g59
NtRp2651
(dp2652
g62
(dp2653
g89
g90
ssg71
g2642
sg64
(lp2654
S':'
asbag57
(g78
g59
NtRp2655
(dp2656
g62
(dp2657
sg71
g2642
sg64
(lp2658
g57
(g58
g59
NtRp2659
(dp2660
g62
(dp2661
g70
I3
ssg71
g2655
sg64
(lp2662
S'1'
asbasbasbag57
(g73
g59
NtRp2663
(dp2664
g62
(dp2665
sg71
g2533
sg64
(lp2666
g57
(g78
g59
NtRp2667
(dp2668
g62
(dp2669
g82
g83
ssg71
g2663
sg64
(lp2670
S'HTTP_HOST'
p2671
asbag57
(g78
g59
NtRp2672
(dp2673
g62
(dp2674
g89
g90
ssg71
g2663
sg64
(lp2675
S':'
asbag57
(g78
g59
NtRp2676
(dp2677
g62
(dp2678
sg71
g2663
sg64
(lp2679
g57
(g58
g59
NtRp2680
(dp2681
g62
(dp2682
g70
I3
ssg71
g2676
sg64
(lp2683
g973
asbasbasbag57
(g73
g59
NtRp2684
(dp2685
g62
(dp2686
sg71
g2533
sg64
(lp2687
g57
(g78
g59
NtRp2688
(dp2689
g62
(dp2690
g82
g83
ssg71
g2684
sg64
(lp2691
S'HTTP_USER_AGENT'
p2692
asbag57
(g78
g59
NtRp2693
(dp2694
g62
(dp2695
g89
g90
ssg71
g2684
sg64
(lp2696
S':'
asbag57
(g78
g59
NtRp2697
(dp2698
g62
(dp2699
sg71
g2684
sg64
(lp2700
g57
(g58
g59
NtRp2701
(dp2702
g62
(dp2703
g70
I3
ssg71
g2697
sg64
(lp2704
g995
asbasbasbag57
(g73
g59
NtRp2705
(dp2706
g62
(dp2707
sg71
g2533
sg64
(lp2708
g57
(g78
g59
NtRp2709
(dp2710
g62
(dp2711
g82
g83
ssg71
g2705
sg64
(lp2712
S'PATH_INFO'
p2713
asbag57
(g78
g59
NtRp2714
(dp2715
g62
(dp2716
g89
g90
ssg71
g2705
sg64
(lp2717
S':'
asbag57
(g78
g59
NtRp2718
(dp2719
g62
(dp2720
sg71
g2705
sg64
(lp2721
g57
(g58
g59
NtRp2722
(dp2723
g62
(dp2724
g70
I3
ssg71
g2718
sg64
(lp2725
g1188
asbasbasbag57
(g73
g59
NtRp2726
(dp2727
g62
(dp2728
sg71
g2533
sg64
(lp2729
g57
(g78
g59
NtRp2730
(dp2731
g62
(dp2732
g82
g83
ssg71
g2726
sg64
(lp2733
S'QUERY_STRING'
p2734
asbag57
(g78
g59
NtRp2735
(dp2736
g62
(dp2737
g89
g90
ssg71
g2726
sg64
(lp2738
S':'
asbag57
(g78
g59
NtRp2739
(dp2740
g62
(dp2741
sg71
g2726
sg64
(lp2742
g57
(g58
g59
NtRp2743
(dp2744
g62
(dp2745
g70
I3
ssg71
g2739
sg64
(lp2746
S''
asbasbasbag57
(g73
g59
NtRp2747
(dp2748
g62
(dp2749
sg71
g2533
sg64
(lp2750
g57
(g78
g59
NtRp2751
(dp2752
g62
(dp2753
g82
g83
ssg71
g2747
sg64
(lp2754
S'REMOTE_ADDR'
p2755
asbag57
(g78
g59
NtRp2756
(dp2757
g62
(dp2758
g89
g90
ssg71
g2747
sg64
(lp2759
S':'
asbag57
(g78
g59
NtRp2760
(dp2761
g62
(dp2762
sg71
g2747
sg64
(lp2763
g57
(g58
g59
NtRp2764
(dp2765
g62
(dp2766
g70
I3
ssg71
g2760
sg64
(lp2767
g212
asbasbasbag57
(g73
g59
NtRp2768
(dp2769
g62
(dp2770
sg71
g2533
sg64
(lp2771
g57
(g78
g59
NtRp2772
(dp2773
g62
(dp2774
g82
g83
ssg71
g2768
sg64
(lp2775
S'REMOTE_PORT'
p2776
asbag57
(g78
g59
NtRp2777
(dp2778
g62
(dp2779
g89
g90
ssg71
g2768
sg64
(lp2780
S':'
asbag57
(g78
g59
NtRp2781
(dp2782
g62
(dp2783
sg71
g2768
sg64
(lp2784
g57
(g58
g59
NtRp2785
(dp2786
g62
(dp2787
g70
I3
ssg71
g2781
sg64
(lp2788
g1252
asbasbasbag57
(g73
g59
NtRp2789
(dp2790
g62
(dp2791
sg71
g2533
sg64
(lp2792
g57
(g78
g59
NtRp2793
(dp2794
g62
(dp2795
g82
g83
ssg71
g2789
sg64
(lp2796
S'REQUEST_METHOD'
p2797
asbag57
(g78
g59
NtRp2798
(dp2799
g62
(dp2800
g89
g90
ssg71
g2789
sg64
(lp2801
S':'
asbag57
(g78
g59
NtRp2802
(dp2803
g62
(dp2804
sg71
g2789
sg64
(lp2805
g57
(g58
g59
NtRp2806
(dp2807
g62
(dp2808
g70
I3
ssg71
g2802
sg64
(lp2809
g1274
asbasbasbag57
(g73
g59
NtRp2810
(dp2811
g62
(dp2812
sg71
g2533
sg64
(lp2813
g57
(g78
g59
NtRp2814
(dp2815
g62
(dp2816
g82
g83
ssg71
g2810
sg64
(lp2817
S'REQUEST_URI'
p2818
asbag57
(g78
g59
NtRp2819
(dp2820
g62
(dp2821
g89
g90
ssg71
g2810
sg64
(lp2822
S':'
asbag57
(g78
g59
NtRp2823
(dp2824
g62
(dp2825
sg71
g2810
sg64
(lp2826
g57
(g58
g59
NtRp2827
(dp2828
g62
(dp2829
g70
I3
ssg71
g2823
sg64
(lp2830
g1188
asbasbasbag57
(g73
g59
NtRp2831
(dp2832
g62
(dp2833
sg71
g2533
sg64
(lp2834
g57
(g78
g59
NtRp2835
(dp2836
g62
(dp2837
g82
g83
ssg71
g2831
sg64
(lp2838
S'SCRIPT_NAME'
p2839
asbag57
(g78
g59
NtRp2840
(dp2841
g62
(dp2842
g89
g90
ssg71
g2831
sg64
(lp2843
S':'
asbag57
(g78
g59
NtRp2844
(dp2845
g62
(dp2846
sg71
g2831
sg64
(lp2847
g57
(g58
g59
NtRp2848
(dp2849
g62
(dp2850
g70
I3
ssg71
g2844
sg64
(lp2851
S''
asbasbasbag57
(g73
g59
NtRp2852
(dp2853
g62
(dp2854
sg71
g2533
sg64
(lp2855
g57
(g78
g59
NtRp2856
(dp2857
g62
(dp2858
g82
g83
ssg71
g2852
sg64
(lp2859
S'SERVER_NAME'
p2860
asbag57
(g78
g59
NtRp2861
(dp2862
g62
(dp2863
g89
g90
ssg71
g2852
sg64
(lp2864
S':'
asbag57
(g78
g59
NtRp2865
(dp2866
g62
(dp2867
sg71
g2852
sg64
(lp2868
g57
(g58
g59
NtRp2869
(dp2870
g62
(dp2871
g70
I3
ssg71
g2865
sg64
(lp2872
g1338
asbasbasbag57
(g73
g59
NtRp2873
(dp2874
g62
(dp2875
sg71
g2533
sg64
(lp2876
g57
(g78
g59
NtRp2877
(dp2878
g62
(dp2879
g82
g83
ssg71
g2873
sg64
(lp2880
S'SERVER_PORT'
p2881
asbag57
(g78
g59
NtRp2882
(dp2883
g62
(dp2884
g89
g90
ssg71
g2873
sg64
(lp2885
S':'
asbag57
(g78
g59
NtRp2886
(dp2887
g62
(dp2888
sg71
g2873
sg64
(lp2889
g57
(g58
g59
NtRp2890
(dp2891
g62
(dp2892
g70
I3
ssg71
g2886
sg64
(lp2893
g1360
asbasbasbag57
(g73
g59
NtRp2894
(dp2895
g62
(dp2896
sg71
g2533
sg64
(lp2897
g57
(g78
g59
NtRp2898
(dp2899
g62
(dp2900
g82
g83
ssg71
g2894
sg64
(lp2901
S'SERVER_PROTOCOL'
p2902
asbag57
(g78
g59
NtRp2903
(dp2904
g62
(dp2905
g89
g90
ssg71
g2894
sg64
(lp2906
S':'
asbag57
(g78
g59
NtRp2907
(dp2908
g62
(dp2909
sg71
g2894
sg64
(lp2910
g57
(g58
g59
NtRp2911
(dp2912
g62
(dp2913
g70
I3
ssg71
g2907
sg64
(lp2914
g1382
asbasbasbag57
(g73
g59
NtRp2915
(dp2916
g62
(dp2917
sg71
g2533
sg64
(lp2918
g57
(g78
g59
NtRp2919
(dp2920
g62
(dp2921
g82
g83
ssg71
g2915
sg64
(lp2922
S'SERVER_SOFTWARE'
p2923
asbag57
(g78
g59
NtRp2924
(dp2925
g62
(dp2926
g89
g90
ssg71
g2915
sg64
(lp2927
S':'
asbag57
(g78
g59
NtRp2928
(dp2929
g62
(dp2930
sg71
g2915
sg64
(lp2931
g57
(g58
g59
NtRp2932
(dp2933
g62
(dp2934
g70
I3
ssg71
g2928
sg64
(lp2935
g1404
asbasbasbag57
(g73
g59
NtRp2936
(dp2937
g62
(dp2938
sg71
g2533
sg64
(lp2939
g57
(g78
g59
NtRp2940
(dp2941
g62
(dp2942
g82
g83
ssg71
g2936
sg64
(lp2943
S'WEB2PY_ORIGINAL_URI'
p2944
asbag57
(g78
g59
NtRp2945
(dp2946
g62
(dp2947
g89
g90
ssg71
g2936
sg64
(lp2948
S':'
asbag57
(g78
g59
NtRp2949
(dp2950
g62
(dp2951
sg71
g2936
sg64
(lp2952
g57
(g58
g59
NtRp2953
(dp2954
g62
(dp2955
g70
I3
ssg71
g2949
sg64
(lp2956
g1426
asbasbasbag57
(g73
g59
NtRp2957
(dp2958
g62
(dp2959
sg71
g2533
sg64
(lp2960
g57
(g78
g59
NtRp2961
(dp2962
g62
(dp2963
g82
g83
ssg71
g2957
sg64
(lp2964
S'wsgi.errors'
p2965
asbag57
(g78
g59
NtRp2966
(dp2967
g62
(dp2968
g89
g90
ssg71
g2957
sg64
(lp2969
S':'
asbag57
(g78
g59
NtRp2970
(dp2971
g62
(dp2972
sg71
g2957
sg64
(lp2973
g57
(g58
g59
NtRp2974
(dp2975
g62
(dp2976
g70
I3
ssg71
g2970
sg64
(lp2977
S"<open file '<stderr>', mode 'w' at 0x0000000001D871E0>"
p2978
asbasbasbag57
(g73
g59
NtRp2979
(dp2980
g62
(dp2981
sg71
g2533
sg64
(lp2982
g57
(g78
g59
NtRp2983
(dp2984
g62
(dp2985
g82
g83
ssg71
g2979
sg64
(lp2986
S'wsgi.file_wrapper'
p2987
asbag57
(g78
g59
NtRp2988
(dp2989
g62
(dp2990
g89
g90
ssg71
g2979
sg64
(lp2991
S':'
asbag57
(g78
g59
NtRp2992
(dp2993
g62
(dp2994
sg71
g2979
sg64
(lp2995
g57
(g58
g59
NtRp2996
(dp2997
g62
(dp2998
g70
I3
ssg71
g2992
sg64
(lp2999
S'<class wsgiref.util.FileWrapper at 0x00000000033AE7C8>'
p3000
asbasbasbag57
(g73
g59
NtRp3001
(dp3002
g62
(dp3003
sg71
g2533
sg64
(lp3004
g57
(g78
g59
NtRp3005
(dp3006
g62
(dp3007
g82
g83
ssg71
g3001
sg64
(lp3008
S'wsgi.input'
p3009
asbag57
(g78
g59
NtRp3010
(dp3011
g62
(dp3012
g89
g90
ssg71
g3001
sg64
(lp3013
S':'
asbag57
(g78
g59
NtRp3014
(dp3015
g62
(dp3016
sg71
g3001
sg64
(lp3017
g57
(g58
g59
NtRp3018
(dp3019
g62
(dp3020
g70
I3
ssg71
g3014
sg64
(lp3021
S'<cStringIO.StringO object at 0x00000000048133E8>'
p3022
asbasbasbag57
(g73
g59
NtRp3023
(dp3024
g62
(dp3025
sg71
g2533
sg64
(lp3026
g57
(g78
g59
NtRp3027
(dp3028
g62
(dp3029
g82
g83
ssg71
g3023
sg64
(lp3030
S'wsgi.multiprocess'
p3031
asbag57
(g78
g59
NtRp3032
(dp3033
g62
(dp3034
g89
g90
ssg71
g3023
sg64
(lp3035
S':'
asbag57
(g78
g59
NtRp3036
(dp3037
g62
(dp3038
sg71
g3023
sg64
(lp3039
g57
(g58
g59
NtRp3040
(dp3041
g62
(dp3042
g70
I3
ssg71
g3036
sg64
(lp3043
g100
asbasbasbag57
(g73
g59
NtRp3044
(dp3045
g62
(dp3046
sg71
g2533
sg64
(lp3047
g57
(g78
g59
NtRp3048
(dp3049
g62
(dp3050
g82
g83
ssg71
g3044
sg64
(lp3051
S'wsgi.multithread'
p3052
asbag57
(g78
g59
NtRp3053
(dp3054
g62
(dp3055
g89
g90
ssg71
g3044
sg64
(lp3056
S':'
asbag57
(g78
g59
NtRp3057
(dp3058
g62
(dp3059
sg71
g3044
sg64
(lp3060
g57
(g58
g59
NtRp3061
(dp3062
g62
(dp3063
g70
I3
ssg71
g3057
sg64
(lp3064
g1643
asbasbasbag57
(g73
g59
NtRp3065
(dp3066
g62
(dp3067
sg71
g2533
sg64
(lp3068
g57
(g78
g59
NtRp3069
(dp3070
g62
(dp3071
g82
g83
ssg71
g3065
sg64
(lp3072
S'wsgi.run_once'
p3073
asbag57
(g78
g59
NtRp3074
(dp3075
g62
(dp3076
g89
g90
ssg71
g3065
sg64
(lp3077
S':'
asbag57
(g78
g59
NtRp3078
(dp3079
g62
(dp3080
sg71
g3065
sg64
(lp3081
g57
(g58
g59
NtRp3082
(dp3083
g62
(dp3084
g70
I3
ssg71
g3078
sg64
(lp3085
g100
asbasbasbag57
(g73
g59
NtRp3086
(dp3087
g62
(dp3088
sg71
g2533
sg64
(lp3089
g57
(g78
g59
NtRp3090
(dp3091
g62
(dp3092
g82
g83
ssg71
g3086
sg64
(lp3093
S'wsgi.url_scheme'
p3094
asbag57
(g78
g59
NtRp3095
(dp3096
g62
(dp3097
g89
g90
ssg71
g3086
sg64
(lp3098
S':'
asbag57
(g78
g59
NtRp3099
(dp3100
g62
(dp3101
sg71
g3086
sg64
(lp3102
g57
(g58
g59
NtRp3103
(dp3104
g62
(dp3105
g70
I3
ssg71
g3099
sg64
(lp3106
g1686
asbasbasbag57
(g73
g59
NtRp3107
(dp3108
g62
(dp3109
sg71
g2533
sg64
(lp3110
g57
(g78
g59
NtRp3111
(dp3112
g62
(dp3113
g82
g83
ssg71
g3107
sg64
(lp3114
S'wsgi.version'
p3115
asbag57
(g78
g59
NtRp3116
(dp3117
g62
(dp3118
g89
g90
ssg71
g3107
sg64
(lp3119
S':'
asbag57
(g78
g59
NtRp3120
(dp3121
g62
(dp3122
sg71
g3107
sg64
(lp3123
g57
(g58
g59
NtRp3124
(dp3125
g62
(dp3126
g70
I3
ssg71
g3120
sg64
(lp3127
S'1'
asbasbasbasbasbasbasbasbasbasbasbasbasbsS'frames'
p3128
(lp3129
(dp3130
S'file'
p3131
S'C:\\Users\\Juliano\\Documents\\Visual Studio 2012\\Projects\\PFM-Web\\gluon\\restricted.py'
p3132
sS'dump'
p3133
(dp3134
S'environment'
p3135
S"{'A': <class 'gluon.html.A'>, 'Auth': <class 'gluon.tools.Auth'>, 'B': <class 'gluon.html.B'>, 'BEAUTIFY': <class 'gluon.html.BEAUTIFY'>, 'BODY': <class 'gluon.html.BODY'>, 'BR': <class 'gluon.html.BR'>, 'BUTTON': <class 'gluon.html.BUTTON'>, 'CAT': <class 'gluon.html.CAT'>, 'CENTER': <class 'gluon.html.CENTER'>, 'CLEANUP': <class 'gluon.validators.CLEANUP'>, ...}"
p3136
sS'ccode'
p3137
S'<code object <module> at 0000000004E18930, file ...cations\\PFM_Web\\controllers/expenses.py", line 3>'
p3138
ssS'lnum'
p3139
I212
sS'lines'
p3140
(dp3141
I207
S'    try:'
p3142
sI208
S'        if isinstance(code, types.CodeType):'
p3143
sI209
S'            ccode = code'
p3144
sI210
S'        else:'
p3145
sI211
S'            ccode = compile2(code, layer)'
p3146
sI212
S'        exec ccode in environment'
p3147
sI213
S'    except HTTP:'
p3148
sI214
S'        raise'
p3149
sI215
S'    except RestrictedError:'
p3150
sI216
S'        # do not encapsulate (obfuscate) the original RestrictedError'
p3151
ssS'call'
p3152
S"(code='# -*- coding: utf-8 -*-\\n\\ndef index():\\n    return...crud())\\n\\nresponse._vars=response._caller(addnew)\\n', environment={'A': <class 'gluon.html.A'>, 'Auth': <class 'gluon.tools.Auth'>, 'B': <class 'gluon.html.B'>, 'BEAUTIFY': <class 'gluon.html.BEAUTIFY'>, 'BODY': <class 'gluon.html.BODY'>, 'BR': <class 'gluon.html.BR'>, 'BUTTON': <class 'gluon.html.BUTTON'>, 'CAT': <class 'gluon.html.CAT'>, 'CENTER': <class 'gluon.html.CENTER'>, 'CLEANUP': <class 'gluon.validators.CLEANUP'>, ...}, layer=r'C:\\Users\\Juliano\\Documents\\Visual Studio 2012\\Pr...-Web\\applications\\PFM_Web\\controllers/expenses.py')"
p3153
sS'func'
p3154
S'restricted'
p3155
sa(dp3156
g3131
S'C:\\Users\\Juliano\\Documents\\Visual Studio 2012\\Projects\\PFM-Web\\applications\\PFM_Web\\controllers\\expenses.py'
p3157
sg3133
(dp3158
sg3139
I65
sg3140
(dp3159
I54
S'    http://..../[app]/default/data/update/[table]/[id]'
p3160
sI55
S'    http://..../[app]/default/data/delete/[table]/[id]'
p3161
sI56
S'    http://..../[app]/default/data/select/[table]'
p3162
sI57
S'    http://..../[app]/default/data/search/[table]'
p3163
sI58
S'    but URLs must be signed, i.e. linked with'
p3164
sI59
S"      A('table',_href=URL('data/tables',user_signature=True))"
p3165
sI60
S'    or with the signed load operator'
p3166
sI61
S"      LOAD('default','data.load',args='tables',ajax=True,user_signature=True)"
p3167
sI62
S'    """'
p3168
sI63
S'    return dict(form=crud())'
p3169
ssg3152
S'()'
p3170
sg3154
S'<module>'
p3171
sa(dp3172
g3131
S'C:\\Users\\Juliano\\Documents\\Visual Studio 2012\\Projects\\PFM-Web\\gluon\\globals.py'
p3173
sg3133
(dp3174
S'self'
p3175
S'undefined'
p3176
sS'f'
S'<function addnew>'
p3177
ssg3139
I193
sg3140
(dp3178
I192
S'        self._vars = None'
p3179
sI193
S'        self._caller = lambda f: f()'
p3180
sI194
S'        self._view_environment = None'
p3181
sI195
S'        self._custom_commit = None'
p3182
sI196
S'        self._custom_rollback = None'
p3183
sI197
S''
sI188
S'        self.menu = []             # used by the default view layout'
p3184
sI189
S'        self.files = []            # used by web2py_ajax.html'
p3185
sI190
S'        self.generic_patterns = []  # patterns to allow generic views'
p3186
sI191
S"        self.delimiters = ('{{', '}}')"
p3187
ssg3152
S'(f=<function addnew>)'
p3188
sg3154
S'<lambda>'
p3189
sa(dp3190
g3131
S'C:\\Users\\Juliano\\Documents\\Visual Studio 2012\\Projects\\PFM-Web\\applications\\PFM_Web\\controllers\\expenses.py'
p3191
sg3133
(dp3192
S'global db'
p3193
S'<DAL uri="sqlite://storage.sqlite">'
p3194
sS'global SQLFORM'
p3195
S"<class 'gluon.sqlhtml.SQLFORM'>"
p3196
sS'db.person'
p3197
g3176
sS'form'
p3198
g3176
ssg3139
I7
sg3140
(dp3199
I2
S''
sI3
S'def index():'
p3200
sI4
S"    return dict(message=T('Hello World'))"
p3201
sI5
S''
sI6
S'def addnew():'
p3202
sI7
S'    form = SQLFORM(db.person)'
p3203
sI8
S'    if form.process().accepted:'
p3204
sI9
S"        response.flash = 'Item added'"
p3205
sI10
S'    elif form.errors:'
p3206
sI11
S"        response.flash = 'Errors detected'"
p3207
ssg3152
S'()'
p3208
sg3154
S'addnew'
p3209
sa(dp3210
g3131
S'C:\\Users\\Juliano\\Documents\\Visual Studio 2012\\Projects\\PFM-Web\\gluon\\dal.py'
p3211
sg3133
(dp3212
S'self'
p3213
S'<DAL uri="sqlite://storage.sqlite">'
p3214
sS'global ogetattr'
p3215
S"<slot wrapper '__getattribute__' of 'object' objects>"
p3216
sS'key'
p3217
S"'person'"
p3218
ssg3139
I7255
sg3140
(dp3219
I7250
S'    def __getattr__(self, key):'
p3220
sI7251
S"        if ogetattr(self,'_lazy_tables') and \\"
p3221
sI7252
S"                key in ogetattr(self,'_LAZY_TABLES'):"
p3222
sI7253
S'            tablename, fields, args = self._LAZY_TABLES.pop(key)'
p3223
sI7254
S'            return self.lazy_define_table(tablename,*fields,**args)'
p3224
sI7255
S'        return ogetattr(self, key)'
p3225
sI7256
S''
sI7257
S'    def __setitem__(self, key, value):'
p3226
sI7258
S'        osetattr(self, str(key), value)'
p3227
sI7259
S''
ssg3152
S'(self=<DAL uri="sqlite://storage.sqlite">, key=\'person\')'
p3228
sg3154
S'__getattr__'
p3229
sasS'pyver'
p3230
S'Python 2.7.3: C:\\Python27\\python.exe'
p3231
sS'session'
p3232
g57
(g58
g59
NtRp3233
(dp3234
g62
(dp3235
sg64
(lp3236
g57
(g66
g59
NtRp3237
(dp3238
g62
(dp3239
g70
I5
ssg71
Nsg64
(lp3240
sbasbsS'etype'
p3241
S"<type 'exceptions.AttributeError'>"
p3242
sS'date'
p3243
S'Sat Feb 23 18:16:26 2013'
p3244
sS'response'
p3245
g57
(g58
g59
NtRp3246
(dp3247
g62
(dp3248
sg64
(lp3249
g57
(g66
g59
NtRp3250
(dp3251
g62
(dp3252
g70
I5
ssg71
Nsg64
(lp3253
g57
(g73
g59
NtRp3254
(dp3255
g62
(dp3256
sg71
g3250
sg64
(lp3257
g57
(g78
g59
NtRp3258
(dp3259
g62
(dp3260
g82
g83
ssg71
g3254
sg64
(lp3261
g155
asbag57
(g78
g59
NtRp3262
(dp3263
g62
(dp3264
g89
g90
ssg71
g3254
sg64
(lp3265
S':'
asbag57
(g78
g59
NtRp3266
(dp3267
g62
(dp3268
sg71
g3254
sg64
(lp3269
g57
(g58
g59
NtRp3270
(dp3271
g62
(dp3272
g70
I5
ssg71
g3266
sg64
(lp3273
S'<cStringIO.StringO object at 0x00000000054C3880>'
p3274
asbasbasbag57
(g73
g59
NtRp3275
(dp3276
g62
(dp3277
sg71
g3250
sg64
(lp3278
g57
(g78
g59
NtRp3279
(dp3280
g62
(dp3281
g82
g83
ssg71
g3275
sg64
(lp3282
g243
asbag57
(g78
g59
NtRp3283
(dp3284
g62
(dp3285
g89
g90
ssg71
g3275
sg64
(lp3286
S':'
asbag57
(g78
g59
NtRp3287
(dp3288
g62
(dp3289
sg71
g3275
sg64
(lp3290
g57
(g58
g59
NtRp3291
(dp3292
g62
(dp3293
g70
I5
ssg71
g3287
sg64
(lp3294
g57
(g66
g59
NtRp3295
(dp3296
g62
(dp3297
g70
I4
ssg71
Nsg64
(lp3298
g57
(g73
g59
NtRp3299
(dp3300
g62
(dp3301
sg71
g3295
sg64
(lp3302
g57
(g78
g59
NtRp3303
(dp3304
g62
(dp3305
g82
g83
ssg71
g3299
sg64
(lp3306
S'session_id_pfm_web'
p3307
asbag57
(g78
g59
NtRp3308
(dp3309
g62
(dp3310
g89
g90
ssg71
g3299
sg64
(lp3311
S':'
asbag57
(g78
g59
NtRp3312
(dp3313
g62
(dp3314
sg71
g3299
sg64
(lp3315
g57
(g58
g59
NtRp3316
(dp3317
g62
(dp3318
g70
I4
ssg71
g3312
sg64
(lp3319
g475
ag57
(g66
g59
NtRp3320
(dp3321
g62
(dp3322
g70
I3
ssg71
Nsg64
(lp3323
g57
(g73
g59
NtRp3324
(dp3325
g62
(dp3326
sg71
g3320
sg64
(lp3327
g57
(g78
g59
NtRp3328
(dp3329
g62
(dp3330
g82
g83
ssg71
g3324
sg64
(lp3331
g294
asbag57
(g78
g59
NtRp3332
(dp3333
g62
(dp3334
g89
g90
ssg71
g3324
sg64
(lp3335
S':'
asbag57
(g78
g59
NtRp3336
(dp3337
g62
(dp3338
sg71
g3324
sg64
(lp3339
g57
(g58
g59
NtRp3340
(dp3341
g62
(dp3342
g70
I3
ssg71
g3336
sg64
(lp3343
S''
asbasbasbag57
(g73
g59
NtRp3344
(dp3345
g62
(dp3346
sg71
g3320
sg64
(lp3347
g57
(g78
g59
NtRp3348
(dp3349
g62
(dp3350
g82
g83
ssg71
g3344
sg64
(lp3351
g315
asbag57
(g78
g59
NtRp3352
(dp3353
g62
(dp3354
g89
g90
ssg71
g3344
sg64
(lp3355
S':'
asbag57
(g78
g59
NtRp3356
(dp3357
g62
(dp3358
sg71
g3344
sg64
(lp3359
g57
(g58
g59
NtRp3360
(dp3361
g62
(dp3362
g70
I3
ssg71
g3356
sg64
(lp3363
S''
asbasbasbag57
(g73
g59
NtRp3364
(dp3365
g62
(dp3366
sg71
g3320
sg64
(lp3367
g57
(g78
g59
NtRp3368
(dp3369
g62
(dp3370
g82
g83
ssg71
g3364
sg64
(lp3371
g336
asbag57
(g78
g59
NtRp3372
(dp3373
g62
(dp3374
g89
g90
ssg71
g3364
sg64
(lp3375
S':'
asbag57
(g78
g59
NtRp3376
(dp3377
g62
(dp3378
sg71
g3364
sg64
(lp3379
g57
(g58
g59
NtRp3380
(dp3381
g62
(dp3382
g70
I3
ssg71
g3376
sg64
(lp3383
S''
asbasbasbag57
(g73
g59
NtRp3384
(dp3385
g62
(dp3386
sg71
g3320
sg64
(lp3387
g57
(g78
g59
NtRp3388
(dp3389
g62
(dp3390
g82
g83
ssg71
g3384
sg64
(lp3391
g357
asbag57
(g78
g59
NtRp3392
(dp3393
g62
(dp3394
g89
g90
ssg71
g3384
sg64
(lp3395
S':'
asbag57
(g78
g59
NtRp3396
(dp3397
g62
(dp3398
sg71
g3384
sg64
(lp3399
g57
(g58
g59
NtRp3400
(dp3401
g62
(dp3402
g70
I3
ssg71
g3396
sg64
(lp3403
S''
asbasbasbag57
(g73
g59
NtRp3404
(dp3405
g62
(dp3406
sg71
g3320
sg64
(lp3407
g57
(g78
g59
NtRp3408
(dp3409
g62
(dp3410
g82
g83
ssg71
g3404
sg64
(lp3411
g378
asbag57
(g78
g59
NtRp3412
(dp3413
g62
(dp3414
g89
g90
ssg71
g3404
sg64
(lp3415
S':'
asbag57
(g78
g59
NtRp3416
(dp3417
g62
(dp3418
sg71
g3404
sg64
(lp3419
g57
(g58
g59
NtRp3420
(dp3421
g62
(dp3422
g70
I3
ssg71
g3416
sg64
(lp3423
S''
asbasbasbag57
(g73
g59
NtRp3424
(dp3425
g62
(dp3426
sg71
g3320
sg64
(lp3427
g57
(g78
g59
NtRp3428
(dp3429
g62
(dp3430
g82
g83
ssg71
g3424
sg64
(lp3431
g399
asbag57
(g78
g59
NtRp3432
(dp3433
g62
(dp3434
g89
g90
ssg71
g3424
sg64
(lp3435
S':'
asbag57
(g78
g59
NtRp3436
(dp3437
g62
(dp3438
sg71
g3424
sg64
(lp3439
g57
(g58
g59
NtRp3440
(dp3441
g62
(dp3442
g70
I3
ssg71
g3436
sg64
(lp3443
S'/'
asbasbasbag57
(g73
g59
NtRp3444
(dp3445
g62
(dp3446
sg71
g3320
sg64
(lp3447
g57
(g78
g59
NtRp3448
(dp3449
g62
(dp3450
g82
g83
ssg71
g3444
sg64
(lp3451
g420
asbag57
(g78
g59
NtRp3452
(dp3453
g62
(dp3454
g89
g90
ssg71
g3444
sg64
(lp3455
S':'
asbag57
(g78
g59
NtRp3456
(dp3457
g62
(dp3458
sg71
g3444
sg64
(lp3459
g57
(g58
g59
NtRp3460
(dp3461
g62
(dp3462
g70
I3
ssg71
g3456
sg64
(lp3463
S''
asbasbasbag57
(g73
g59
NtRp3464
(dp3465
g62
(dp3466
sg71
g3320
sg64
(lp3467
g57
(g78
g59
NtRp3468
(dp3469
g62
(dp3470
g82
g83
ssg71
g3464
sg64
(lp3471
g441
asbag57
(g78
g59
NtRp3472
(dp3473
g62
(dp3474
g89
g90
ssg71
g3464
sg64
(lp3475
S':'
asbag57
(g78
g59
NtRp3476
(dp3477
g62
(dp3478
sg71
g3464
sg64
(lp3479
g57
(g58
g59
NtRp3480
(dp3481
g62
(dp3482
g70
I3
ssg71
g3476
sg64
(lp3483
S''
asbasbasbasbasbasbasbasbasbasbasbag57
(g73
g59
NtRp3484
(dp3485
g62
(dp3486
sg71
g3250
sg64
(lp3487
g57
(g78
g59
NtRp3488
(dp3489
g62
(dp3490
g82
g83
ssg71
g3484
sg64
(lp3491
S'delimiters'
p3492
asbag57
(g78
g59
NtRp3493
(dp3494
g62
(dp3495
g89
g90
ssg71
g3484
sg64
(lp3496
S':'
asbag57
(g78
g59
NtRp3497
(dp3498
g62
(dp3499
sg71
g3484
sg64
(lp3500
g57
(g58
g59
NtRp3501
(dp3502
g62
(dp3503
g70
I5
ssg71
g3497
sg64
(lp3504
g57
(g66
g59
NtRp3505
(dp3506
g62
(dp3507
g70
I4
ssg71
Nsg64
(lp3508
g57
(g73
g59
NtRp3509
(dp3510
g62
(dp3511
sg71
g3505
sg64
(lp3512
g57
(g78
g59
NtRp3513
(dp3514
g62
(dp3515
sg71
g3509
sg64
(lp3516
g57
(g58
g59
NtRp3517
(dp3518
g62
(dp3519
g70
I4
ssg71
g3513
sg64
(lp3520
S'{{'
p3521
asbasbasbag57
(g73
g59
NtRp3522
(dp3523
g62
(dp3524
sg71
g3505
sg64
(lp3525
g57
(g78
g59
NtRp3526
(dp3527
g62
(dp3528
sg71
g3522
sg64
(lp3529
g57
(g58
g59
NtRp3530
(dp3531
g62
(dp3532
g70
I4
ssg71
g3526
sg64
(lp3533
S'}}'
p3534
asbasbasbasbasbasbasbag57
(g73
g59
NtRp3535
(dp3536
g62
(dp3537
sg71
g3250
sg64
(lp3538
g57
(g78
g59
NtRp3539
(dp3540
g62
(dp3541
g82
g83
ssg71
g3535
sg64
(lp3542
S'files'
p3543
asbag57
(g78
g59
NtRp3544
(dp3545
g62
(dp3546
g89
g90
ssg71
g3535
sg64
(lp3547
S':'
asbag57
(g78
g59
NtRp3548
(dp3549
g62
(dp3550
sg71
g3535
sg64
(lp3551
g57
(g58
g59
NtRp3552
(dp3553
g62
(dp3554
g70
I5
ssg71
g3548
sg64
(lp3555
g57
(g66
g59
NtRp3556
(dp3557
g62
(dp3558
g70
I4
ssg71
Nsg64
(lp3559
sbasbasbasbag57
(g73
g59
NtRp3560
(dp3561
g62
(dp3562
sg71
g3250
sg64
(lp3563
g57
(g78
g59
NtRp3564
(dp3565
g62
(dp3566
g82
g83
ssg71
g3560
sg64
(lp3567
S'flash'
p3568
asbag57
(g78
g59
NtRp3569
(dp3570
g62
(dp3571
g89
g90
ssg71
g3560
sg64
(lp3572
S':'
asbag57
(g78
g59
NtRp3573
(dp3574
g62
(dp3575
sg71
g3560
sg64
(lp3576
g57
(g58
g59
NtRp3577
(dp3578
g62
(dp3579
g70
I5
ssg71
g3573
sg64
(lp3580
S''
asbasbasbag57
(g73
g59
NtRp3581
(dp3582
g62
(dp3583
sg71
g3250
sg64
(lp3584
g57
(g78
g59
NtRp3585
(dp3586
g62
(dp3587
g82
g83
ssg71
g3581
sg64
(lp3588
S'generic_patterns'
p3589
asbag57
(g78
g59
NtRp3590
(dp3591
g62
(dp3592
g89
g90
ssg71
g3581
sg64
(lp3593
S':'
asbag57
(g78
g59
NtRp3594
(dp3595
g62
(dp3596
sg71
g3581
sg64
(lp3597
g57
(g58
g59
NtRp3598
(dp3599
g62
(dp3600
g70
I5
ssg71
g3594
sg64
(lp3601
g57
(g66
g59
NtRp3602
(dp3603
g62
(dp3604
g70
I4
ssg71
Nsg64
(lp3605
g57
(g73
g59
NtRp3606
(dp3607
g62
(dp3608
sg71
g3602
sg64
(lp3609
g57
(g78
g59
NtRp3610
(dp3611
g62
(dp3612
sg71
g3606
sg64
(lp3613
g57
(g58
g59
NtRp3614
(dp3615
g62
(dp3616
g70
I4
ssg71
g3610
sg64
(lp3617
S'*'
asbasbasbasbasbasbasbag57
(g73
g59
NtRp3618
(dp3619
g62
(dp3620
sg71
g3250
sg64
(lp3621
g57
(g78
g59
NtRp3622
(dp3623
g62
(dp3624
g82
g83
ssg71
g3618
sg64
(lp3625
S'getStarted'
p3626
asbag57
(g78
g59
NtRp3627
(dp3628
g62
(dp3629
g89
g90
ssg71
g3618
sg64
(lp3630
S':'
asbag57
(g78
g59
NtRp3631
(dp3632
g62
(dp3633
sg71
g3618
sg64
(lp3634
g57
(g58
g59
NtRp3635
(dp3636
g62
(dp3637
g70
I5
ssg71
g3631
sg64
(lp3638
cgluon.languages
lazyT_unpickle
p3639
(S's\x11\x00\x00\x00Get started today'
tRp3640
asbasbasbag57
(g73
g59
NtRp3641
(dp3642
g62
(dp3643
sg71
g3250
sg64
(lp3644
g57
(g78
g59
NtRp3645
(dp3646
g62
(dp3647
g82
g83
ssg71
g3641
sg64
(lp3648
S'google_analytics_id'
p3649
asbag57
(g78
g59
NtRp3650
(dp3651
g62
(dp3652
g89
g90
ssg71
g3641
sg64
(lp3653
S':'
asbag57
(g78
g59
NtRp3654
(dp3655
g62
(dp3656
sg71
g3641
sg64
(lp3657
g57
(g58
g59
NtRp3658
(dp3659
g62
(dp3660
g70
I5
ssg71
g3654
sg64
(lp3661
S'None'
p3662
asbasbasbag57
(g73
g59
NtRp3663
(dp3664
g62
(dp3665
sg71
g3250
sg64
(lp3666
g57
(g78
g59
NtRp3667
(dp3668
g62
(dp3669
g82
g83
ssg71
g3663
sg64
(lp3670
S'headers'
p3671
asbag57
(g78
g59
NtRp3672
(dp3673
g62
(dp3674
g89
g90
ssg71
g3663
sg64
(lp3675
S':'
asbag57
(g78
g59
NtRp3676
(dp3677
g62
(dp3678
sg71
g3663
sg64
(lp3679
g57
(g58
g59
NtRp3680
(dp3681
g62
(dp3682
g70
I5
ssg71
g3676
sg64
(lp3683
g57
(g66
g59
NtRp3684
(dp3685
g62
(dp3686
g70
I4
ssg71
Nsg64
(lp3687
g57
(g73
g59
NtRp3688
(dp3689
g62
(dp3690
sg71
g3684
sg64
(lp3691
g57
(g78
g59
NtRp3692
(dp3693
g62
(dp3694
g82
g83
ssg71
g3688
sg64
(lp3695
S'X-Powered-By'
p3696
asbag57
(g78
g59
NtRp3697
(dp3698
g62
(dp3699
g89
g90
ssg71
g3688
sg64
(lp3700
S':'
asbag57
(g78
g59
NtRp3701
(dp3702
g62
(dp3703
sg71
g3688
sg64
(lp3704
g57
(g58
g59
NtRp3705
(dp3706
g62
(dp3707
g70
I4
ssg71
g3701
sg64
(lp3708
S'web2py'
p3709
asbasbasbasbasbasbasbag57
(g73
g59
NtRp3710
(dp3711
g62
(dp3712
sg71
g3250
sg64
(lp3713
g57
(g78
g59
NtRp3714
(dp3715
g62
(dp3716
g82
g83
ssg71
g3710
sg64
(lp3717
S'logo'
p3718
asbag57
(g78
g59
NtRp3719
(dp3720
g62
(dp3721
g89
g90
ssg71
g3710
sg64
(lp3722
S':'
asbag57
(g78
g59
NtRp3723
(dp3724
g62
(dp3725
sg71
g3710
sg64
(lp3726
g57
(g58
g59
NtRp3727
(dp3728
g62
(dp3729
g70
I5
ssg71
g3723
sg64
(lp3730
g57
(cgluon.html
A
p3731
g59
NtRp3732
(dp3733
g62
(dp3734
S'_class'
p3735
S'brand'
p3736
sS'_href'
p3737
S'http://codeagranel.github.com/'
p3738
ssg71
Nsg64
(lp3739
g57
(cgluon.html
B
p3740
g59
NtRp3741
(dp3742
g62
(dp3743
sg71
g3732
sg64
(lp3744
S'Code'
p3745
ag57
(cgluon.html
SPAN
p3746
g59
NtRp3747
(dp3748
g62
(dp3749
sg71
g3741
sg64
(lp3750
S'-A-'
p3751
asbaS'Granel'
p3752
asbacgluon.html
XML_unpickle
p3753
(S's\r\x00\x00\x00&trade;&nbsp;'
tRp3754
asbasbasbasbag57
(g73
g59
NtRp3755
(dp3756
g62
(dp3757
sg71
g3250
sg64
(lp3758
g57
(g78
g59
NtRp3759
(dp3760
g62
(dp3761
g82
g83
ssg71
g3755
sg64
(lp3762
S'menu'
p3763
asbag57
(g78
g59
NtRp3764
(dp3765
g62
(dp3766
g89
g90
ssg71
g3755
sg64
(lp3767
S':'
asbag57
(g78
g59
NtRp3768
(dp3769
g62
(dp3770
sg71
g3755
sg64
(lp3771
g57
(g58
g59
NtRp3772
(dp3773
g62
(dp3774
g70
I5
ssg71
g3768
sg64
(lp3775
g57
(g66
g59
NtRp3776
(dp3777
g62
(dp3778
g70
I4
ssg71
Nsg64
(lp3779
g57
(g73
g59
NtRp3780
(dp3781
g62
(dp3782
sg71
g3776
sg64
(lp3783
g57
(g78
g59
NtRp3784
(dp3785
g62
(dp3786
sg71
g3780
sg64
(lp3787
g57
(g58
g59
NtRp3788
(dp3789
g62
(dp3790
g70
I4
ssg71
g3784
sg64
(lp3791
g57
(g66
g59
NtRp3792
(dp3793
g62
(dp3794
g70
I3
ssg71
Nsg64
(lp3795
g57
(g73
g59
NtRp3796
(dp3797
g62
(dp3798
sg71
g3792
sg64
(lp3799
g57
(g78
g59
NtRp3800
(dp3801
g62
(dp3802
sg71
g3796
sg64
(lp3803
g57
(g58
g59
NtRp3804
(dp3805
g62
(dp3806
g70
I3
ssg71
g3800
sg64
(lp3807
g3639
(S's\x04\x00\x00\x00Home'
tRp3808
asbasbasbag57
(g73
g59
NtRp3809
(dp3810
g62
(dp3811
sg71
g3792
sg64
(lp3812
g57
(g78
g59
NtRp3813
(dp3814
g62
(dp3815
sg71
g3809
sg64
(lp3816
g57
(g58
g59
NtRp3817
(dp3818
g62
(dp3819
g70
I3
ssg71
g3813
sg64
(lp3820
g100
asbasbasbag57
(g73
g59
NtRp3821
(dp3822
g62
(dp3823
sg71
g3792
sg64
(lp3824
g57
(g78
g59
NtRp3825
(dp3826
g62
(dp3827
sg71
g3821
sg64
(lp3828
g57
(g58
g59
NtRp3829
(dp3830
g62
(dp3831
g70
I3
ssg71
g3825
sg64
(lp3832
S'/PFM_Web/default/index'
p3833
asbasbasbag57
(g73
g59
NtRp3834
(dp3835
g62
(dp3836
sg71
g3792
sg64
(lp3837
g57
(g78
g59
NtRp3838
(dp3839
g62
(dp3840
sg71
g3834
sg64
(lp3841
g57
(g58
g59
NtRp3842
(dp3843
g62
(dp3844
g70
I3
ssg71
g3838
sg64
(lp3845
g57
(g66
g59
NtRp3846
(dp3847
g62
(dp3848
g70
I2
ssg71
Nsg64
(lp3849
sbasbasbasbasbasbasbasbag57
(g73
g59
NtRp3850
(dp3851
g62
(dp3852
sg71
g3776
sg64
(lp3853
g57
(g78
g59
NtRp3854
(dp3855
g62
(dp3856
sg71
g3850
sg64
(lp3857
g57
(g58
g59
NtRp3858
(dp3859
g62
(dp3860
g70
I4
ssg71
g3854
sg64
(lp3861
g57
(g66
g59
NtRp3862
(dp3863
g62
(dp3864
g70
I3
ssg71
Nsg64
(lp3865
g57
(g73
g59
NtRp3866
(dp3867
g62
(dp3868
sg71
g3862
sg64
(lp3869
g57
(g78
g59
NtRp3870
(dp3871
g62
(dp3872
sg71
g3866
sg64
(lp3873
g57
(g58
g59
NtRp3874
(dp3875
g62
(dp3876
g70
I3
ssg71
g3870
sg64
(lp3877
g3639
(S's\x08\x00\x00\x00Expenses'
tRp3878
asbasbasbag57
(g73
g59
NtRp3879
(dp3880
g62
(dp3881
sg71
g3862
sg64
(lp3882
g57
(g78
g59
NtRp3883
(dp3884
g62
(dp3885
sg71
g3879
sg64
(lp3886
g57
(g58
g59
NtRp3887
(dp3888
g62
(dp3889
g70
I3
ssg71
g3883
sg64
(lp3890
g100
asbasbasbag57
(g73
g59
NtRp3891
(dp3892
g62
(dp3893
sg71
g3862
sg64
(lp3894
g57
(g78
g59
NtRp3895
(dp3896
g62
(dp3897
sg71
g3891
sg64
(lp3898
g57
(g58
g59
NtRp3899
(dp3900
g62
(dp3901
g70
I3
ssg71
g3895
sg64
(lp3902
S'/PFM_Web/expenses/index'
p3903
asbasbasbag57
(g73
g59
NtRp3904
(dp3905
g62
(dp3906
sg71
g3862
sg64
(lp3907
g57
(g78
g59
NtRp3908
(dp3909
g62
(dp3910
sg71
g3904
sg64
(lp3911
g57
(g58
g59
NtRp3912
(dp3913
g62
(dp3914
g70
I3
ssg71
g3908
sg64
(lp3915
g57
(g66
g59
NtRp3916
(dp3917
g62
(dp3918
g70
I2
ssg71
Nsg64
(lp3919
sbasbasbasbasbasbasbasbag57
(g73
g59
NtRp3920
(dp3921
g62
(dp3922
sg71
g3776
sg64
(lp3923
g57
(g78
g59
NtRp3924
(dp3925
g62
(dp3926
sg71
g3920
sg64
(lp3927
g57
(g58
g59
NtRp3928
(dp3929
g62
(dp3930
g70
I4
ssg71
g3924
sg64
(lp3931
g57
(g66
g59
NtRp3932
(dp3933
g62
(dp3934
g70
I3
ssg71
Nsg64
(lp3935
g57
(g73
g59
NtRp3936
(dp3937
g62
(dp3938
sg71
g3932
sg64
(lp3939
g57
(g78
g59
NtRp3940
(dp3941
g62
(dp3942
sg71
g3936
sg64
(lp3943
g57
(g58
g59
NtRp3944
(dp3945
g62
(dp3946
g70
I3
ssg71
g3940
sg64
(lp3947
g3639
(S's\n\x00\x00\x00Categories'
tRp3948
asbasbasbag57
(g73
g59
NtRp3949
(dp3950
g62
(dp3951
sg71
g3932
sg64
(lp3952
g57
(g78
g59
NtRp3953
(dp3954
g62
(dp3955
sg71
g3949
sg64
(lp3956
g57
(g58
g59
NtRp3957
(dp3958
g62
(dp3959
g70
I3
ssg71
g3953
sg64
(lp3960
g100
asbasbasbag57
(g73
g59
NtRp3961
(dp3962
g62
(dp3963
sg71
g3932
sg64
(lp3964
g57
(g78
g59
NtRp3965
(dp3966
g62
(dp3967
sg71
g3961
sg64
(lp3968
g57
(g58
g59
NtRp3969
(dp3970
g62
(dp3971
g70
I3
ssg71
g3965
sg64
(lp3972
S'/PFM_Web/categories/index'
p3973
asbasbasbag57
(g73
g59
NtRp3974
(dp3975
g62
(dp3976
sg71
g3932
sg64
(lp3977
g57
(g78
g59
NtRp3978
(dp3979
g62
(dp3980
sg71
g3974
sg64
(lp3981
g57
(g58
g59
NtRp3982
(dp3983
g62
(dp3984
g70
I3
ssg71
g3978
sg64
(lp3985
g57
(g66
g59
NtRp3986
(dp3987
g62
(dp3988
g70
I2
ssg71
Nsg64
(lp3989
sbasbasbasbasbasbasbasbag57
(g73
g59
NtRp3990
(dp3991
g62
(dp3992
sg71
g3776
sg64
(lp3993
g57
(g78
g59
NtRp3994
(dp3995
g62
(dp3996
sg71
g3990
sg64
(lp3997
g57
(g58
g59
NtRp3998
(dp3999
g62
(dp4000
g70
I4
ssg71
g3994
sg64
(lp4001
g57
(g66
g59
NtRp4002
(dp4003
g62
(dp4004
g70
I3
ssg71
Nsg64
(lp4005
g57
(g73
g59
NtRp4006
(dp4007
g62
(dp4008
sg71
g4002
sg64
(lp4009
g57
(g78
g59
NtRp4010
(dp4011
g62
(dp4012
sg71
g4006
sg64
(lp4013
g57
(g58
g59
NtRp4014
(dp4015
g62
(dp4016
g70
I3
ssg71
g4010
sg64
(lp4017
g3639
(S's\x12\x00\x00\x00Methods of payment'
tRp4018
asbasbasbag57
(g73
g59
NtRp4019
(dp4020
g62
(dp4021
sg71
g4002
sg64
(lp4022
g57
(g78
g59
NtRp4023
(dp4024
g62
(dp4025
sg71
g4019
sg64
(lp4026
g57
(g58
g59
NtRp4027
(dp4028
g62
(dp4029
g70
I3
ssg71
g4023
sg64
(lp4030
g100
asbasbasbag57
(g73
g59
NtRp4031
(dp4032
g62
(dp4033
sg71
g4002
sg64
(lp4034
g57
(g78
g59
NtRp4035
(dp4036
g62
(dp4037
sg71
g4031
sg64
(lp4038
g57
(g58
g59
NtRp4039
(dp4040
g62
(dp4041
g70
I3
ssg71
g4035
sg64
(lp4042
S'/PFM_Web/methodsofpayment/index'
p4043
asbasbasbag57
(g73
g59
NtRp4044
(dp4045
g62
(dp4046
sg71
g4002
sg64
(lp4047
g57
(g78
g59
NtRp4048
(dp4049
g62
(dp4050
sg71
g4044
sg64
(lp4051
g57
(g58
g59
NtRp4052
(dp4053
g62
(dp4054
g70
I3
ssg71
g4048
sg64
(lp4055
g57
(g66
g59
NtRp4056
(dp4057
g62
(dp4058
g70
I2
ssg71
Nsg64
(lp4059
sbasbasbasbasbasbasbasbasbasbasbasbag57
(g73
g59
NtRp4060
(dp4061
g62
(dp4062
sg71
g3250
sg64
(lp4063
g57
(g78
g59
NtRp4064
(dp4065
g62
(dp4066
g82
g83
ssg71
g4060
sg64
(lp4067
S'meta'
p4068
asbag57
(g78
g59
NtRp4069
(dp4070
g62
(dp4071
g89
g90
ssg71
g4060
sg64
(lp4072
S':'
asbag57
(g78
g59
NtRp4073
(dp4074
g62
(dp4075
sg71
g4060
sg64
(lp4076
g57
(g58
g59
NtRp4077
(dp4078
g62
(dp4079
g70
I5
ssg71
g4073
sg64
(lp4080
g57
(g66
g59
NtRp4081
(dp4082
g62
(dp4083
g70
I4
ssg71
Nsg64
(lp4084
g57
(g73
g59
NtRp4085
(dp4086
g62
(dp4087
sg71
g4081
sg64
(lp4088
g57
(g78
g59
NtRp4089
(dp4090
g62
(dp4091
g82
g83
ssg71
g4085
sg64
(lp4092
S'author'
p4093
asbag57
(g78
g59
NtRp4094
(dp4095
g62
(dp4096
g89
g90
ssg71
g4085
sg64
(lp4097
S':'
asbag57
(g78
g59
NtRp4098
(dp4099
g62
(dp4100
sg71
g4085
sg64
(lp4101
g57
(g58
g59
NtRp4102
(dp4103
g62
(dp4104
g70
I4
ssg71
g4098
sg64
(lp4105
S'Juliano Souza <juliano.sdsouza@gmail.com>'
p4106
asbasbasbag57
(g73
g59
NtRp4107
(dp4108
g62
(dp4109
sg71
g4081
sg64
(lp4110
g57
(g78
g59
NtRp4111
(dp4112
g62
(dp4113
g82
g83
ssg71
g4107
sg64
(lp4114
S'description'
p4115
asbag57
(g78
g59
NtRp4116
(dp4117
g62
(dp4118
g89
g90
ssg71
g4107
sg64
(lp4119
S':'
asbag57
(g78
g59
NtRp4120
(dp4121
g62
(dp4122
sg71
g4107
sg64
(lp4123
g57
(g58
g59
NtRp4124
(dp4125
g62
(dp4126
g70
I4
ssg71
g4120
sg64
(lp4127
S'Your finances in a simpler way'
p4128
asbasbasbag57
(g73
g59
NtRp4129
(dp4130
g62
(dp4131
sg71
g4081
sg64
(lp4132
g57
(g78
g59
NtRp4133
(dp4134
g62
(dp4135
g82
g83
ssg71
g4129
sg64
(lp4136
S'generator'
p4137
asbag57
(g78
g59
NtRp4138
(dp4139
g62
(dp4140
g89
g90
ssg71
g4129
sg64
(lp4141
S':'
asbag57
(g78
g59
NtRp4142
(dp4143
g62
(dp4144
sg71
g4129
sg64
(lp4145
g57
(g58
g59
NtRp4146
(dp4147
g62
(dp4148
g70
I4
ssg71
g4142
sg64
(lp4149
S'Web2py Web Framework'
p4150
asbasbasbag57
(g73
g59
NtRp4151
(dp4152
g62
(dp4153
sg71
g4081
sg64
(lp4154
g57
(g78
g59
NtRp4155
(dp4156
g62
(dp4157
g82
g83
ssg71
g4151
sg64
(lp4158
S'keywords'
p4159
asbag57
(g78
g59
NtRp4160
(dp4161
g62
(dp4162
g89
g90
ssg71
g4151
sg64
(lp4163
S':'
asbag57
(g78
g59
NtRp4164
(dp4165
g62
(dp4166
sg71
g4151
sg64
(lp4167
g57
(g58
g59
NtRp4168
(dp4169
g62
(dp4170
g70
I4
ssg71
g4164
sg64
(lp4171
S'finances, management, personal, app, application'
p4172
asbasbasbasbasbasbasbag57
(g73
g59
NtRp4173
(dp4174
g62
(dp4175
sg71
g3250
sg64
(lp4176
g57
(g78
g59
NtRp4177
(dp4178
g62
(dp4179
g82
g83
ssg71
g4173
sg64
(lp4180
S'models_to_run'
p4181
asbag57
(g78
g59
NtRp4182
(dp4183
g62
(dp4184
g89
g90
ssg71
g4173
sg64
(lp4185
S':'
asbag57
(g78
g59
NtRp4186
(dp4187
g62
(dp4188
sg71
g4173
sg64
(lp4189
g57
(g58
g59
NtRp4190
(dp4191
g62
(dp4192
g70
I5
ssg71
g4186
sg64
(lp4193
g57
(g66
g59
NtRp4194
(dp4195
g62
(dp4196
g70
I4
ssg71
Nsg64
(lp4197
g57
(g73
g59
NtRp4198
(dp4199
g62
(dp4200
sg71
g4194
sg64
(lp4201
g57
(g78
g59
NtRp4202
(dp4203
g62
(dp4204
sg71
g4198
sg64
(lp4205
g57
(g58
g59
NtRp4206
(dp4207
g62
(dp4208
g70
I4
ssg71
g4202
sg64
(lp4209
S'^\\w+\\.py$'
p4210
asbasbasbag57
(g73
g59
NtRp4211
(dp4212
g62
(dp4213
sg71
g4194
sg64
(lp4214
g57
(g78
g59
NtRp4215
(dp4216
g62
(dp4217
sg71
g4211
sg64
(lp4218
g57
(g58
g59
NtRp4219
(dp4220
g62
(dp4221
g70
I4
ssg71
g4215
sg64
(lp4222
S'^expenses/\\w+\\.py$'
p4223
asbasbasbag57
(g73
g59
NtRp4224
(dp4225
g62
(dp4226
sg71
g4194
sg64
(lp4227
g57
(g78
g59
NtRp4228
(dp4229
g62
(dp4230
sg71
g4224
sg64
(lp4231
g57
(g58
g59
NtRp4232
(dp4233
g62
(dp4234
g70
I4
ssg71
g4228
sg64
(lp4235
S'^expenses/addnew/\\w+\\.py$'
p4236
asbasbasbasbasbasbasbag57
(g73
g59
NtRp4237
(dp4238
g62
(dp4239
sg71
g3250
sg64
(lp4240
g57
(g78
g59
NtRp4241
(dp4242
g62
(dp4243
g82
g83
ssg71
g4237
sg64
(lp4244
S'postprocessing'
p4245
asbag57
(g78
g59
NtRp4246
(dp4247
g62
(dp4248
g89
g90
ssg71
g4237
sg64
(lp4249
S':'
asbag57
(g78
g59
NtRp4250
(dp4251
g62
(dp4252
sg71
g4237
sg64
(lp4253
g57
(g58
g59
NtRp4254
(dp4255
g62
(dp4256
g70
I5
ssg71
g4250
sg64
(lp4257
g57
(g66
g59
NtRp4258
(dp4259
g62
(dp4260
g70
I4
ssg71
Nsg64
(lp4261
sbasbasbasbag57
(g73
g59
NtRp4262
(dp4263
g62
(dp4264
sg71
g3250
sg64
(lp4265
g57
(g78
g59
NtRp4266
(dp4267
g62
(dp4268
g82
g83
ssg71
g4262
sg64
(lp4269
S'session_cookie_expires'
p4270
asbag57
(g78
g59
NtRp4271
(dp4272
g62
(dp4273
g89
g90
ssg71
g4262
sg64
(lp4274
S':'
asbag57
(g78
g59
NtRp4275
(dp4276
g62
(dp4277
sg71
g4262
sg64
(lp4278
g57
(g58
g59
NtRp4279
(dp4280
g62
(dp4281
g70
I5
ssg71
g4275
sg64
(lp4282
S'None'
p4283
asbasbasbag57
(g73
g59
NtRp4284
(dp4285
g62
(dp4286
sg71
g3250
sg64
(lp4287
g57
(g78
g59
NtRp4288
(dp4289
g62
(dp4290
g82
g83
ssg71
g4284
sg64
(lp4291
S'session_data_name'
p4292
asbag57
(g78
g59
NtRp4293
(dp4294
g62
(dp4295
g89
g90
ssg71
g4284
sg64
(lp4296
S':'
asbag57
(g78
g59
NtRp4297
(dp4298
g62
(dp4299
sg71
g4284
sg64
(lp4300
g57
(g58
g59
NtRp4301
(dp4302
g62
(dp4303
g70
I5
ssg71
g4297
sg64
(lp4304
S'session_data_pfm_web'
p4305
asbasbasbag57
(g73
g59
NtRp4306
(dp4307
g62
(dp4308
sg71
g3250
sg64
(lp4309
g57
(g78
g59
NtRp4310
(dp4311
g62
(dp4312
g82
g83
ssg71
g4306
sg64
(lp4313
S'session_file'
p4314
asbag57
(g78
g59
NtRp4315
(dp4316
g62
(dp4317
g89
g90
ssg71
g4306
sg64
(lp4318
S':'
asbag57
(g78
g59
NtRp4319
(dp4320
g62
(dp4321
sg71
g4306
sg64
(lp4322
g57
(g58
g59
NtRp4323
(dp4324
g62
(dp4325
g70
I5
ssg71
g4319
sg64
(lp4326
S"<open file 'C:\\Users\\Juliano\\Documents\\Visual Studio 2012\\Projects\\PFM-Web\\applications\\PFM_Web\\sessions\\127.0.0.1-140a1922-a5d0-44eb-9a21-a4c388e16f08', mode 'rb+' at 0x0000000004DCD150>"
p4327
asbasbasbag57
(g73
g59
NtRp4328
(dp4329
g62
(dp4330
sg71
g3250
sg64
(lp4331
g57
(g78
g59
NtRp4332
(dp4333
g62
(dp4334
g82
g83
ssg71
g4328
sg64
(lp4335
S'session_filename'
p4336
asbag57
(g78
g59
NtRp4337
(dp4338
g62
(dp4339
g89
g90
ssg71
g4328
sg64
(lp4340
S':'
asbag57
(g78
g59
NtRp4341
(dp4342
g62
(dp4343
sg71
g4328
sg64
(lp4344
g57
(g58
g59
NtRp4345
(dp4346
g62
(dp4347
g70
I5
ssg71
g4341
sg64
(lp4348
S'C:\\Users\\Juliano\\Documents\\Visual Studio 2012\\Projects\\PFM-Web\\applications\\PFM_Web\\sessions\\127.0.0.1-140a1922-a5d0-44eb-9a21-a4c388e16f08'
p4349
asbasbasbag57
(g73
g59
NtRp4350
(dp4351
g62
(dp4352
sg71
g3250
sg64
(lp4353
g57
(g78
g59
NtRp4354
(dp4355
g62
(dp4356
g82
g83
ssg71
g4350
sg64
(lp4357
S'session_id'
p4358
asbag57
(g78
g59
NtRp4359
(dp4360
g62
(dp4361
g89
g90
ssg71
g4350
sg64
(lp4362
S':'
asbag57
(g78
g59
NtRp4363
(dp4364
g62
(dp4365
sg71
g4350
sg64
(lp4366
g57
(g58
g59
NtRp4367
(dp4368
g62
(dp4369
g70
I5
ssg71
g4363
sg64
(lp4370
g475
asbasbasbag57
(g73
g59
NtRp4371
(dp4372
g62
(dp4373
sg71
g3250
sg64
(lp4374
g57
(g78
g59
NtRp4375
(dp4376
g62
(dp4377
g82
g83
ssg71
g4371
sg64
(lp4378
S'session_id_name'
p4379
asbag57
(g78
g59
NtRp4380
(dp4381
g62
(dp4382
g89
g90
ssg71
g4371
sg64
(lp4383
S':'
asbag57
(g78
g59
NtRp4384
(dp4385
g62
(dp4386
sg71
g4371
sg64
(lp4387
g57
(g58
g59
NtRp4388
(dp4389
g62
(dp4390
g70
I5
ssg71
g4384
sg64
(lp4391
g3307
asbasbasbag57
(g73
g59
NtRp4392
(dp4393
g62
(dp4394
sg71
g3250
sg64
(lp4395
g57
(g78
g59
NtRp4396
(dp4397
g62
(dp4398
g82
g83
ssg71
g4392
sg64
(lp4399
S'session_locked'
p4400
asbag57
(g78
g59
NtRp4401
(dp4402
g62
(dp4403
g89
g90
ssg71
g4392
sg64
(lp4404
S':'
asbag57
(g78
g59
NtRp4405
(dp4406
g62
(dp4407
sg71
g4392
sg64
(lp4408
g57
(g58
g59
NtRp4409
(dp4410
g62
(dp4411
g70
I5
ssg71
g4405
sg64
(lp4412
g1643
asbasbasbag57
(g73
g59
NtRp4413
(dp4414
g62
(dp4415
sg71
g3250
sg64
(lp4416
g57
(g78
g59
NtRp4417
(dp4418
g62
(dp4419
g82
g83
ssg71
g4413
sg64
(lp4420
S'session_new'
p4421
asbag57
(g78
g59
NtRp4422
(dp4423
g62
(dp4424
g89
g90
ssg71
g4413
sg64
(lp4425
S':'
asbag57
(g78
g59
NtRp4426
(dp4427
g62
(dp4428
sg71
g4413
sg64
(lp4429
g57
(g58
g59
NtRp4430
(dp4431
g62
(dp4432
g70
I5
ssg71
g4426
sg64
(lp4433
g100
asbasbasbag57
(g73
g59
NtRp4434
(dp4435
g62
(dp4436
sg71
g3250
sg64
(lp4437
g57
(g78
g59
NtRp4438
(dp4439
g62
(dp4440
g82
g83
ssg71
g4434
sg64
(lp4441
S'session_storage_type'
p4442
asbag57
(g78
g59
NtRp4443
(dp4444
g62
(dp4445
g89
g90
ssg71
g4434
sg64
(lp4446
S':'
asbag57
(g78
g59
NtRp4447
(dp4448
g62
(dp4449
sg71
g4434
sg64
(lp4450
g57
(g58
g59
NtRp4451
(dp4452
g62
(dp4453
g70
I5
ssg71
g4447
sg64
(lp4454
g3131
asbasbasbag57
(g73
g59
NtRp4455
(dp4456
g62
(dp4457
sg71
g3250
sg64
(lp4458
g57
(g78
g59
NtRp4459
(dp4460
g62
(dp4461
g82
g83
ssg71
g4455
sg64
(lp4462
S'status'
p4463
asbag57
(g78
g59
NtRp4464
(dp4465
g62
(dp4466
g89
g90
ssg71
g4455
sg64
(lp4467
S':'
asbag57
(g78
g59
NtRp4468
(dp4469
g62
(dp4470
sg71
g4455
sg64
(lp4471
g57
(g58
g59
NtRp4472
(dp4473
g62
(dp4474
g70
I5
ssg71
g4468
sg64
(lp4475
S'200'
p4476
asbasbasbag57
(g73
g59
NtRp4477
(dp4478
g62
(dp4479
sg71
g3250
sg64
(lp4480
g57
(g78
g59
NtRp4481
(dp4482
g62
(dp4483
g82
g83
ssg71
g4477
sg64
(lp4484
S'subtitle'
p4485
asbag57
(g78
g59
NtRp4486
(dp4487
g62
(dp4488
g89
g90
ssg71
g4477
sg64
(lp4489
S':'
asbag57
(g78
g59
NtRp4490
(dp4491
g62
(dp4492
sg71
g4477
sg64
(lp4493
g57
(g58
g59
NtRp4494
(dp4495
g62
(dp4496
g70
I5
ssg71
g4490
sg64
(lp4497
g3639
(S's\x1e\x00\x00\x00Your finances in a simpler way'
tRp4498
asbasbasbag57
(g73
g59
NtRp4499
(dp4500
g62
(dp4501
sg71
g3250
sg64
(lp4502
g57
(g78
g59
NtRp4503
(dp4504
g62
(dp4505
g82
g83
ssg71
g4499
sg64
(lp4506
S'title'
p4507
asbag57
(g78
g59
NtRp4508
(dp4509
g62
(dp4510
g89
g90
ssg71
g4499
sg64
(lp4511
S':'
asbag57
(g78
g59
NtRp4512
(dp4513
g62
(dp4514
sg71
g4499
sg64
(lp4515
g57
(g58
g59
NtRp4516
(dp4517
g62
(dp4518
g70
I5
ssg71
g4512
sg64
(lp4519
S'Personal Finances Manager'
p4520
asbasbasbag57
(g73
g59
NtRp4521
(dp4522
g62
(dp4523
sg71
g3250
sg64
(lp4524
g57
(g78
g59
NtRp4525
(dp4526
g62
(dp4527
g82
g83
ssg71
g4521
sg64
(lp4528
S'view'
p4529
asbag57
(g78
g59
NtRp4530
(dp4531
g62
(dp4532
g89
g90
ssg71
g4521
sg64
(lp4533
S':'
asbag57
(g78
g59
NtRp4534
(dp4535
g62
(dp4536
sg71
g4521
sg64
(lp4537
g57
(g58
g59
NtRp4538
(dp4539
g62
(dp4540
g70
I5
ssg71
g4534
sg64
(lp4541
S'expenses/addnew.html'
p4542
asbasbasbasbasbsS'locals'
p4543
(dp4544
S'self'
p4545
S'<DAL uri="sqlite://storage.sqlite">'
p4546
sS'key'
p4547
S"'person'"
p4548
sssS'traceback'
p4549
S'Traceback (most recent call last):\n  File "C:\\Users\\Juliano\\Documents\\Visual Studio 2012\\Projects\\PFM-Web\\gluon\\restricted.py", line 212, in restricted\n    exec ccode in environment\n  File "C:\\Users\\Juliano\\Documents\\Visual Studio 2012\\Projects\\PFM-Web\\applications\\PFM_Web\\controllers/expenses.py", line 65, in <module>\n  File "C:\\Users\\Juliano\\Documents\\Visual Studio 2012\\Projects\\PFM-Web\\gluon\\globals.py", line 193, in <lambda>\n    self._caller = lambda f: f()\n  File "C:\\Users\\Juliano\\Documents\\Visual Studio 2012\\Projects\\PFM-Web\\applications\\PFM_Web\\controllers/expenses.py", line 7, in addnew\n    form = SQLFORM(db.person)\n  File "C:\\Users\\Juliano\\Documents\\Visual Studio 2012\\Projects\\PFM-Web\\gluon\\dal.py", line 7255, in __getattr__\n    return ogetattr(self, key)\nAttributeError: \'DAL\' object has no attribute \'person\'\n'
p4550
s.