(dp1
S'output'
p2
S"<type 'exceptions.NameError'> name 'getStarted' is not defined"
p3
sS'layer'
p4
S'C:\\Users\\Juliano\\Documents\\Visual Studio 2012\\Projects\\PFM-Web\\applications\\PFM_Web\\views\\default/index.html'
p5
sS'code'
p6
S'response.write(\'<!DOCTYPE html>\\n<!-- paulirish.com/2008/conditional-stylesheets-vs-css-hacks-answer-neither/ -->\\n<!--[if lt IE 7]><html class="ie ie6 ie-lte9 ie-lte8 ie-lte7 no-js" lang="\', escape=False)\nresponse.write(T.accepted_language or \'en\')\nresponse.write(\'"> <![endif]-->\\n<!--[if IE 7]><html class="ie ie7 ie-lte9 ie-lte8 ie-lte7 no-js" lang="\', escape=False)\nresponse.write(T.accepted_language or \'en\')\nresponse.write(\'"> <![endif]-->\\n<!--[if IE 8]><html class="ie ie8 ie-lte9 ie-lte8 no-js" lang="\', escape=False)\nresponse.write(T.accepted_language or \'en\')\nresponse.write(\'"> <![endif]-->\\n<!--[if IE 9]><html class="ie9 ie-lte9 no-js" lang="\', escape=False)\nresponse.write(T.accepted_language or \'en\')\nresponse.write(\'"> <![endif]-->\\n<!--[if (gt IE 9)|!(IE)]><!--> <html class="no-js" lang="\', escape=False)\nresponse.write(T.accepted_language or \'en\')\nresponse.write(\'"> <!--<![endif]-->\\n<head>\\n  <meta charset="utf-8" />\\n  <!-- www.phpied.com/conditional-comments-block-downloads/ -->\\n  <!-- Always force latest IE rendering engine\\n       (even in intranet) & Chrome Frame\\n       Remove this if you use the .htaccess -->\\n  <!--[if IE]>\\n      <meta http-equiv="X-UA-Compatible" content="IE=edge\', escape=False)\nresponse.write(not request.is_local and \',chrome=1\' or \'\')\nresponse.write(\'">\\n      <![endif]-->\\n\\n  <title>\', escape=False)\nresponse.write(response.title or request.application)\nresponse.write(\'</title>\\n\\n  <!-- http://dev.w3.org/html5/markup/meta.name.html -->\\n  <meta name="application-name" content="\', escape=False)\nresponse.write(request.application)\nresponse.write(\'" />\\n\\n  <!-- Speaking of Google, don\\\'t forget to set your site up:\\n       http://google.com/webmasters -->\\n  <meta name="google-site-verification" content="" />\\n\\n  <!--  Mobile Viewport Fix\\n        j.mp/mobileviewport & davidbcalhoun.com/2010/viewport-metatag\\n        device-width: Occupy full width of the screen in its current orientation\\n        initial-scale = 1.0 retains dimensions instead of zooming out if page height > device height\\n        user-scalable = yes allows the user to zoom in -->\\n  <meta name="viewport" content="width=device-width, initial-scale=1.0" />\\n\\n  <link rel="shortcut icon" href="\', escape=False)\nresponse.write(URL(\'static\',\'images/favicon.ico\'))\nresponse.write(\'" type="image/x-icon">\\n  <link rel="apple-touch-icon" href="\', escape=False)\nresponse.write(URL(\'static\',\'images/favicon.png\'))\nresponse.write(\'">\\n\\n  <!-- All JavaScript at the bottom, except for Modernizr which enables\\n       HTML5 elements & feature detects -->\\n  <script src="\', escape=False)\nresponse.write(URL(\'static\',\'js/modernizr.custom.js\'))\nresponse.write(\'"></script>\\n\\n  <!-- include stylesheets -->\\n  \', escape=False)\nresponse.files.append(URL(\'static\',\'css/web2py.css\'))\nresponse.files.append(URL(\'static\',\'css/bootstrap.min.css\'))\nresponse.files.append(URL(\'static\',\'css/bootstrap-responsive.min.css\'))\nresponse.files.append(URL(\'static\',\'css/site.css\'))\nresponse.files.append(URL(\'static\',\'css/web2py_bootstrap.css\'))\nresponse.write(\'\\n\\n  \', escape=False)\nresponse.write(\'<script type="text/javascript"><!--\\n    // These variables are used by the web2py_ajax_init function in web2py_ajax.js (which is loaded below).\\n    var w2p_ajax_confirm_message = "\', escape=False)\nresponse.write(T(\'Are you sure you want to delete this object?\'))\nresponse.write(\'";\\n    var w2p_ajax_date_format = "\', escape=False)\nresponse.write(T(\'%Y-%m-%d\'))\nresponse.write(\'";\\n    var w2p_ajax_datetime_format = "\', escape=False)\nresponse.write(T(\'%Y-%m-%d %H:%M:%S\'))\nresponse.write(\'";\\n    //--></script>\\n\', escape=False)\nresponse.files.insert(0,URL(\'static\',\'js/jquery.js\'))\nresponse.files.insert(1,URL(\'static\',\'css/calendar.css\'))\nresponse.files.insert(2,URL(\'static\',\'js/calendar.js\'))\nresponse.files.insert(3,URL(\'static\',\'js/web2py.js\'))\nresponse.include_meta()\nresponse.include_files()\nresponse.write(\'\\n\', escape=False)\nresponse.write(\'\\n\\n  \', escape=False)\n# using sidebars need to know what sidebar you want to use\nleft_sidebar_enabled = globals().get(\'left_sidebar_enabled\',False)\nright_sidebar_enabled = globals().get(\'right_sidebar_enabled\',False)\nmiddle_columns = {0:\'span12\',1:\'span9\',2:\'span6\'}[\n(left_sidebar_enabled and 1 or 0)+(right_sidebar_enabled and 1 or 0)]\nresponse.write(\'\\n\\n  <link rel="stylesheet" href="http://ajax.googleapis.com/ajax/libs/jqueryui/1.8.16/themes/base/jquery-ui.css" type="text/css" media="all" />\\n  <script src="http://ajax.googleapis.com/ajax/libs/jqueryui/1.8.16/jquery-ui.min.js" type="text/javascript"></script>\\n  <noscript><link href="\', escape=False)\nresponse.write(URL(\'static\', \'css/web2py_bootstrap_nojs.css\'))\nresponse.write(\'" rel="stylesheet" type="text/css" /></noscript>\\n  \', escape=False)\nresponse.write(\'\\n</head>\\n\\n<body>\\n  <!-- Navbar ================================================== -->\\n  <div class="navbar navbar-inverse navbar-fixed-top">\\n    <div class="flash">\', escape=False)\nresponse.write(response.flash or \'\')\nresponse.write(\'</div>\\n    <div class="navbar-inner">\\n      <div class="container">\\n        <!-- the next tag is necessary for bootstrap menus, do not remove -->\\n        <button type="button" class="btn btn-navbar" data-toggle="collapse" data-target=".nav-collapse">\\n          <span class="icon-bar"></span>\\n          <span class="icon-bar"></span>\\n          <span class="icon-bar"></span>\\n        </button>\\n\\t\', escape=False)\nresponse.write(response.logo or \'\')\nresponse.write(\'\\n        <ul id="navbar" class="nav pull-right">\', escape=False)\nresponse.write(\'auth\' in globals() and auth.navbar(mode="dropdown") or \'\')\nresponse.write(\'</ul>\\n        <div class="nav-collapse">\\n          \', escape=False)\nis_mobile=request.user_agent().is_mobile\nresponse.write(\'\\n          \', escape=False)\nif response.menu:\n    response.write(\'\\n          \', escape=False)\n    response.write(MENU(response.menu, _class=\'mobile-menu nav\' if is_mobile else \'nav\',mobile=is_mobile,li_class=\'dropdown\',ul_class=\'dropdown-menu\'))\n    response.write(\'\\n          \', escape=False)\n    pass\nresponse.write(\'\\n        </div><!--/.nav-collapse -->\\n      </div>\\n    </div>\\n  </div><!--/top navbar -->\\n\\n  <div class="container">\\n    <!-- Masthead ================================================== -->\\n    <header class="mastheader row" id="header">\\n        <div class="span12">\\n            <div class="page-header">\\n                <div class="jumbotron">\\r\\n                    <h1>\', escape=False)\nresponse.write(response.title or request.application)\nresponse.write(\'</h1>\\r\\n                    <p class="lead">\', escape=False)\nresponse.write(response.subtitle or \'\')\nresponse.write(\'</p>\\r\\n                    <a class="btn btn-large btn-success" href="#">\', escape=False)\nresponse.write(getStarted)\nresponse.write(\'</a>\\r\\n                </div>\\n                <h1>\\n                    \\n                    <br/><small></small>\\n                </h1>\\n            </div>\\n        </div>\\n    </header>\\n    \\r\\n\\n    <section id="main" class="main row">\\n        \', escape=False)\nif left_sidebar_enabled:\n    response.write(\'\\n        <div class="span3 left-sidebar">\\n            \', escape=False)\n    response.write(\'\\n            <h3>Left Sidebar</h3>\\n            <p></p>\\n            \', escape=False)\n    response.write(\'\\n        </div>\\n        \', escape=False)\n    pass\nresponse.write(\'\\n\\n        <div class="\', escape=False)\nresponse.write(middle_columns)\nresponse.write(\'">\\n            \', escape=False)\nresponse.write(\'\\n            \', escape=False)\nresponse.write(\'\\n<div class="row-fluid">\\r\\n    <div class="span4">\\r\\n        <h2>Heading</h2>\\r\\n        <p>Donec id elit non mi porta gravida at eget metus. Fusce dapibus, tellus ac cursus commodo, tortor mauris condimentum nibh, ut fermentum massa justo sit amet risus. Etiam porta sem malesuada magna mollis euismod. Donec sed odio dui. </p>\\r\\n        <p><a class="btn" href="#">View details &raquo;</a></p>\\r\\n    </div>\\r\\n    <div class="span4">\\r\\n        <h2>Heading</h2>\\r\\n        <p>Donec id elit non mi porta gravida at eget metus. Fusce dapibus, tellus ac cursus commodo, tortor mauris condimentum nibh, ut fermentum massa justo sit amet risus. Etiam porta sem malesuada magna mollis euismod. Donec sed odio dui. </p>\\r\\n        <p><a class="btn" href="#">View details &raquo;</a></p>\\r\\n    </div>\\r\\n    <div class="span4">\\r\\n        <h2>Heading</h2>\\r\\n        <p>Donec sed odio dui. Cras justo odio, dapibus ac facilisis in, egestas eget quam. Vestibulum id ligula porta felis euismod semper. Fusce dapibus, tellus ac cursus commodo, tortor mauris condimentum nibh, ut fermentum massa.</p>\\r\\n        <p><a class="btn" href="#">View details &raquo;</a></p>\\r\\n    </div>\\r\\n</div>\', escape=False)\nresponse.write(\'\\n            \', escape=False)\nresponse.write(\'\\n        </div>\\n\\n        \', escape=False)\nif right_sidebar_enabled:\n    response.write(\'\\n        <div class="span3">\\n            \', escape=False)\n    response.write(\'\\n            <h3>Right Sidebar</h3>\\n            <p></p>\\n            \', escape=False)\n    response.write(\'\\n        </div>\\n        \', escape=False)\n    pass\nresponse.write(\'\\n    </section><!--/main-->\\n\\n    <!-- Footer ================================================== -->\\n    <div class="row">\\n        <footer class="footer span12" id="footer">\\n            <div class="footer-content">\\n                \', escape=False)\nresponse.write(\' <!-- this is default footer -->\\n                <div class="copyright pull-left">&#169; \', escape=False)\nresponse.write(request.now.year)\nresponse.write(\' \', escape=False)\nresponse.write(T(\'Code-A-Granel, Inc.\'))\nresponse.write(\'  </div>\\n                <div id="poweredBy" class="pull-right">\\n                    \', escape=False)\nresponse.write(T(\'Powered by\'))\nresponse.write(\'\\n                    <a href="http://www.web2py.com/">web2py</a>\\n                </div>\\n                \', escape=False)\nresponse.write(\'\\n            </div>\\n        </footer>\\n    </div>\\n\\n  </div> <!-- /container -->\\n\\n  <!-- The javascript =============================================\\n       (Placed at the end of the document so the pages load faster) -->\\n  <script src="\', escape=False)\nresponse.write(URL(\'static\',\'js/bootstrap.min.js\'))\nresponse.write(\'"></script>\\n  <script src="\', escape=False)\nresponse.write(URL(\'static\',\'js/web2py_bootstrap.js\'))\nresponse.write(\'"></script>\\n  <!--[if lt IE 7 ]>\\n      <script src="\', escape=False)\nresponse.write(URL(\'static\',\'js/dd_belatedpng.js\'))\nresponse.write(\'"></script>\\n      <script> DD_belatedPNG.fix(\\\'img, .png_bg\\\'); //fix any <img> or .png_bg background-images </script>\\n      <![endif]-->\\n  \\n  \', escape=False)\nif response.google_analytics_id:\n    response.write(\'\\n  <script src="\', escape=False)\n    response.write(URL(\'static\',\'js/analytics.js\'))\n    response.write(\'"></script>\\n  <script type="text/javascript">\\n  analytics.initialize({\\n    \\\'Google Analytics\\\':{trackingId:\\\'\', escape=False)\n    response.write(response.google_analytics_id)\n    response.write("\'} \\n  });</script>\\n  ", escape=False)\n    pass\nresponse.write(\'\\n  <script src="\', escape=False)\nresponse.write(URL(\'static\',\'js/share.js\',vars=dict(static=URL(\'static\',\'images\'))))\nresponse.write(\'"></script>\\n</body>\\n</html>\\n\\n\', escape=False)'
p7
sS'snapshot'
p8
(dp9
S'exception'
p10
(dp11
S'__hash__'
p12
S"<method-wrapper '__hash__' of exceptions.NameError object>"
p13
sS'__setattr__'
p14
S"<method-wrapper '__setattr__' of exceptions.NameError object>"
p15
sS'__reduce_ex__'
p16
S'<built-in method __reduce_ex__ of exceptions.NameError object>'
p17
sS'__getslice__'
p18
S"<method-wrapper '__getslice__' of exceptions.NameError object>"
p19
sS'__getitem__'
p20
S"<method-wrapper '__getitem__' of exceptions.NameError object>"
p21
sS'__setstate__'
p22
S'<built-in method __setstate__ of exceptions.NameError object>'
p23
sS'__reduce__'
p24
S'<built-in method __reduce__ of exceptions.NameError object>'
p25
sS'__str__'
p26
S"<method-wrapper '__str__' of exceptions.NameError object>"
p27
sS'__format__'
p28
S'<built-in method __format__ of exceptions.NameError object>'
p29
sS'__getattribute__'
p30
S"<method-wrapper '__getattribute__' of exceptions.NameError object>"
p31
sS'__class__'
p32
S"<type 'exceptions.NameError'>"
p33
sS'__unicode__'
p34
S'<built-in method __unicode__ of exceptions.NameError object>'
p35
sS'__delattr__'
p36
S"<method-wrapper '__delattr__' of exceptions.NameError object>"
p37
sS'__subclasshook__'
p38
S'<built-in method __subclasshook__ of type object>'
p39
sS'__repr__'
p40
S"<method-wrapper '__repr__' of exceptions.NameError object>"
p41
sS'__dict__'
p42
S'{}'
p43
sS'args'
p44
S'("name \'getStarted\' is not defined",)'
p45
sS'__sizeof__'
p46
S'<built-in method __sizeof__ of exceptions.NameError object>'
p47
sS'__doc__'
p48
S"'Name not found globally.'"
p49
sS'__init__'
p50
S"<method-wrapper '__init__' of exceptions.NameError object>"
p51
sS'__new__'
p52
S'<built-in method __new__ of type object>'
p53
ssS'evalue'
p54
S"name 'getStarted' is not defined"
p55
sS'request'
p56
ccopy_reg
_reconstructor
p57
(cgluon.html
BEAUTIFY
p58
c__builtin__
object
p59
NtRp60
(dp61
S'attributes'
p62
(dp63
sS'components'
p64
(lp65
g57
(cgluon.html
TABLE
p66
g59
NtRp67
(dp68
g62
(dp69
S'level'
p70
I5
ssS'parent'
p71
Nsg64
(lp72
g57
(cgluon.html
TR
p73
g59
NtRp74
(dp75
g62
(dp76
sg71
g67
sg64
(lp77
g57
(cgluon.html
TD
p78
g59
NtRp79
(dp80
g62
(dp81
S'_style'
p82
S'font-weight:bold;vertical-align:top'
p83
ssg71
g74
sg64
(lp84
S'ajax'
p85
asbag57
(g78
g59
NtRp86
(dp87
g62
(dp88
S'_valign'
p89
S'top'
p90
ssg71
g74
sg64
(lp91
S':'
asbag57
(g78
g59
NtRp92
(dp93
g62
(dp94
sg71
g74
sg64
(lp95
g57
(g58
g59
NtRp96
(dp97
g62
(dp98
g70
I5
ssg71
g92
sg64
(lp99
S'False'
p100
asbasbasbag57
(g73
g59
NtRp101
(dp102
g62
(dp103
sg71
g67
sg64
(lp104
g57
(g78
g59
NtRp105
(dp106
g62
(dp107
g82
g83
ssg71
g101
sg64
(lp108
S'application'
p109
asbag57
(g78
g59
NtRp110
(dp111
g62
(dp112
g89
g90
ssg71
g101
sg64
(lp113
S':'
asbag57
(g78
g59
NtRp114
(dp115
g62
(dp116
sg71
g101
sg64
(lp117
g57
(g58
g59
NtRp118
(dp119
g62
(dp120
g70
I5
ssg71
g114
sg64
(lp121
S'PFM_Web'
p122
asbasbasbag57
(g73
g59
NtRp123
(dp124
g62
(dp125
sg71
g67
sg64
(lp126
g57
(g78
g59
NtRp127
(dp128
g62
(dp129
g82
g83
ssg71
g123
sg64
(lp130
g44
asbag57
(g78
g59
NtRp131
(dp132
g62
(dp133
g89
g90
ssg71
g123
sg64
(lp134
S':'
asbag57
(g78
g59
NtRp135
(dp136
g62
(dp137
sg71
g123
sg64
(lp138
g57
(g58
g59
NtRp139
(dp140
g62
(dp141
g70
I5
ssg71
g135
sg64
(lp142
g57
(g66
g59
NtRp143
(dp144
g62
(dp145
g70
I4
ssg71
Nsg64
(lp146
sbasbasbasbag57
(g73
g59
NtRp147
(dp148
g62
(dp149
sg71
g67
sg64
(lp150
g57
(g78
g59
NtRp151
(dp152
g62
(dp153
g82
g83
ssg71
g147
sg64
(lp154
S'body'
p155
asbag57
(g78
g59
NtRp156
(dp157
g62
(dp158
g89
g90
ssg71
g147
sg64
(lp159
S':'
asbag57
(g78
g59
NtRp160
(dp161
g62
(dp162
sg71
g147
sg64
(lp163
g57
(g58
g59
NtRp164
(dp165
g62
(dp166
g70
I5
ssg71
g160
sg64
(lp167
S'<cStringIO.StringO object at 0x0000000004C8AB58>'
p168
asbasbasbag57
(g73
g59
NtRp169
(dp170
g62
(dp171
sg71
g67
sg64
(lp172
g57
(g78
g59
NtRp173
(dp174
g62
(dp175
g82
g83
ssg71
g169
sg64
(lp176
S'cid'
p177
asbag57
(g78
g59
NtRp178
(dp179
g62
(dp180
g89
g90
ssg71
g169
sg64
(lp181
S':'
asbag57
(g78
g59
NtRp182
(dp183
g62
(dp184
sg71
g169
sg64
(lp185
g57
(g58
g59
NtRp186
(dp187
g62
(dp188
g70
I5
ssg71
g182
sg64
(lp189
S'None'
p190
asbasbasbag57
(g73
g59
NtRp191
(dp192
g62
(dp193
sg71
g67
sg64
(lp194
g57
(g78
g59
NtRp195
(dp196
g62
(dp197
g82
g83
ssg71
g191
sg64
(lp198
S'client'
p199
asbag57
(g78
g59
NtRp200
(dp201
g62
(dp202
g89
g90
ssg71
g191
sg64
(lp203
S':'
asbag57
(g78
g59
NtRp204
(dp205
g62
(dp206
sg71
g191
sg64
(lp207
g57
(g58
g59
NtRp208
(dp209
g62
(dp210
g70
I5
ssg71
g204
sg64
(lp211
S'127.0.0.1'
p212
asbasbasbag57
(g73
g59
NtRp213
(dp214
g62
(dp215
sg71
g67
sg64
(lp216
g57
(g78
g59
NtRp217
(dp218
g62
(dp219
g82
g83
ssg71
g213
sg64
(lp220
S'controller'
p221
asbag57
(g78
g59
NtRp222
(dp223
g62
(dp224
g89
g90
ssg71
g213
sg64
(lp225
S':'
asbag57
(g78
g59
NtRp226
(dp227
g62
(dp228
sg71
g213
sg64
(lp229
g57
(g58
g59
NtRp230
(dp231
g62
(dp232
g70
I5
ssg71
g226
sg64
(lp233
S'default'
p234
asbasbasbag57
(g73
g59
NtRp235
(dp236
g62
(dp237
sg71
g67
sg64
(lp238
g57
(g78
g59
NtRp239
(dp240
g62
(dp241
g82
g83
ssg71
g235
sg64
(lp242
S'cookies'
p243
asbag57
(g78
g59
NtRp244
(dp245
g62
(dp246
g89
g90
ssg71
g235
sg64
(lp247
S':'
asbag57
(g78
g59
NtRp248
(dp249
g62
(dp250
sg71
g235
sg64
(lp251
g57
(g58
g59
NtRp252
(dp253
g62
(dp254
g70
I5
ssg71
g248
sg64
(lp255
g57
(g66
g59
NtRp256
(dp257
g62
(dp258
g70
I4
ssg71
Nsg64
(lp259
g57
(g73
g59
NtRp260
(dp261
g62
(dp262
sg71
g256
sg64
(lp263
g57
(g78
g59
NtRp264
(dp265
g62
(dp266
g82
g83
ssg71
g260
sg64
(lp267
S'session_id_admin'
p268
asbag57
(g78
g59
NtRp269
(dp270
g62
(dp271
g89
g90
ssg71
g260
sg64
(lp272
S':'
asbag57
(g78
g59
NtRp273
(dp274
g62
(dp275
sg71
g260
sg64
(lp276
g57
(g58
g59
NtRp277
(dp278
g62
(dp279
g70
I4
ssg71
g273
sg64
(lp280
S'127.0.0.1-e12d6916-8656-4736-b975-72200c915786'
p281
ag57
(g66
g59
NtRp282
(dp283
g62
(dp284
g70
I3
ssg71
Nsg64
(lp285
g57
(g73
g59
NtRp286
(dp287
g62
(dp288
sg71
g282
sg64
(lp289
g57
(g78
g59
NtRp290
(dp291
g62
(dp292
g82
g83
ssg71
g286
sg64
(lp293
S'comment'
p294
asbag57
(g78
g59
NtRp295
(dp296
g62
(dp297
g89
g90
ssg71
g286
sg64
(lp298
S':'
asbag57
(g78
g59
NtRp299
(dp300
g62
(dp301
sg71
g286
sg64
(lp302
g57
(g58
g59
NtRp303
(dp304
g62
(dp305
g70
I3
ssg71
g299
sg64
(lp306
S''
asbasbasbag57
(g73
g59
NtRp307
(dp308
g62
(dp309
sg71
g282
sg64
(lp310
g57
(g78
g59
NtRp311
(dp312
g62
(dp313
g82
g83
ssg71
g307
sg64
(lp314
S'domain'
p315
asbag57
(g78
g59
NtRp316
(dp317
g62
(dp318
g89
g90
ssg71
g307
sg64
(lp319
S':'
asbag57
(g78
g59
NtRp320
(dp321
g62
(dp322
sg71
g307
sg64
(lp323
g57
(g58
g59
NtRp324
(dp325
g62
(dp326
g70
I3
ssg71
g320
sg64
(lp327
S''
asbasbasbag57
(g73
g59
NtRp328
(dp329
g62
(dp330
sg71
g282
sg64
(lp331
g57
(g78
g59
NtRp332
(dp333
g62
(dp334
g82
g83
ssg71
g328
sg64
(lp335
S'expires'
p336
asbag57
(g78
g59
NtRp337
(dp338
g62
(dp339
g89
g90
ssg71
g328
sg64
(lp340
S':'
asbag57
(g78
g59
NtRp341
(dp342
g62
(dp343
sg71
g328
sg64
(lp344
g57
(g58
g59
NtRp345
(dp346
g62
(dp347
g70
I3
ssg71
g341
sg64
(lp348
S''
asbasbasbag57
(g73
g59
NtRp349
(dp350
g62
(dp351
sg71
g282
sg64
(lp352
g57
(g78
g59
NtRp353
(dp354
g62
(dp355
g82
g83
ssg71
g349
sg64
(lp356
S'httponly'
p357
asbag57
(g78
g59
NtRp358
(dp359
g62
(dp360
g89
g90
ssg71
g349
sg64
(lp361
S':'
asbag57
(g78
g59
NtRp362
(dp363
g62
(dp364
sg71
g349
sg64
(lp365
g57
(g58
g59
NtRp366
(dp367
g62
(dp368
g70
I3
ssg71
g362
sg64
(lp369
S''
asbasbasbag57
(g73
g59
NtRp370
(dp371
g62
(dp372
sg71
g282
sg64
(lp373
g57
(g78
g59
NtRp374
(dp375
g62
(dp376
g82
g83
ssg71
g370
sg64
(lp377
S'max-age'
p378
asbag57
(g78
g59
NtRp379
(dp380
g62
(dp381
g89
g90
ssg71
g370
sg64
(lp382
S':'
asbag57
(g78
g59
NtRp383
(dp384
g62
(dp385
sg71
g370
sg64
(lp386
g57
(g58
g59
NtRp387
(dp388
g62
(dp389
g70
I3
ssg71
g383
sg64
(lp390
S''
asbasbasbag57
(g73
g59
NtRp391
(dp392
g62
(dp393
sg71
g282
sg64
(lp394
g57
(g78
g59
NtRp395
(dp396
g62
(dp397
g82
g83
ssg71
g391
sg64
(lp398
S'path'
p399
asbag57
(g78
g59
NtRp400
(dp401
g62
(dp402
g89
g90
ssg71
g391
sg64
(lp403
S':'
asbag57
(g78
g59
NtRp404
(dp405
g62
(dp406
sg71
g391
sg64
(lp407
g57
(g58
g59
NtRp408
(dp409
g62
(dp410
g70
I3
ssg71
g404
sg64
(lp411
S''
asbasbasbag57
(g73
g59
NtRp412
(dp413
g62
(dp414
sg71
g282
sg64
(lp415
g57
(g78
g59
NtRp416
(dp417
g62
(dp418
g82
g83
ssg71
g412
sg64
(lp419
S'secure'
p420
asbag57
(g78
g59
NtRp421
(dp422
g62
(dp423
g89
g90
ssg71
g412
sg64
(lp424
S':'
asbag57
(g78
g59
NtRp425
(dp426
g62
(dp427
sg71
g412
sg64
(lp428
g57
(g58
g59
NtRp429
(dp430
g62
(dp431
g70
I3
ssg71
g425
sg64
(lp432
S''
asbasbasbag57
(g73
g59
NtRp433
(dp434
g62
(dp435
sg71
g282
sg64
(lp436
g57
(g78
g59
NtRp437
(dp438
g62
(dp439
g82
g83
ssg71
g433
sg64
(lp440
S'version'
p441
asbag57
(g78
g59
NtRp442
(dp443
g62
(dp444
g89
g90
ssg71
g433
sg64
(lp445
S':'
asbag57
(g78
g59
NtRp446
(dp447
g62
(dp448
sg71
g433
sg64
(lp449
g57
(g58
g59
NtRp450
(dp451
g62
(dp452
g70
I3
ssg71
g446
sg64
(lp453
S''
asbasbasbasbasbasbasbag57
(g73
g59
NtRp454
(dp455
g62
(dp456
sg71
g256
sg64
(lp457
g57
(g78
g59
NtRp458
(dp459
g62
(dp460
g82
g83
ssg71
g454
sg64
(lp461
S'session_id_pfm_web'
p462
asbag57
(g78
g59
NtRp463
(dp464
g62
(dp465
g89
g90
ssg71
g454
sg64
(lp466
S':'
asbag57
(g78
g59
NtRp467
(dp468
g62
(dp469
sg71
g454
sg64
(lp470
g57
(g58
g59
NtRp471
(dp472
g62
(dp473
g70
I4
ssg71
g467
sg64
(lp474
S'127.0.0.1-140a1922-a5d0-44eb-9a21-a4c388e16f08'
p475
ag57
(g66
g59
NtRp476
(dp477
g62
(dp478
g70
I3
ssg71
Nsg64
(lp479
g57
(g73
g59
NtRp480
(dp481
g62
(dp482
sg71
g476
sg64
(lp483
g57
(g78
g59
NtRp484
(dp485
g62
(dp486
g82
g83
ssg71
g480
sg64
(lp487
g294
asbag57
(g78
g59
NtRp488
(dp489
g62
(dp490
g89
g90
ssg71
g480
sg64
(lp491
S':'
asbag57
(g78
g59
NtRp492
(dp493
g62
(dp494
sg71
g480
sg64
(lp495
g57
(g58
g59
NtRp496
(dp497
g62
(dp498
g70
I3
ssg71
g492
sg64
(lp499
S''
asbasbasbag57
(g73
g59
NtRp500
(dp501
g62
(dp502
sg71
g476
sg64
(lp503
g57
(g78
g59
NtRp504
(dp505
g62
(dp506
g82
g83
ssg71
g500
sg64
(lp507
g315
asbag57
(g78
g59
NtRp508
(dp509
g62
(dp510
g89
g90
ssg71
g500
sg64
(lp511
S':'
asbag57
(g78
g59
NtRp512
(dp513
g62
(dp514
sg71
g500
sg64
(lp515
g57
(g58
g59
NtRp516
(dp517
g62
(dp518
g70
I3
ssg71
g512
sg64
(lp519
S''
asbasbasbag57
(g73
g59
NtRp520
(dp521
g62
(dp522
sg71
g476
sg64
(lp523
g57
(g78
g59
NtRp524
(dp525
g62
(dp526
g82
g83
ssg71
g520
sg64
(lp527
g336
asbag57
(g78
g59
NtRp528
(dp529
g62
(dp530
g89
g90
ssg71
g520
sg64
(lp531
S':'
asbag57
(g78
g59
NtRp532
(dp533
g62
(dp534
sg71
g520
sg64
(lp535
g57
(g58
g59
NtRp536
(dp537
g62
(dp538
g70
I3
ssg71
g532
sg64
(lp539
S''
asbasbasbag57
(g73
g59
NtRp540
(dp541
g62
(dp542
sg71
g476
sg64
(lp543
g57
(g78
g59
NtRp544
(dp545
g62
(dp546
g82
g83
ssg71
g540
sg64
(lp547
g357
asbag57
(g78
g59
NtRp548
(dp549
g62
(dp550
g89
g90
ssg71
g540
sg64
(lp551
S':'
asbag57
(g78
g59
NtRp552
(dp553
g62
(dp554
sg71
g540
sg64
(lp555
g57
(g58
g59
NtRp556
(dp557
g62
(dp558
g70
I3
ssg71
g552
sg64
(lp559
S''
asbasbasbag57
(g73
g59
NtRp560
(dp561
g62
(dp562
sg71
g476
sg64
(lp563
g57
(g78
g59
NtRp564
(dp565
g62
(dp566
g82
g83
ssg71
g560
sg64
(lp567
g378
asbag57
(g78
g59
NtRp568
(dp569
g62
(dp570
g89
g90
ssg71
g560
sg64
(lp571
S':'
asbag57
(g78
g59
NtRp572
(dp573
g62
(dp574
sg71
g560
sg64
(lp575
g57
(g58
g59
NtRp576
(dp577
g62
(dp578
g70
I3
ssg71
g572
sg64
(lp579
S''
asbasbasbag57
(g73
g59
NtRp580
(dp581
g62
(dp582
sg71
g476
sg64
(lp583
g57
(g78
g59
NtRp584
(dp585
g62
(dp586
g82
g83
ssg71
g580
sg64
(lp587
g399
asbag57
(g78
g59
NtRp588
(dp589
g62
(dp590
g89
g90
ssg71
g580
sg64
(lp591
S':'
asbag57
(g78
g59
NtRp592
(dp593
g62
(dp594
sg71
g580
sg64
(lp595
g57
(g58
g59
NtRp596
(dp597
g62
(dp598
g70
I3
ssg71
g592
sg64
(lp599
S''
asbasbasbag57
(g73
g59
NtRp600
(dp601
g62
(dp602
sg71
g476
sg64
(lp603
g57
(g78
g59
NtRp604
(dp605
g62
(dp606
g82
g83
ssg71
g600
sg64
(lp607
g420
asbag57
(g78
g59
NtRp608
(dp609
g62
(dp610
g89
g90
ssg71
g600
sg64
(lp611
S':'
asbag57
(g78
g59
NtRp612
(dp613
g62
(dp614
sg71
g600
sg64
(lp615
g57
(g58
g59
NtRp616
(dp617
g62
(dp618
g70
I3
ssg71
g612
sg64
(lp619
S''
asbasbasbag57
(g73
g59
NtRp620
(dp621
g62
(dp622
sg71
g476
sg64
(lp623
g57
(g78
g59
NtRp624
(dp625
g62
(dp626
g82
g83
ssg71
g620
sg64
(lp627
g441
asbag57
(g78
g59
NtRp628
(dp629
g62
(dp630
g89
g90
ssg71
g620
sg64
(lp631
S':'
asbag57
(g78
g59
NtRp632
(dp633
g62
(dp634
sg71
g620
sg64
(lp635
g57
(g58
g59
NtRp636
(dp637
g62
(dp638
g70
I3
ssg71
g632
sg64
(lp639
S''
asbasbasbasbasbasbasbasbasbasbasbag57
(g73
g59
NtRp640
(dp641
g62
(dp642
sg71
g67
sg64
(lp643
g57
(g78
g59
NtRp644
(dp645
g62
(dp646
g82
g83
ssg71
g640
sg64
(lp647
S'env'
p648
asbag57
(g78
g59
NtRp649
(dp650
g62
(dp651
g89
g90
ssg71
g640
sg64
(lp652
S':'
asbag57
(g78
g59
NtRp653
(dp654
g62
(dp655
sg71
g640
sg64
(lp656
g57
(g58
g59
NtRp657
(dp658
g62
(dp659
g70
I5
ssg71
g653
sg64
(lp660
g57
(g66
g59
NtRp661
(dp662
g62
(dp663
g70
I4
ssg71
Nsg64
(lp664
g57
(g73
g59
NtRp665
(dp666
g62
(dp667
sg71
g661
sg64
(lp668
g57
(g78
g59
NtRp669
(dp670
g62
(dp671
g82
g83
ssg71
g665
sg64
(lp672
S'app_folders'
p673
asbag57
(g78
g59
NtRp674
(dp675
g62
(dp676
g89
g90
ssg71
g665
sg64
(lp677
S':'
asbag57
(g78
g59
NtRp678
(dp679
g62
(dp680
sg71
g665
sg64
(lp681
g57
(g58
g59
NtRp682
(dp683
g62
(dp684
g70
I4
ssg71
g678
sg64
(lp685
S"set(['C:\\\\Users\\\\Juliano\\\\Documents\\\\Visual Studio 2012\\\\Projects\\\\PFM-Web\\\\applications\\\\PFM_Web\\\\', 'C:\\\\Users\\\\Juliano\\\\Documents\\\\Visual Studio 2012\\\\Projects\\\\PFM-Web\\\\applications\\\\admin\\\\'])"
p686
asbasbasbag57
(g73
g59
NtRp687
(dp688
g62
(dp689
sg71
g661
sg64
(lp690
g57
(g78
g59
NtRp691
(dp692
g62
(dp693
g82
g83
ssg71
g687
sg64
(lp694
S'applications_parent'
p695
asbag57
(g78
g59
NtRp696
(dp697
g62
(dp698
g89
g90
ssg71
g687
sg64
(lp699
S':'
asbag57
(g78
g59
NtRp700
(dp701
g62
(dp702
sg71
g687
sg64
(lp703
g57
(g58
g59
NtRp704
(dp705
g62
(dp706
g70
I4
ssg71
g700
sg64
(lp707
S'C:\\Users\\Juliano\\Documents\\Visual Studio 2012\\Projects\\PFM-Web'
p708
asbasbasbag57
(g73
g59
NtRp709
(dp710
g62
(dp711
sg71
g661
sg64
(lp712
g57
(g78
g59
NtRp713
(dp714
g62
(dp715
g82
g83
ssg71
g709
sg64
(lp716
S'cmd_args'
p717
asbag57
(g78
g59
NtRp718
(dp719
g62
(dp720
g89
g90
ssg71
g709
sg64
(lp721
S':'
asbag57
(g78
g59
NtRp722
(dp723
g62
(dp724
sg71
g709
sg64
(lp725
g57
(g58
g59
NtRp726
(dp727
g62
(dp728
g70
I4
ssg71
g722
sg64
(lp729
g57
(g66
g59
NtRp730
(dp731
g62
(dp732
g70
I3
ssg71
Nsg64
(lp733
sbasbasbasbag57
(g73
g59
NtRp734
(dp735
g62
(dp736
sg71
g661
sg64
(lp737
g57
(g78
g59
NtRp738
(dp739
g62
(dp740
g82
g83
ssg71
g734
sg64
(lp741
S'cmd_options'
p742
asbag57
(g78
g59
NtRp743
(dp744
g62
(dp745
g89
g90
ssg71
g734
sg64
(lp746
S':'
asbag57
(g78
g59
NtRp747
(dp748
g62
(dp749
sg71
g734
sg64
(lp750
g57
(g58
g59
NtRp751
(dp752
g62
(dp753
g70
I4
ssg71
g747
sg64
(lp754
S"<Values at 0x3426288: {'verbose': False, 'ip': '127.0.0.1', 'with_scheduler': False, 'ips': ['192.168.0.196', 'fe80::2d25:44dc:a58e:afb9%13', '2001:0:9d38:953c:10e6:25ea:3f57:ff3b', 'fe80::10e6:25ea:3f57:ff3b%16'], 'shutdown_timeout': 5, 'taskbar': False, 'port': 8000, 'maxthreads': None, 'softcron': False, 'server_name': 'Hexed', 'bpython': False, 'nogui': False, 'pid_filename': 'httpserver.pid', 'extcron': False, 'runcron': False, 'run_system_tests': False, 'test': None, 'folder': 'C:\\\\Users\\\\Juliano\\\\Documents\\\\Visual Studio 2012\\\\Projects\\\\PFM-Web', 'config': '', 'import_models': False, 'winservice': '', 'shell': None, 'run': '', 'log_filename': 'httpserver.log', 'debuglevel': 30, 'args': [''], 'socket_timeout': 5, 'ssl_ca_certificate': None, 'scheduler': None, 'profiler_filename': None, 'ssl_private_key': '', 'scheduler_groups': None, 'password': '<ask>', 'request_queue_size': 5, 'ssl_certificate': '', 'cronjob': False, 'numthreads': None, 'quiet': False, 'interfaces': None, 'minthreads': None, 'timeout': 10, 'plain': False, 'nobanner': False}>"
p755
asbasbasbag57
(g73
g59
NtRp756
(dp757
g62
(dp758
sg71
g661
sg64
(lp759
g57
(g78
g59
NtRp760
(dp761
g62
(dp762
g82
g83
ssg71
g756
sg64
(lp763
S'db_sessions'
p764
asbag57
(g78
g59
NtRp765
(dp766
g62
(dp767
g89
g90
ssg71
g756
sg64
(lp768
S':'
asbag57
(g78
g59
NtRp769
(dp770
g62
(dp771
sg71
g756
sg64
(lp772
g57
(g58
g59
NtRp773
(dp774
g62
(dp775
g70
I4
ssg71
g769
sg64
(lp776
S'set([])'
p777
asbasbasbag57
(g73
g59
NtRp778
(dp779
g62
(dp780
sg71
g661
sg64
(lp781
g57
(g78
g59
NtRp782
(dp783
g62
(dp784
g82
g83
ssg71
g778
sg64
(lp785
S'debugging'
p786
asbag57
(g78
g59
NtRp787
(dp788
g62
(dp789
g89
g90
ssg71
g778
sg64
(lp790
S':'
asbag57
(g78
g59
NtRp791
(dp792
g62
(dp793
sg71
g778
sg64
(lp794
g57
(g58
g59
NtRp795
(dp796
g62
(dp797
g70
I4
ssg71
g791
sg64
(lp798
g100
asbasbasbag57
(g73
g59
NtRp799
(dp800
g62
(dp801
sg71
g661
sg64
(lp802
g57
(g78
g59
NtRp803
(dp804
g62
(dp805
g82
g83
ssg71
g799
sg64
(lp806
S'gluon_parent'
p807
asbag57
(g78
g59
NtRp808
(dp809
g62
(dp810
g89
g90
ssg71
g799
sg64
(lp811
S':'
asbag57
(g78
g59
NtRp812
(dp813
g62
(dp814
sg71
g799
sg64
(lp815
g57
(g58
g59
NtRp816
(dp817
g62
(dp818
g70
I4
ssg71
g812
sg64
(lp819
S'C:\\Users\\Juliano\\Documents\\Visual Studio 2012\\Projects\\PFM-Web'
p820
asbasbasbag57
(g73
g59
NtRp821
(dp822
g62
(dp823
sg71
g661
sg64
(lp824
g57
(g78
g59
NtRp825
(dp826
g62
(dp827
g82
g83
ssg71
g821
sg64
(lp828
S'http_accept'
p829
asbag57
(g78
g59
NtRp830
(dp831
g62
(dp832
g89
g90
ssg71
g821
sg64
(lp833
S':'
asbag57
(g78
g59
NtRp834
(dp835
g62
(dp836
sg71
g821
sg64
(lp837
g57
(g58
g59
NtRp838
(dp839
g62
(dp840
g70
I4
ssg71
g834
sg64
(lp841
S'text/html, application/xhtml+xml, */*'
p842
asbasbasbag57
(g73
g59
NtRp843
(dp844
g62
(dp845
sg71
g661
sg64
(lp846
g57
(g78
g59
NtRp847
(dp848
g62
(dp849
g82
g83
ssg71
g843
sg64
(lp850
S'http_accept_encoding'
p851
asbag57
(g78
g59
NtRp852
(dp853
g62
(dp854
g89
g90
ssg71
g843
sg64
(lp855
S':'
asbag57
(g78
g59
NtRp856
(dp857
g62
(dp858
sg71
g843
sg64
(lp859
g57
(g58
g59
NtRp860
(dp861
g62
(dp862
g70
I4
ssg71
g856
sg64
(lp863
S'gzip, deflate'
p864
asbasbasbag57
(g73
g59
NtRp865
(dp866
g62
(dp867
sg71
g661
sg64
(lp868
g57
(g78
g59
NtRp869
(dp870
g62
(dp871
g82
g83
ssg71
g865
sg64
(lp872
S'http_accept_language'
p873
asbag57
(g78
g59
NtRp874
(dp875
g62
(dp876
g89
g90
ssg71
g865
sg64
(lp877
S':'
asbag57
(g78
g59
NtRp878
(dp879
g62
(dp880
sg71
g865
sg64
(lp881
g57
(g58
g59
NtRp882
(dp883
g62
(dp884
g70
I4
ssg71
g878
sg64
(lp885
S'pt-BR,pt;q=0.8,en-US;q=0.5,en;q=0.3'
p886
asbasbasbag57
(g73
g59
NtRp887
(dp888
g62
(dp889
sg71
g661
sg64
(lp890
g57
(g78
g59
NtRp891
(dp892
g62
(dp893
g82
g83
ssg71
g887
sg64
(lp894
S'http_connection'
p895
asbag57
(g78
g59
NtRp896
(dp897
g62
(dp898
g89
g90
ssg71
g887
sg64
(lp899
S':'
asbag57
(g78
g59
NtRp900
(dp901
g62
(dp902
sg71
g887
sg64
(lp903
g57
(g58
g59
NtRp904
(dp905
g62
(dp906
g70
I4
ssg71
g900
sg64
(lp907
S'Keep-Alive'
p908
asbasbasbag57
(g73
g59
NtRp909
(dp910
g62
(dp911
sg71
g661
sg64
(lp912
g57
(g78
g59
NtRp913
(dp914
g62
(dp915
g82
g83
ssg71
g909
sg64
(lp916
S'http_cookie'
p917
asbag57
(g78
g59
NtRp918
(dp919
g62
(dp920
g89
g90
ssg71
g909
sg64
(lp921
S':'
asbag57
(g78
g59
NtRp922
(dp923
g62
(dp924
sg71
g909
sg64
(lp925
g57
(g58
g59
NtRp926
(dp927
g62
(dp928
g70
I4
ssg71
g922
sg64
(lp929
S'session_id_admin=127.0.0.1-e12d6916-8656-4736-b975-72200c915786; session_id_pfm_web=127.0.0.1-140a1922-a5d0-44eb-9a21-a4c388e16f08'
p930
asbasbasbag57
(g73
g59
NtRp931
(dp932
g62
(dp933
sg71
g661
sg64
(lp934
g57
(g78
g59
NtRp935
(dp936
g62
(dp937
g82
g83
ssg71
g931
sg64
(lp938
S'http_dnt'
p939
asbag57
(g78
g59
NtRp940
(dp941
g62
(dp942
g89
g90
ssg71
g931
sg64
(lp943
S':'
asbag57
(g78
g59
NtRp944
(dp945
g62
(dp946
sg71
g931
sg64
(lp947
g57
(g58
g59
NtRp948
(dp949
g62
(dp950
g70
I4
ssg71
g944
sg64
(lp951
S'1'
asbasbasbag57
(g73
g59
NtRp952
(dp953
g62
(dp954
sg71
g661
sg64
(lp955
g57
(g78
g59
NtRp956
(dp957
g62
(dp958
g82
g83
ssg71
g952
sg64
(lp959
S'http_host'
p960
asbag57
(g78
g59
NtRp961
(dp962
g62
(dp963
g89
g90
ssg71
g952
sg64
(lp964
S':'
asbag57
(g78
g59
NtRp965
(dp966
g62
(dp967
sg71
g952
sg64
(lp968
g57
(g58
g59
NtRp969
(dp970
g62
(dp971
g70
I4
ssg71
g965
sg64
(lp972
S'127.0.0.1:8000'
p973
asbasbasbag57
(g73
g59
NtRp974
(dp975
g62
(dp976
sg71
g661
sg64
(lp977
g57
(g78
g59
NtRp978
(dp979
g62
(dp980
g82
g83
ssg71
g974
sg64
(lp981
S'http_referer'
p982
asbag57
(g78
g59
NtRp983
(dp984
g62
(dp985
g89
g90
ssg71
g974
sg64
(lp986
S':'
asbag57
(g78
g59
NtRp987
(dp988
g62
(dp989
sg71
g974
sg64
(lp990
g57
(g58
g59
NtRp991
(dp992
g62
(dp993
g70
I4
ssg71
g987
sg64
(lp994
S'http://127.0.0.1:8000/PFM_Web/expenses/index'
p995
asbasbasbag57
(g73
g59
NtRp996
(dp997
g62
(dp998
sg71
g661
sg64
(lp999
g57
(g78
g59
NtRp1000
(dp1001
g62
(dp1002
g82
g83
ssg71
g996
sg64
(lp1003
S'http_user_agent'
p1004
asbag57
(g78
g59
NtRp1005
(dp1006
g62
(dp1007
g89
g90
ssg71
g996
sg64
(lp1008
S':'
asbag57
(g78
g59
NtRp1009
(dp1010
g62
(dp1011
sg71
g996
sg64
(lp1012
g57
(g58
g59
NtRp1013
(dp1014
g62
(dp1015
g70
I4
ssg71
g1009
sg64
(lp1016
S'Mozilla/5.0 (compatible; MSIE 10.0; Windows NT 6.2; WOW64; Trident/6.0)'
p1017
asbasbasbag57
(g73
g59
NtRp1018
(dp1019
g62
(dp1020
sg71
g661
sg64
(lp1021
g57
(g78
g59
NtRp1022
(dp1023
g62
(dp1024
g82
g83
ssg71
g1018
sg64
(lp1025
S'is_jython'
p1026
asbag57
(g78
g59
NtRp1027
(dp1028
g62
(dp1029
g89
g90
ssg71
g1018
sg64
(lp1030
S':'
asbag57
(g78
g59
NtRp1031
(dp1032
g62
(dp1033
sg71
g1018
sg64
(lp1034
g57
(g58
g59
NtRp1035
(dp1036
g62
(dp1037
g70
I4
ssg71
g1031
sg64
(lp1038
g100
asbasbasbag57
(g73
g59
NtRp1039
(dp1040
g62
(dp1041
sg71
g661
sg64
(lp1042
g57
(g78
g59
NtRp1043
(dp1044
g62
(dp1045
g82
g83
ssg71
g1039
sg64
(lp1046
S'is_pypy'
p1047
asbag57
(g78
g59
NtRp1048
(dp1049
g62
(dp1050
g89
g90
ssg71
g1039
sg64
(lp1051
S':'
asbag57
(g78
g59
NtRp1052
(dp1053
g62
(dp1054
sg71
g1039
sg64
(lp1055
g57
(g58
g59
NtRp1056
(dp1057
g62
(dp1058
g70
I4
ssg71
g1052
sg64
(lp1059
g100
asbasbasbag57
(g73
g59
NtRp1060
(dp1061
g62
(dp1062
sg71
g661
sg64
(lp1063
g57
(g78
g59
NtRp1064
(dp1065
g62
(dp1066
g82
g83
ssg71
g1060
sg64
(lp1067
S'local_hosts'
p1068
asbag57
(g78
g59
NtRp1069
(dp1070
g62
(dp1071
g89
g90
ssg71
g1060
sg64
(lp1072
S':'
asbag57
(g78
g59
NtRp1073
(dp1074
g62
(dp1075
sg71
g1060
sg64
(lp1076
g57
(g58
g59
NtRp1077
(dp1078
g62
(dp1079
g70
I4
ssg71
g1073
sg64
(lp1080
g57
(g66
g59
NtRp1081
(dp1082
g62
(dp1083
g70
I3
ssg71
Nsg64
(lp1084
g57
(g73
g59
NtRp1085
(dp1086
g62
(dp1087
sg71
g1081
sg64
(lp1088
g57
(g78
g59
NtRp1089
(dp1090
g62
(dp1091
sg71
g1085
sg64
(lp1092
g57
(g58
g59
NtRp1093
(dp1094
g62
(dp1095
g70
I3
ssg71
g1089
sg64
(lp1096
S'192.168.0.196'
p1097
asbasbasbag57
(g73
g59
NtRp1098
(dp1099
g62
(dp1100
sg71
g1081
sg64
(lp1101
g57
(g78
g59
NtRp1102
(dp1103
g62
(dp1104
sg71
g1098
sg64
(lp1105
g57
(g58
g59
NtRp1106
(dp1107
g62
(dp1108
g70
I3
ssg71
g1102
sg64
(lp1109
S'2001:0:9d38:953c:10e6:25ea:3f57:ff3b'
p1110
asbasbasbag57
(g73
g59
NtRp1111
(dp1112
g62
(dp1113
sg71
g1081
sg64
(lp1114
g57
(g78
g59
NtRp1115
(dp1116
g62
(dp1117
sg71
g1111
sg64
(lp1118
g57
(g58
g59
NtRp1119
(dp1120
g62
(dp1121
g70
I3
ssg71
g1115
sg64
(lp1122
S'::ffff:127.0.0.1'
p1123
asbasbasbag57
(g73
g59
NtRp1124
(dp1125
g62
(dp1126
sg71
g1081
sg64
(lp1127
g57
(g78
g59
NtRp1128
(dp1129
g62
(dp1130
sg71
g1124
sg64
(lp1131
g57
(g58
g59
NtRp1132
(dp1133
g62
(dp1134
g70
I3
ssg71
g1128
sg64
(lp1135
S'::1'
p1136
asbasbasbag57
(g73
g59
NtRp1137
(dp1138
g62
(dp1139
sg71
g1081
sg64
(lp1140
g57
(g78
g59
NtRp1141
(dp1142
g62
(dp1143
sg71
g1137
sg64
(lp1144
g57
(g58
g59
NtRp1145
(dp1146
g62
(dp1147
g70
I3
ssg71
g1141
sg64
(lp1148
S'fe80::10e6:25ea:3f57:ff3b%16'
p1149
asbasbasbag57
(g73
g59
NtRp1150
(dp1151
g62
(dp1152
sg71
g1081
sg64
(lp1153
g57
(g78
g59
NtRp1154
(dp1155
g62
(dp1156
sg71
g1150
sg64
(lp1157
g57
(g58
g59
NtRp1158
(dp1159
g62
(dp1160
g70
I3
ssg71
g1154
sg64
(lp1161
S'fe80::2d25:44dc:a58e:afb9%13'
p1162
asbasbasbag57
(g73
g59
NtRp1163
(dp1164
g62
(dp1165
sg71
g1081
sg64
(lp1166
g57
(g78
g59
NtRp1167
(dp1168
g62
(dp1169
sg71
g1163
sg64
(lp1170
g57
(g58
g59
NtRp1171
(dp1172
g62
(dp1173
g70
I3
ssg71
g1167
sg64
(lp1174
S'Hexed'
p1175
asbasbasbag57
(g73
g59
NtRp1176
(dp1177
g62
(dp1178
sg71
g1081
sg64
(lp1179
g57
(g78
g59
NtRp1180
(dp1181
g62
(dp1182
sg71
g1176
sg64
(lp1183
g57
(g58
g59
NtRp1184
(dp1185
g62
(dp1186
g70
I3
ssg71
g1180
sg64
(lp1187
S'127.0.0.1'
p1188
asbasbasbasbasbasbasbag57
(g73
g59
NtRp1189
(dp1190
g62
(dp1191
sg71
g661
sg64
(lp1192
g57
(g78
g59
NtRp1193
(dp1194
g62
(dp1195
g82
g83
ssg71
g1189
sg64
(lp1196
S'path_info'
p1197
asbag57
(g78
g59
NtRp1198
(dp1199
g62
(dp1200
g89
g90
ssg71
g1189
sg64
(lp1201
S':'
asbag57
(g78
g59
NtRp1202
(dp1203
g62
(dp1204
sg71
g1189
sg64
(lp1205
g57
(g58
g59
NtRp1206
(dp1207
g62
(dp1208
g70
I4
ssg71
g1202
sg64
(lp1209
S'/PFM_Web/default/index'
p1210
asbasbasbag57
(g73
g59
NtRp1211
(dp1212
g62
(dp1213
sg71
g661
sg64
(lp1214
g57
(g78
g59
NtRp1215
(dp1216
g62
(dp1217
g82
g83
ssg71
g1211
sg64
(lp1218
S'query_string'
p1219
asbag57
(g78
g59
NtRp1220
(dp1221
g62
(dp1222
g89
g90
ssg71
g1211
sg64
(lp1223
S':'
asbag57
(g78
g59
NtRp1224
(dp1225
g62
(dp1226
sg71
g1211
sg64
(lp1227
g57
(g58
g59
NtRp1228
(dp1229
g62
(dp1230
g70
I4
ssg71
g1224
sg64
(lp1231
S''
asbasbasbag57
(g73
g59
NtRp1232
(dp1233
g62
(dp1234
sg71
g661
sg64
(lp1235
g57
(g78
g59
NtRp1236
(dp1237
g62
(dp1238
g82
g83
ssg71
g1232
sg64
(lp1239
S'remote_addr'
p1240
asbag57
(g78
g59
NtRp1241
(dp1242
g62
(dp1243
g89
g90
ssg71
g1232
sg64
(lp1244
S':'
asbag57
(g78
g59
NtRp1245
(dp1246
g62
(dp1247
sg71
g1232
sg64
(lp1248
g57
(g58
g59
NtRp1249
(dp1250
g62
(dp1251
g70
I4
ssg71
g1245
sg64
(lp1252
g212
asbasbasbag57
(g73
g59
NtRp1253
(dp1254
g62
(dp1255
sg71
g661
sg64
(lp1256
g57
(g78
g59
NtRp1257
(dp1258
g62
(dp1259
g82
g83
ssg71
g1253
sg64
(lp1260
S'remote_port'
p1261
asbag57
(g78
g59
NtRp1262
(dp1263
g62
(dp1264
g89
g90
ssg71
g1253
sg64
(lp1265
S':'
asbag57
(g78
g59
NtRp1266
(dp1267
g62
(dp1268
sg71
g1253
sg64
(lp1269
g57
(g58
g59
NtRp1270
(dp1271
g62
(dp1272
g70
I4
ssg71
g1266
sg64
(lp1273
S'64852'
p1274
asbasbasbag57
(g73
g59
NtRp1275
(dp1276
g62
(dp1277
sg71
g661
sg64
(lp1278
g57
(g78
g59
NtRp1279
(dp1280
g62
(dp1281
g82
g83
ssg71
g1275
sg64
(lp1282
S'request_method'
p1283
asbag57
(g78
g59
NtRp1284
(dp1285
g62
(dp1286
g89
g90
ssg71
g1275
sg64
(lp1287
S':'
asbag57
(g78
g59
NtRp1288
(dp1289
g62
(dp1290
sg71
g1275
sg64
(lp1291
g57
(g58
g59
NtRp1292
(dp1293
g62
(dp1294
g70
I4
ssg71
g1288
sg64
(lp1295
S'GET'
p1296
asbasbasbag57
(g73
g59
NtRp1297
(dp1298
g62
(dp1299
sg71
g661
sg64
(lp1300
g57
(g78
g59
NtRp1301
(dp1302
g62
(dp1303
g82
g83
ssg71
g1297
sg64
(lp1304
S'request_uri'
p1305
asbag57
(g78
g59
NtRp1306
(dp1307
g62
(dp1308
g89
g90
ssg71
g1297
sg64
(lp1309
S':'
asbag57
(g78
g59
NtRp1310
(dp1311
g62
(dp1312
sg71
g1297
sg64
(lp1313
g57
(g58
g59
NtRp1314
(dp1315
g62
(dp1316
g70
I4
ssg71
g1310
sg64
(lp1317
g1210
asbasbasbag57
(g73
g59
NtRp1318
(dp1319
g62
(dp1320
sg71
g661
sg64
(lp1321
g57
(g78
g59
NtRp1322
(dp1323
g62
(dp1324
g82
g83
ssg71
g1318
sg64
(lp1325
S'script_name'
p1326
asbag57
(g78
g59
NtRp1327
(dp1328
g62
(dp1329
g89
g90
ssg71
g1318
sg64
(lp1330
S':'
asbag57
(g78
g59
NtRp1331
(dp1332
g62
(dp1333
sg71
g1318
sg64
(lp1334
g57
(g58
g59
NtRp1335
(dp1336
g62
(dp1337
g70
I4
ssg71
g1331
sg64
(lp1338
S''
asbasbasbag57
(g73
g59
NtRp1339
(dp1340
g62
(dp1341
sg71
g661
sg64
(lp1342
g57
(g78
g59
NtRp1343
(dp1344
g62
(dp1345
g82
g83
ssg71
g1339
sg64
(lp1346
S'server_name'
p1347
asbag57
(g78
g59
NtRp1348
(dp1349
g62
(dp1350
g89
g90
ssg71
g1339
sg64
(lp1351
S':'
asbag57
(g78
g59
NtRp1352
(dp1353
g62
(dp1354
sg71
g1339
sg64
(lp1355
g57
(g58
g59
NtRp1356
(dp1357
g62
(dp1358
g70
I4
ssg71
g1352
sg64
(lp1359
S'Hexed'
p1360
asbasbasbag57
(g73
g59
NtRp1361
(dp1362
g62
(dp1363
sg71
g661
sg64
(lp1364
g57
(g78
g59
NtRp1365
(dp1366
g62
(dp1367
g82
g83
ssg71
g1361
sg64
(lp1368
S'server_port'
p1369
asbag57
(g78
g59
NtRp1370
(dp1371
g62
(dp1372
g89
g90
ssg71
g1361
sg64
(lp1373
S':'
asbag57
(g78
g59
NtRp1374
(dp1375
g62
(dp1376
sg71
g1361
sg64
(lp1377
g57
(g58
g59
NtRp1378
(dp1379
g62
(dp1380
g70
I4
ssg71
g1374
sg64
(lp1381
S'8000'
p1382
asbasbasbag57
(g73
g59
NtRp1383
(dp1384
g62
(dp1385
sg71
g661
sg64
(lp1386
g57
(g78
g59
NtRp1387
(dp1388
g62
(dp1389
g82
g83
ssg71
g1383
sg64
(lp1390
S'server_protocol'
p1391
asbag57
(g78
g59
NtRp1392
(dp1393
g62
(dp1394
g89
g90
ssg71
g1383
sg64
(lp1395
S':'
asbag57
(g78
g59
NtRp1396
(dp1397
g62
(dp1398
sg71
g1383
sg64
(lp1399
g57
(g58
g59
NtRp1400
(dp1401
g62
(dp1402
g70
I4
ssg71
g1396
sg64
(lp1403
S'HTTP/1.1'
p1404
asbasbasbag57
(g73
g59
NtRp1405
(dp1406
g62
(dp1407
sg71
g661
sg64
(lp1408
g57
(g78
g59
NtRp1409
(dp1410
g62
(dp1411
g82
g83
ssg71
g1405
sg64
(lp1412
S'server_software'
p1413
asbag57
(g78
g59
NtRp1414
(dp1415
g62
(dp1416
g89
g90
ssg71
g1405
sg64
(lp1417
S':'
asbag57
(g78
g59
NtRp1418
(dp1419
g62
(dp1420
sg71
g1405
sg64
(lp1421
g57
(g58
g59
NtRp1422
(dp1423
g62
(dp1424
g70
I4
ssg71
g1418
sg64
(lp1425
S'Rocket 1.2.6'
p1426
asbasbasbag57
(g73
g59
NtRp1427
(dp1428
g62
(dp1429
sg71
g661
sg64
(lp1430
g57
(g78
g59
NtRp1431
(dp1432
g62
(dp1433
g82
g83
ssg71
g1427
sg64
(lp1434
S'web2py_original_uri'
p1435
asbag57
(g78
g59
NtRp1436
(dp1437
g62
(dp1438
g89
g90
ssg71
g1427
sg64
(lp1439
S':'
asbag57
(g78
g59
NtRp1440
(dp1441
g62
(dp1442
sg71
g1427
sg64
(lp1443
g57
(g58
g59
NtRp1444
(dp1445
g62
(dp1446
g70
I4
ssg71
g1440
sg64
(lp1447
S'/PFM_Web/default/index'
p1448
asbasbasbag57
(g73
g59
NtRp1449
(dp1450
g62
(dp1451
sg71
g661
sg64
(lp1452
g57
(g78
g59
NtRp1453
(dp1454
g62
(dp1455
g82
g83
ssg71
g1449
sg64
(lp1456
S'web2py_path'
p1457
asbag57
(g78
g59
NtRp1458
(dp1459
g62
(dp1460
g89
g90
ssg71
g1449
sg64
(lp1461
S':'
asbag57
(g78
g59
NtRp1462
(dp1463
g62
(dp1464
sg71
g1449
sg64
(lp1465
g57
(g58
g59
NtRp1466
(dp1467
g62
(dp1468
g70
I4
ssg71
g1462
sg64
(lp1469
g708
asbasbasbag57
(g73
g59
NtRp1470
(dp1471
g62
(dp1472
sg71
g661
sg64
(lp1473
g57
(g78
g59
NtRp1474
(dp1475
g62
(dp1476
g82
g83
ssg71
g1470
sg64
(lp1477
S'web2py_version'
p1478
asbag57
(g78
g59
NtRp1479
(dp1480
g62
(dp1481
g89
g90
ssg71
g1470
sg64
(lp1482
S':'
asbag57
(g78
g59
NtRp1483
(dp1484
g62
(dp1485
sg71
g1470
sg64
(lp1486
g57
(g58
g59
NtRp1487
(dp1488
g62
(dp1489
g70
I4
ssg71
g1483
sg64
(lp1490
g57
(g66
g59
NtRp1491
(dp1492
g62
(dp1493
g70
I3
ssg71
Nsg64
(lp1494
g57
(g73
g59
NtRp1495
(dp1496
g62
(dp1497
sg71
g1491
sg64
(lp1498
g57
(g78
g59
NtRp1499
(dp1500
g62
(dp1501
sg71
g1495
sg64
(lp1502
g57
(g58
g59
NtRp1503
(dp1504
g62
(dp1505
g70
I3
ssg71
g1499
sg64
(lp1506
S'2'
asbasbasbag57
(g73
g59
NtRp1507
(dp1508
g62
(dp1509
sg71
g1491
sg64
(lp1510
g57
(g78
g59
NtRp1511
(dp1512
g62
(dp1513
sg71
g1507
sg64
(lp1514
g57
(g58
g59
NtRp1515
(dp1516
g62
(dp1517
g70
I3
ssg71
g1511
sg64
(lp1518
S'3'
asbasbasbag57
(g73
g59
NtRp1519
(dp1520
g62
(dp1521
sg71
g1491
sg64
(lp1522
g57
(g78
g59
NtRp1523
(dp1524
g62
(dp1525
sg71
g1519
sg64
(lp1526
g57
(g58
g59
NtRp1527
(dp1528
g62
(dp1529
g70
I3
ssg71
g1523
sg64
(lp1530
S'2'
asbasbasbag57
(g73
g59
NtRp1531
(dp1532
g62
(dp1533
sg71
g1491
sg64
(lp1534
g57
(g78
g59
NtRp1535
(dp1536
g62
(dp1537
sg71
g1531
sg64
(lp1538
g57
(g58
g59
NtRp1539
(dp1540
g62
(dp1541
g70
I3
ssg71
g1535
sg64
(lp1542
S'datetime.datetime(2012, 12, 17, 15, 3, 30)'
p1543
asbasbasbag57
(g73
g59
NtRp1544
(dp1545
g62
(dp1546
sg71
g1491
sg64
(lp1547
g57
(g78
g59
NtRp1548
(dp1549
g62
(dp1550
sg71
g1544
sg64
(lp1551
g57
(g58
g59
NtRp1552
(dp1553
g62
(dp1554
g70
I3
ssg71
g1548
sg64
(lp1555
S'stable'
p1556
asbasbasbasbasbasbasbag57
(g73
g59
NtRp1557
(dp1558
g62
(dp1559
sg71
g661
sg64
(lp1560
g57
(g78
g59
NtRp1561
(dp1562
g62
(dp1563
g82
g83
ssg71
g1557
sg64
(lp1564
S'wsgi_errors'
p1565
asbag57
(g78
g59
NtRp1566
(dp1567
g62
(dp1568
g89
g90
ssg71
g1557
sg64
(lp1569
S':'
asbag57
(g78
g59
NtRp1570
(dp1571
g62
(dp1572
sg71
g1557
sg64
(lp1573
g57
(g58
g59
NtRp1574
(dp1575
g62
(dp1576
g70
I4
ssg71
g1570
sg64
(lp1577
S"<open file '<stderr>', mode 'w' at 0x0000000001D871E0>"
p1578
asbasbasbag57
(g73
g59
NtRp1579
(dp1580
g62
(dp1581
sg71
g661
sg64
(lp1582
g57
(g78
g59
NtRp1583
(dp1584
g62
(dp1585
g82
g83
ssg71
g1579
sg64
(lp1586
S'wsgi_file_wrapper'
p1587
asbag57
(g78
g59
NtRp1588
(dp1589
g62
(dp1590
g89
g90
ssg71
g1579
sg64
(lp1591
S':'
asbag57
(g78
g59
NtRp1592
(dp1593
g62
(dp1594
sg71
g1579
sg64
(lp1595
g57
(g58
g59
NtRp1596
(dp1597
g62
(dp1598
g70
I4
ssg71
g1592
sg64
(lp1599
S'<class wsgiref.util.FileWrapper at 0x00000000033AE7C8>'
p1600
asbasbasbag57
(g73
g59
NtRp1601
(dp1602
g62
(dp1603
sg71
g661
sg64
(lp1604
g57
(g78
g59
NtRp1605
(dp1606
g62
(dp1607
g82
g83
ssg71
g1601
sg64
(lp1608
S'wsgi_input'
p1609
asbag57
(g78
g59
NtRp1610
(dp1611
g62
(dp1612
g89
g90
ssg71
g1601
sg64
(lp1613
S':'
asbag57
(g78
g59
NtRp1614
(dp1615
g62
(dp1616
sg71
g1601
sg64
(lp1617
g57
(g58
g59
NtRp1618
(dp1619
g62
(dp1620
g70
I4
ssg71
g1614
sg64
(lp1621
S'<socket._fileobject object at 0x0000000004C86138>'
p1622
asbasbasbag57
(g73
g59
NtRp1623
(dp1624
g62
(dp1625
sg71
g661
sg64
(lp1626
g57
(g78
g59
NtRp1627
(dp1628
g62
(dp1629
g82
g83
ssg71
g1623
sg64
(lp1630
S'wsgi_multiprocess'
p1631
asbag57
(g78
g59
NtRp1632
(dp1633
g62
(dp1634
g89
g90
ssg71
g1623
sg64
(lp1635
S':'
asbag57
(g78
g59
NtRp1636
(dp1637
g62
(dp1638
sg71
g1623
sg64
(lp1639
g57
(g58
g59
NtRp1640
(dp1641
g62
(dp1642
g70
I4
ssg71
g1636
sg64
(lp1643
g100
asbasbasbag57
(g73
g59
NtRp1644
(dp1645
g62
(dp1646
sg71
g661
sg64
(lp1647
g57
(g78
g59
NtRp1648
(dp1649
g62
(dp1650
g82
g83
ssg71
g1644
sg64
(lp1651
S'wsgi_multithread'
p1652
asbag57
(g78
g59
NtRp1653
(dp1654
g62
(dp1655
g89
g90
ssg71
g1644
sg64
(lp1656
S':'
asbag57
(g78
g59
NtRp1657
(dp1658
g62
(dp1659
sg71
g1644
sg64
(lp1660
g57
(g58
g59
NtRp1661
(dp1662
g62
(dp1663
g70
I4
ssg71
g1657
sg64
(lp1664
S'True'
p1665
asbasbasbag57
(g73
g59
NtRp1666
(dp1667
g62
(dp1668
sg71
g661
sg64
(lp1669
g57
(g78
g59
NtRp1670
(dp1671
g62
(dp1672
g82
g83
ssg71
g1666
sg64
(lp1673
S'wsgi_run_once'
p1674
asbag57
(g78
g59
NtRp1675
(dp1676
g62
(dp1677
g89
g90
ssg71
g1666
sg64
(lp1678
S':'
asbag57
(g78
g59
NtRp1679
(dp1680
g62
(dp1681
sg71
g1666
sg64
(lp1682
g57
(g58
g59
NtRp1683
(dp1684
g62
(dp1685
g70
I4
ssg71
g1679
sg64
(lp1686
g100
asbasbasbag57
(g73
g59
NtRp1687
(dp1688
g62
(dp1689
sg71
g661
sg64
(lp1690
g57
(g78
g59
NtRp1691
(dp1692
g62
(dp1693
g82
g83
ssg71
g1687
sg64
(lp1694
S'wsgi_url_scheme'
p1695
asbag57
(g78
g59
NtRp1696
(dp1697
g62
(dp1698
g89
g90
ssg71
g1687
sg64
(lp1699
S':'
asbag57
(g78
g59
NtRp1700
(dp1701
g62
(dp1702
sg71
g1687
sg64
(lp1703
g57
(g58
g59
NtRp1704
(dp1705
g62
(dp1706
g70
I4
ssg71
g1700
sg64
(lp1707
S'http'
p1708
asbasbasbag57
(g73
g59
NtRp1709
(dp1710
g62
(dp1711
sg71
g661
sg64
(lp1712
g57
(g78
g59
NtRp1713
(dp1714
g62
(dp1715
g82
g83
ssg71
g1709
sg64
(lp1716
S'wsgi_version'
p1717
asbag57
(g78
g59
NtRp1718
(dp1719
g62
(dp1720
g89
g90
ssg71
g1709
sg64
(lp1721
S':'
asbag57
(g78
g59
NtRp1722
(dp1723
g62
(dp1724
sg71
g1709
sg64
(lp1725
g57
(g58
g59
NtRp1726
(dp1727
g62
(dp1728
g70
I4
ssg71
g1722
sg64
(lp1729
g57
(g66
g59
NtRp1730
(dp1731
g62
(dp1732
g70
I3
ssg71
Nsg64
(lp1733
g57
(g73
g59
NtRp1734
(dp1735
g62
(dp1736
sg71
g1730
sg64
(lp1737
g57
(g78
g59
NtRp1738
(dp1739
g62
(dp1740
sg71
g1734
sg64
(lp1741
g57
(g58
g59
NtRp1742
(dp1743
g62
(dp1744
g70
I3
ssg71
g1738
sg64
(lp1745
S'1'
asbasbasbag57
(g73
g59
NtRp1746
(dp1747
g62
(dp1748
sg71
g1730
sg64
(lp1749
g57
(g78
g59
NtRp1750
(dp1751
g62
(dp1752
sg71
g1746
sg64
(lp1753
g57
(g58
g59
NtRp1754
(dp1755
g62
(dp1756
g70
I3
ssg71
g1750
sg64
(lp1757
S'0'
asbasbasbasbasbasbasbasbasbasbasbag57
(g73
g59
NtRp1758
(dp1759
g62
(dp1760
sg71
g67
sg64
(lp1761
g57
(g78
g59
NtRp1762
(dp1763
g62
(dp1764
g82
g83
ssg71
g1758
sg64
(lp1765
S'extension'
p1766
asbag57
(g78
g59
NtRp1767
(dp1768
g62
(dp1769
g89
g90
ssg71
g1758
sg64
(lp1770
S':'
asbag57
(g78
g59
NtRp1771
(dp1772
g62
(dp1773
sg71
g1758
sg64
(lp1774
g57
(g58
g59
NtRp1775
(dp1776
g62
(dp1777
g70
I5
ssg71
g1771
sg64
(lp1778
S'html'
p1779
asbasbasbag57
(g73
g59
NtRp1780
(dp1781
g62
(dp1782
sg71
g67
sg64
(lp1783
g57
(g78
g59
NtRp1784
(dp1785
g62
(dp1786
g82
g83
ssg71
g1780
sg64
(lp1787
S'folder'
p1788
asbag57
(g78
g59
NtRp1789
(dp1790
g62
(dp1791
g89
g90
ssg71
g1780
sg64
(lp1792
S':'
asbag57
(g78
g59
NtRp1793
(dp1794
g62
(dp1795
sg71
g1780
sg64
(lp1796
g57
(g58
g59
NtRp1797
(dp1798
g62
(dp1799
g70
I5
ssg71
g1793
sg64
(lp1800
S'C:\\Users\\Juliano\\Documents\\Visual Studio 2012\\Projects\\PFM-Web\\applications\\PFM_Web\\'
p1801
asbasbasbag57
(g73
g59
NtRp1802
(dp1803
g62
(dp1804
sg71
g67
sg64
(lp1805
g57
(g78
g59
NtRp1806
(dp1807
g62
(dp1808
g82
g83
ssg71
g1802
sg64
(lp1809
S'function'
p1810
asbag57
(g78
g59
NtRp1811
(dp1812
g62
(dp1813
g89
g90
ssg71
g1802
sg64
(lp1814
S':'
asbag57
(g78
g59
NtRp1815
(dp1816
g62
(dp1817
sg71
g1802
sg64
(lp1818
g57
(g58
g59
NtRp1819
(dp1820
g62
(dp1821
g70
I5
ssg71
g1815
sg64
(lp1822
S'index'
p1823
asbasbasbag57
(g73
g59
NtRp1824
(dp1825
g62
(dp1826
sg71
g67
sg64
(lp1827
g57
(g78
g59
NtRp1828
(dp1829
g62
(dp1830
g82
g83
ssg71
g1824
sg64
(lp1831
S'get_vars'
p1832
asbag57
(g78
g59
NtRp1833
(dp1834
g62
(dp1835
g89
g90
ssg71
g1824
sg64
(lp1836
S':'
asbag57
(g78
g59
NtRp1837
(dp1838
g62
(dp1839
sg71
g1824
sg64
(lp1840
g57
(g58
g59
NtRp1841
(dp1842
g62
(dp1843
g70
I5
ssg71
g1837
sg64
(lp1844
g57
(g66
g59
NtRp1845
(dp1846
g62
(dp1847
g70
I4
ssg71
Nsg64
(lp1848
sbasbasbasbag57
(g73
g59
NtRp1849
(dp1850
g62
(dp1851
sg71
g67
sg64
(lp1852
g57
(g78
g59
NtRp1853
(dp1854
g62
(dp1855
g82
g83
ssg71
g1849
sg64
(lp1856
S'global_settings'
p1857
asbag57
(g78
g59
NtRp1858
(dp1859
g62
(dp1860
g89
g90
ssg71
g1849
sg64
(lp1861
S':'
asbag57
(g78
g59
NtRp1862
(dp1863
g62
(dp1864
sg71
g1849
sg64
(lp1865
g57
(g58
g59
NtRp1866
(dp1867
g62
(dp1868
g70
I5
ssg71
g1862
sg64
(lp1869
g57
(g66
g59
NtRp1870
(dp1871
g62
(dp1872
g70
I4
ssg71
Nsg64
(lp1873
g57
(g73
g59
NtRp1874
(dp1875
g62
(dp1876
sg71
g1870
sg64
(lp1877
g57
(g78
g59
NtRp1878
(dp1879
g62
(dp1880
g82
g83
ssg71
g1874
sg64
(lp1881
g673
asbag57
(g78
g59
NtRp1882
(dp1883
g62
(dp1884
g89
g90
ssg71
g1874
sg64
(lp1885
S':'
asbag57
(g78
g59
NtRp1886
(dp1887
g62
(dp1888
sg71
g1874
sg64
(lp1889
g57
(g58
g59
NtRp1890
(dp1891
g62
(dp1892
g70
I4
ssg71
g1886
sg64
(lp1893
S"set(['C:\\\\Users\\\\Juliano\\\\Documents\\\\Visual Studio 2012\\\\Projects\\\\PFM-Web\\\\applications\\\\PFM_Web\\\\', 'C:\\\\Users\\\\Juliano\\\\Documents\\\\Visual Studio 2012\\\\Projects\\\\PFM-Web\\\\applications\\\\admin\\\\'])"
p1894
asbasbasbag57
(g73
g59
NtRp1895
(dp1896
g62
(dp1897
sg71
g1870
sg64
(lp1898
g57
(g78
g59
NtRp1899
(dp1900
g62
(dp1901
g82
g83
ssg71
g1895
sg64
(lp1902
g695
asbag57
(g78
g59
NtRp1903
(dp1904
g62
(dp1905
g89
g90
ssg71
g1895
sg64
(lp1906
S':'
asbag57
(g78
g59
NtRp1907
(dp1908
g62
(dp1909
sg71
g1895
sg64
(lp1910
g57
(g58
g59
NtRp1911
(dp1912
g62
(dp1913
g70
I4
ssg71
g1907
sg64
(lp1914
g708
asbasbasbag57
(g73
g59
NtRp1915
(dp1916
g62
(dp1917
sg71
g1870
sg64
(lp1918
g57
(g78
g59
NtRp1919
(dp1920
g62
(dp1921
g82
g83
ssg71
g1915
sg64
(lp1922
g717
asbag57
(g78
g59
NtRp1923
(dp1924
g62
(dp1925
g89
g90
ssg71
g1915
sg64
(lp1926
S':'
asbag57
(g78
g59
NtRp1927
(dp1928
g62
(dp1929
sg71
g1915
sg64
(lp1930
g57
(g58
g59
NtRp1931
(dp1932
g62
(dp1933
g70
I4
ssg71
g1927
sg64
(lp1934
g57
(g66
g59
NtRp1935
(dp1936
g62
(dp1937
g70
I3
ssg71
Nsg64
(lp1938
sbasbasbasbag57
(g73
g59
NtRp1939
(dp1940
g62
(dp1941
sg71
g1870
sg64
(lp1942
g57
(g78
g59
NtRp1943
(dp1944
g62
(dp1945
g82
g83
ssg71
g1939
sg64
(lp1946
g742
asbag57
(g78
g59
NtRp1947
(dp1948
g62
(dp1949
g89
g90
ssg71
g1939
sg64
(lp1950
S':'
asbag57
(g78
g59
NtRp1951
(dp1952
g62
(dp1953
sg71
g1939
sg64
(lp1954
g57
(g58
g59
NtRp1955
(dp1956
g62
(dp1957
g70
I4
ssg71
g1951
sg64
(lp1958
S"<Values at 0x3426288: {'verbose': False, 'ip': '127.0.0.1', 'with_scheduler': False, 'ips': ['192.168.0.196', 'fe80::2d25:44dc:a58e:afb9%13', '2001:0:9d38:953c:10e6:25ea:3f57:ff3b', 'fe80::10e6:25ea:3f57:ff3b%16'], 'shutdown_timeout': 5, 'taskbar': False, 'port': 8000, 'maxthreads': None, 'softcron': False, 'server_name': 'Hexed', 'bpython': False, 'nogui': False, 'pid_filename': 'httpserver.pid', 'extcron': False, 'runcron': False, 'run_system_tests': False, 'test': None, 'folder': 'C:\\\\Users\\\\Juliano\\\\Documents\\\\Visual Studio 2012\\\\Projects\\\\PFM-Web', 'config': '', 'import_models': False, 'winservice': '', 'shell': None, 'run': '', 'log_filename': 'httpserver.log', 'debuglevel': 30, 'args': [''], 'socket_timeout': 5, 'ssl_ca_certificate': None, 'scheduler': None, 'profiler_filename': None, 'ssl_private_key': '', 'scheduler_groups': None, 'password': '<ask>', 'request_queue_size': 5, 'ssl_certificate': '', 'cronjob': False, 'numthreads': None, 'quiet': False, 'interfaces': None, 'minthreads': None, 'timeout': 10, 'plain': False, 'nobanner': False}>"
p1959
asbasbasbag57
(g73
g59
NtRp1960
(dp1961
g62
(dp1962
sg71
g1870
sg64
(lp1963
g57
(g78
g59
NtRp1964
(dp1965
g62
(dp1966
g82
g83
ssg71
g1960
sg64
(lp1967
g764
asbag57
(g78
g59
NtRp1968
(dp1969
g62
(dp1970
g89
g90
ssg71
g1960
sg64
(lp1971
S':'
asbag57
(g78
g59
NtRp1972
(dp1973
g62
(dp1974
sg71
g1960
sg64
(lp1975
g57
(g58
g59
NtRp1976
(dp1977
g62
(dp1978
g70
I4
ssg71
g1972
sg64
(lp1979
S'set([])'
p1980
asbasbasbag57
(g73
g59
NtRp1981
(dp1982
g62
(dp1983
sg71
g1870
sg64
(lp1984
g57
(g78
g59
NtRp1985
(dp1986
g62
(dp1987
g82
g83
ssg71
g1981
sg64
(lp1988
g786
asbag57
(g78
g59
NtRp1989
(dp1990
g62
(dp1991
g89
g90
ssg71
g1981
sg64
(lp1992
S':'
asbag57
(g78
g59
NtRp1993
(dp1994
g62
(dp1995
sg71
g1981
sg64
(lp1996
g57
(g58
g59
NtRp1997
(dp1998
g62
(dp1999
g70
I4
ssg71
g1993
sg64
(lp2000
g100
asbasbasbag57
(g73
g59
NtRp2001
(dp2002
g62
(dp2003
sg71
g1870
sg64
(lp2004
g57
(g78
g59
NtRp2005
(dp2006
g62
(dp2007
g82
g83
ssg71
g2001
sg64
(lp2008
g807
asbag57
(g78
g59
NtRp2009
(dp2010
g62
(dp2011
g89
g90
ssg71
g2001
sg64
(lp2012
S':'
asbag57
(g78
g59
NtRp2013
(dp2014
g62
(dp2015
sg71
g2001
sg64
(lp2016
g57
(g58
g59
NtRp2017
(dp2018
g62
(dp2019
g70
I4
ssg71
g2013
sg64
(lp2020
g820
asbasbasbag57
(g73
g59
NtRp2021
(dp2022
g62
(dp2023
sg71
g1870
sg64
(lp2024
g57
(g78
g59
NtRp2025
(dp2026
g62
(dp2027
g82
g83
ssg71
g2021
sg64
(lp2028
g1026
asbag57
(g78
g59
NtRp2029
(dp2030
g62
(dp2031
g89
g90
ssg71
g2021
sg64
(lp2032
S':'
asbag57
(g78
g59
NtRp2033
(dp2034
g62
(dp2035
sg71
g2021
sg64
(lp2036
g57
(g58
g59
NtRp2037
(dp2038
g62
(dp2039
g70
I4
ssg71
g2033
sg64
(lp2040
g100
asbasbasbag57
(g73
g59
NtRp2041
(dp2042
g62
(dp2043
sg71
g1870
sg64
(lp2044
g57
(g78
g59
NtRp2045
(dp2046
g62
(dp2047
g82
g83
ssg71
g2041
sg64
(lp2048
g1047
asbag57
(g78
g59
NtRp2049
(dp2050
g62
(dp2051
g89
g90
ssg71
g2041
sg64
(lp2052
S':'
asbag57
(g78
g59
NtRp2053
(dp2054
g62
(dp2055
sg71
g2041
sg64
(lp2056
g57
(g58
g59
NtRp2057
(dp2058
g62
(dp2059
g70
I4
ssg71
g2053
sg64
(lp2060
g100
asbasbasbag57
(g73
g59
NtRp2061
(dp2062
g62
(dp2063
sg71
g1870
sg64
(lp2064
g57
(g78
g59
NtRp2065
(dp2066
g62
(dp2067
g82
g83
ssg71
g2061
sg64
(lp2068
g1068
asbag57
(g78
g59
NtRp2069
(dp2070
g62
(dp2071
g89
g90
ssg71
g2061
sg64
(lp2072
S':'
asbag57
(g78
g59
NtRp2073
(dp2074
g62
(dp2075
sg71
g2061
sg64
(lp2076
g57
(g58
g59
NtRp2077
(dp2078
g62
(dp2079
g70
I4
ssg71
g2073
sg64
(lp2080
g57
(g66
g59
NtRp2081
(dp2082
g62
(dp2083
g70
I3
ssg71
Nsg64
(lp2084
g57
(g73
g59
NtRp2085
(dp2086
g62
(dp2087
sg71
g2081
sg64
(lp2088
g57
(g78
g59
NtRp2089
(dp2090
g62
(dp2091
sg71
g2085
sg64
(lp2092
g57
(g58
g59
NtRp2093
(dp2094
g62
(dp2095
g70
I3
ssg71
g2089
sg64
(lp2096
g1097
asbasbasbag57
(g73
g59
NtRp2097
(dp2098
g62
(dp2099
sg71
g2081
sg64
(lp2100
g57
(g78
g59
NtRp2101
(dp2102
g62
(dp2103
sg71
g2097
sg64
(lp2104
g57
(g58
g59
NtRp2105
(dp2106
g62
(dp2107
g70
I3
ssg71
g2101
sg64
(lp2108
g1110
asbasbasbag57
(g73
g59
NtRp2109
(dp2110
g62
(dp2111
sg71
g2081
sg64
(lp2112
g57
(g78
g59
NtRp2113
(dp2114
g62
(dp2115
sg71
g2109
sg64
(lp2116
g57
(g58
g59
NtRp2117
(dp2118
g62
(dp2119
g70
I3
ssg71
g2113
sg64
(lp2120
g1123
asbasbasbag57
(g73
g59
NtRp2121
(dp2122
g62
(dp2123
sg71
g2081
sg64
(lp2124
g57
(g78
g59
NtRp2125
(dp2126
g62
(dp2127
sg71
g2121
sg64
(lp2128
g57
(g58
g59
NtRp2129
(dp2130
g62
(dp2131
g70
I3
ssg71
g2125
sg64
(lp2132
g1136
asbasbasbag57
(g73
g59
NtRp2133
(dp2134
g62
(dp2135
sg71
g2081
sg64
(lp2136
g57
(g78
g59
NtRp2137
(dp2138
g62
(dp2139
sg71
g2133
sg64
(lp2140
g57
(g58
g59
NtRp2141
(dp2142
g62
(dp2143
g70
I3
ssg71
g2137
sg64
(lp2144
g1149
asbasbasbag57
(g73
g59
NtRp2145
(dp2146
g62
(dp2147
sg71
g2081
sg64
(lp2148
g57
(g78
g59
NtRp2149
(dp2150
g62
(dp2151
sg71
g2145
sg64
(lp2152
g57
(g58
g59
NtRp2153
(dp2154
g62
(dp2155
g70
I3
ssg71
g2149
sg64
(lp2156
g1162
asbasbasbag57
(g73
g59
NtRp2157
(dp2158
g62
(dp2159
sg71
g2081
sg64
(lp2160
g57
(g78
g59
NtRp2161
(dp2162
g62
(dp2163
sg71
g2157
sg64
(lp2164
g57
(g58
g59
NtRp2165
(dp2166
g62
(dp2167
g70
I3
ssg71
g2161
sg64
(lp2168
g1175
asbasbasbag57
(g73
g59
NtRp2169
(dp2170
g62
(dp2171
sg71
g2081
sg64
(lp2172
g57
(g78
g59
NtRp2173
(dp2174
g62
(dp2175
sg71
g2169
sg64
(lp2176
g57
(g58
g59
NtRp2177
(dp2178
g62
(dp2179
g70
I3
ssg71
g2173
sg64
(lp2180
g1188
asbasbasbasbasbasbasbag57
(g73
g59
NtRp2181
(dp2182
g62
(dp2183
sg71
g1870
sg64
(lp2184
g57
(g78
g59
NtRp2185
(dp2186
g62
(dp2187
g82
g83
ssg71
g2181
sg64
(lp2188
g1478
asbag57
(g78
g59
NtRp2189
(dp2190
g62
(dp2191
g89
g90
ssg71
g2181
sg64
(lp2192
S':'
asbag57
(g78
g59
NtRp2193
(dp2194
g62
(dp2195
sg71
g2181
sg64
(lp2196
g57
(g58
g59
NtRp2197
(dp2198
g62
(dp2199
g70
I4
ssg71
g2193
sg64
(lp2200
g57
(g66
g59
NtRp2201
(dp2202
g62
(dp2203
g70
I3
ssg71
Nsg64
(lp2204
g57
(g73
g59
NtRp2205
(dp2206
g62
(dp2207
sg71
g2201
sg64
(lp2208
g57
(g78
g59
NtRp2209
(dp2210
g62
(dp2211
sg71
g2205
sg64
(lp2212
g57
(g58
g59
NtRp2213
(dp2214
g62
(dp2215
g70
I3
ssg71
g2209
sg64
(lp2216
S'2'
asbasbasbag57
(g73
g59
NtRp2217
(dp2218
g62
(dp2219
sg71
g2201
sg64
(lp2220
g57
(g78
g59
NtRp2221
(dp2222
g62
(dp2223
sg71
g2217
sg64
(lp2224
g57
(g58
g59
NtRp2225
(dp2226
g62
(dp2227
g70
I3
ssg71
g2221
sg64
(lp2228
S'3'
asbasbasbag57
(g73
g59
NtRp2229
(dp2230
g62
(dp2231
sg71
g2201
sg64
(lp2232
g57
(g78
g59
NtRp2233
(dp2234
g62
(dp2235
sg71
g2229
sg64
(lp2236
g57
(g58
g59
NtRp2237
(dp2238
g62
(dp2239
g70
I3
ssg71
g2233
sg64
(lp2240
S'2'
asbasbasbag57
(g73
g59
NtRp2241
(dp2242
g62
(dp2243
sg71
g2201
sg64
(lp2244
g57
(g78
g59
NtRp2245
(dp2246
g62
(dp2247
sg71
g2241
sg64
(lp2248
g57
(g58
g59
NtRp2249
(dp2250
g62
(dp2251
g70
I3
ssg71
g2245
sg64
(lp2252
S'datetime.datetime(2012, 12, 17, 15, 3, 30)'
p2253
asbasbasbag57
(g73
g59
NtRp2254
(dp2255
g62
(dp2256
sg71
g2201
sg64
(lp2257
g57
(g78
g59
NtRp2258
(dp2259
g62
(dp2260
sg71
g2254
sg64
(lp2261
g57
(g58
g59
NtRp2262
(dp2263
g62
(dp2264
g70
I3
ssg71
g2258
sg64
(lp2265
g1556
asbasbasbasbasbasbasbasbasbasbasbag57
(g73
g59
NtRp2266
(dp2267
g62
(dp2268
sg71
g67
sg64
(lp2269
g57
(g78
g59
NtRp2270
(dp2271
g62
(dp2272
g82
g83
ssg71
g2266
sg64
(lp2273
S'is_https'
p2274
asbag57
(g78
g59
NtRp2275
(dp2276
g62
(dp2277
g89
g90
ssg71
g2266
sg64
(lp2278
S':'
asbag57
(g78
g59
NtRp2279
(dp2280
g62
(dp2281
sg71
g2266
sg64
(lp2282
g57
(g58
g59
NtRp2283
(dp2284
g62
(dp2285
g70
I5
ssg71
g2279
sg64
(lp2286
g100
asbasbasbag57
(g73
g59
NtRp2287
(dp2288
g62
(dp2289
sg71
g67
sg64
(lp2290
g57
(g78
g59
NtRp2291
(dp2292
g62
(dp2293
g82
g83
ssg71
g2287
sg64
(lp2294
S'is_local'
p2295
asbag57
(g78
g59
NtRp2296
(dp2297
g62
(dp2298
g89
g90
ssg71
g2287
sg64
(lp2299
S':'
asbag57
(g78
g59
NtRp2300
(dp2301
g62
(dp2302
sg71
g2287
sg64
(lp2303
g57
(g58
g59
NtRp2304
(dp2305
g62
(dp2306
g70
I5
ssg71
g2300
sg64
(lp2307
g1665
asbasbasbag57
(g73
g59
NtRp2308
(dp2309
g62
(dp2310
sg71
g67
sg64
(lp2311
g57
(g78
g59
NtRp2312
(dp2313
g62
(dp2314
g82
g83
ssg71
g2308
sg64
(lp2315
S'is_restful'
p2316
asbag57
(g78
g59
NtRp2317
(dp2318
g62
(dp2319
g89
g90
ssg71
g2308
sg64
(lp2320
S':'
asbag57
(g78
g59
NtRp2321
(dp2322
g62
(dp2323
sg71
g2308
sg64
(lp2324
g57
(g58
g59
NtRp2325
(dp2326
g62
(dp2327
g70
I5
ssg71
g2321
sg64
(lp2328
g100
asbasbasbag57
(g73
g59
NtRp2329
(dp2330
g62
(dp2331
sg71
g67
sg64
(lp2332
g57
(g78
g59
NtRp2333
(dp2334
g62
(dp2335
g82
g83
ssg71
g2329
sg64
(lp2336
S'now'
p2337
asbag57
(g78
g59
NtRp2338
(dp2339
g62
(dp2340
g89
g90
ssg71
g2329
sg64
(lp2341
S':'
asbag57
(g78
g59
NtRp2342
(dp2343
g62
(dp2344
sg71
g2329
sg64
(lp2345
g57
(g58
g59
NtRp2346
(dp2347
g62
(dp2348
g70
I5
ssg71
g2342
sg64
(lp2349
S'datetime.datetime(2013, 2, 23, 17, 8, 57, 877000)'
p2350
asbasbasbag57
(g73
g59
NtRp2351
(dp2352
g62
(dp2353
sg71
g67
sg64
(lp2354
g57
(g78
g59
NtRp2355
(dp2356
g62
(dp2357
g82
g83
ssg71
g2351
sg64
(lp2358
S'post_vars'
p2359
asbag57
(g78
g59
NtRp2360
(dp2361
g62
(dp2362
g89
g90
ssg71
g2351
sg64
(lp2363
S':'
asbag57
(g78
g59
NtRp2364
(dp2365
g62
(dp2366
sg71
g2351
sg64
(lp2367
g57
(g58
g59
NtRp2368
(dp2369
g62
(dp2370
g70
I5
ssg71
g2364
sg64
(lp2371
g57
(g66
g59
NtRp2372
(dp2373
g62
(dp2374
g70
I4
ssg71
Nsg64
(lp2375
sbasbasbasbag57
(g73
g59
NtRp2376
(dp2377
g62
(dp2378
sg71
g67
sg64
(lp2379
g57
(g78
g59
NtRp2380
(dp2381
g62
(dp2382
g82
g83
ssg71
g2376
sg64
(lp2383
S'raw_args'
p2384
asbag57
(g78
g59
NtRp2385
(dp2386
g62
(dp2387
g89
g90
ssg71
g2376
sg64
(lp2388
S':'
asbag57
(g78
g59
NtRp2389
(dp2390
g62
(dp2391
sg71
g2376
sg64
(lp2392
g57
(g58
g59
NtRp2393
(dp2394
g62
(dp2395
g70
I5
ssg71
g2389
sg64
(lp2396
S''
asbasbasbag57
(g73
g59
NtRp2397
(dp2398
g62
(dp2399
sg71
g67
sg64
(lp2400
g57
(g78
g59
NtRp2401
(dp2402
g62
(dp2403
g82
g83
ssg71
g2397
sg64
(lp2404
S'raw_extension'
p2405
asbag57
(g78
g59
NtRp2406
(dp2407
g62
(dp2408
g89
g90
ssg71
g2397
sg64
(lp2409
S':'
asbag57
(g78
g59
NtRp2410
(dp2411
g62
(dp2412
sg71
g2397
sg64
(lp2413
g57
(g58
g59
NtRp2414
(dp2415
g62
(dp2416
g70
I5
ssg71
g2410
sg64
(lp2417
S'None'
p2418
asbasbasbag57
(g73
g59
NtRp2419
(dp2420
g62
(dp2421
sg71
g67
sg64
(lp2422
g57
(g78
g59
NtRp2423
(dp2424
g62
(dp2425
g82
g83
ssg71
g2419
sg64
(lp2426
S'url'
p2427
asbag57
(g78
g59
NtRp2428
(dp2429
g62
(dp2430
g89
g90
ssg71
g2419
sg64
(lp2431
S':'
asbag57
(g78
g59
NtRp2432
(dp2433
g62
(dp2434
sg71
g2419
sg64
(lp2435
g57
(g58
g59
NtRp2436
(dp2437
g62
(dp2438
g70
I5
ssg71
g2432
sg64
(lp2439
g1210
asbasbasbag57
(g73
g59
NtRp2440
(dp2441
g62
(dp2442
sg71
g67
sg64
(lp2443
g57
(g78
g59
NtRp2444
(dp2445
g62
(dp2446
g82
g83
ssg71
g2440
sg64
(lp2447
S'utcnow'
p2448
asbag57
(g78
g59
NtRp2449
(dp2450
g62
(dp2451
g89
g90
ssg71
g2440
sg64
(lp2452
S':'
asbag57
(g78
g59
NtRp2453
(dp2454
g62
(dp2455
sg71
g2440
sg64
(lp2456
g57
(g58
g59
NtRp2457
(dp2458
g62
(dp2459
g70
I5
ssg71
g2453
sg64
(lp2460
S'datetime.datetime(2013, 2, 23, 20, 8, 57, 877000)'
p2461
asbasbasbag57
(g73
g59
NtRp2462
(dp2463
g62
(dp2464
sg71
g67
sg64
(lp2465
g57
(g78
g59
NtRp2466
(dp2467
g62
(dp2468
g82
g83
ssg71
g2462
sg64
(lp2469
S'uuid'
p2470
asbag57
(g78
g59
NtRp2471
(dp2472
g62
(dp2473
g89
g90
ssg71
g2462
sg64
(lp2474
S':'
asbag57
(g78
g59
NtRp2475
(dp2476
g62
(dp2477
sg71
g2462
sg64
(lp2478
g57
(g58
g59
NtRp2479
(dp2480
g62
(dp2481
g70
I5
ssg71
g2475
sg64
(lp2482
S'PFM_Web/127.0.0.1.2013-02-23.17-08-57.cf8291a8-2ffd-496a-9fb5-da1c5fb15489'
p2483
asbasbasbag57
(g73
g59
NtRp2484
(dp2485
g62
(dp2486
sg71
g67
sg64
(lp2487
g57
(g78
g59
NtRp2488
(dp2489
g62
(dp2490
g82
g83
ssg71
g2484
sg64
(lp2491
S'vars'
p2492
asbag57
(g78
g59
NtRp2493
(dp2494
g62
(dp2495
g89
g90
ssg71
g2484
sg64
(lp2496
S':'
asbag57
(g78
g59
NtRp2497
(dp2498
g62
(dp2499
sg71
g2484
sg64
(lp2500
g57
(g58
g59
NtRp2501
(dp2502
g62
(dp2503
g70
I5
ssg71
g2497
sg64
(lp2504
g57
(g66
g59
NtRp2505
(dp2506
g62
(dp2507
g70
I4
ssg71
Nsg64
(lp2508
sbasbasbasbag57
(g73
g59
NtRp2509
(dp2510
g62
(dp2511
sg71
g67
sg64
(lp2512
g57
(g78
g59
NtRp2513
(dp2514
g62
(dp2515
g82
g83
ssg71
g2509
sg64
(lp2516
S'wsgi'
p2517
asbag57
(g78
g59
NtRp2518
(dp2519
g62
(dp2520
g89
g90
ssg71
g2509
sg64
(lp2521
S':'
asbag57
(g78
g59
NtRp2522
(dp2523
g62
(dp2524
sg71
g2509
sg64
(lp2525
g57
(g58
g59
NtRp2526
(dp2527
g62
(dp2528
g70
I5
ssg71
g2522
sg64
(lp2529
g57
(g66
g59
NtRp2530
(dp2531
g62
(dp2532
g70
I4
ssg71
Nsg64
(lp2533
g57
(g73
g59
NtRp2534
(dp2535
g62
(dp2536
sg71
g2530
sg64
(lp2537
g57
(g78
g59
NtRp2538
(dp2539
g62
(dp2540
g82
g83
ssg71
g2534
sg64
(lp2541
S'environ'
p2542
asbag57
(g78
g59
NtRp2543
(dp2544
g62
(dp2545
g89
g90
ssg71
g2534
sg64
(lp2546
S':'
asbag57
(g78
g59
NtRp2547
(dp2548
g62
(dp2549
sg71
g2534
sg64
(lp2550
g57
(g58
g59
NtRp2551
(dp2552
g62
(dp2553
g70
I4
ssg71
g2547
sg64
(lp2554
g57
(g66
g59
NtRp2555
(dp2556
g62
(dp2557
g70
I3
ssg71
Nsg64
(lp2558
g57
(g73
g59
NtRp2559
(dp2560
g62
(dp2561
sg71
g2555
sg64
(lp2562
g57
(g78
g59
NtRp2563
(dp2564
g62
(dp2565
g82
g83
ssg71
g2559
sg64
(lp2566
S'HTTP_ACCEPT'
p2567
asbag57
(g78
g59
NtRp2568
(dp2569
g62
(dp2570
g89
g90
ssg71
g2559
sg64
(lp2571
S':'
asbag57
(g78
g59
NtRp2572
(dp2573
g62
(dp2574
sg71
g2559
sg64
(lp2575
g57
(g58
g59
NtRp2576
(dp2577
g62
(dp2578
g70
I3
ssg71
g2572
sg64
(lp2579
g842
asbasbasbag57
(g73
g59
NtRp2580
(dp2581
g62
(dp2582
sg71
g2555
sg64
(lp2583
g57
(g78
g59
NtRp2584
(dp2585
g62
(dp2586
g82
g83
ssg71
g2580
sg64
(lp2587
S'HTTP_ACCEPT_ENCODING'
p2588
asbag57
(g78
g59
NtRp2589
(dp2590
g62
(dp2591
g89
g90
ssg71
g2580
sg64
(lp2592
S':'
asbag57
(g78
g59
NtRp2593
(dp2594
g62
(dp2595
sg71
g2580
sg64
(lp2596
g57
(g58
g59
NtRp2597
(dp2598
g62
(dp2599
g70
I3
ssg71
g2593
sg64
(lp2600
g864
asbasbasbag57
(g73
g59
NtRp2601
(dp2602
g62
(dp2603
sg71
g2555
sg64
(lp2604
g57
(g78
g59
NtRp2605
(dp2606
g62
(dp2607
g82
g83
ssg71
g2601
sg64
(lp2608
S'HTTP_ACCEPT_LANGUAGE'
p2609
asbag57
(g78
g59
NtRp2610
(dp2611
g62
(dp2612
g89
g90
ssg71
g2601
sg64
(lp2613
S':'
asbag57
(g78
g59
NtRp2614
(dp2615
g62
(dp2616
sg71
g2601
sg64
(lp2617
g57
(g58
g59
NtRp2618
(dp2619
g62
(dp2620
g70
I3
ssg71
g2614
sg64
(lp2621
g886
asbasbasbag57
(g73
g59
NtRp2622
(dp2623
g62
(dp2624
sg71
g2555
sg64
(lp2625
g57
(g78
g59
NtRp2626
(dp2627
g62
(dp2628
g82
g83
ssg71
g2622
sg64
(lp2629
S'HTTP_CONNECTION'
p2630
asbag57
(g78
g59
NtRp2631
(dp2632
g62
(dp2633
g89
g90
ssg71
g2622
sg64
(lp2634
S':'
asbag57
(g78
g59
NtRp2635
(dp2636
g62
(dp2637
sg71
g2622
sg64
(lp2638
g57
(g58
g59
NtRp2639
(dp2640
g62
(dp2641
g70
I3
ssg71
g2635
sg64
(lp2642
g908
asbasbasbag57
(g73
g59
NtRp2643
(dp2644
g62
(dp2645
sg71
g2555
sg64
(lp2646
g57
(g78
g59
NtRp2647
(dp2648
g62
(dp2649
g82
g83
ssg71
g2643
sg64
(lp2650
S'HTTP_COOKIE'
p2651
asbag57
(g78
g59
NtRp2652
(dp2653
g62
(dp2654
g89
g90
ssg71
g2643
sg64
(lp2655
S':'
asbag57
(g78
g59
NtRp2656
(dp2657
g62
(dp2658
sg71
g2643
sg64
(lp2659
g57
(g58
g59
NtRp2660
(dp2661
g62
(dp2662
g70
I3
ssg71
g2656
sg64
(lp2663
g930
asbasbasbag57
(g73
g59
NtRp2664
(dp2665
g62
(dp2666
sg71
g2555
sg64
(lp2667
g57
(g78
g59
NtRp2668
(dp2669
g62
(dp2670
g82
g83
ssg71
g2664
sg64
(lp2671
S'HTTP_DNT'
p2672
asbag57
(g78
g59
NtRp2673
(dp2674
g62
(dp2675
g89
g90
ssg71
g2664
sg64
(lp2676
S':'
asbag57
(g78
g59
NtRp2677
(dp2678
g62
(dp2679
sg71
g2664
sg64
(lp2680
g57
(g58
g59
NtRp2681
(dp2682
g62
(dp2683
g70
I3
ssg71
g2677
sg64
(lp2684
S'1'
asbasbasbag57
(g73
g59
NtRp2685
(dp2686
g62
(dp2687
sg71
g2555
sg64
(lp2688
g57
(g78
g59
NtRp2689
(dp2690
g62
(dp2691
g82
g83
ssg71
g2685
sg64
(lp2692
S'HTTP_HOST'
p2693
asbag57
(g78
g59
NtRp2694
(dp2695
g62
(dp2696
g89
g90
ssg71
g2685
sg64
(lp2697
S':'
asbag57
(g78
g59
NtRp2698
(dp2699
g62
(dp2700
sg71
g2685
sg64
(lp2701
g57
(g58
g59
NtRp2702
(dp2703
g62
(dp2704
g70
I3
ssg71
g2698
sg64
(lp2705
g973
asbasbasbag57
(g73
g59
NtRp2706
(dp2707
g62
(dp2708
sg71
g2555
sg64
(lp2709
g57
(g78
g59
NtRp2710
(dp2711
g62
(dp2712
g82
g83
ssg71
g2706
sg64
(lp2713
S'HTTP_REFERER'
p2714
asbag57
(g78
g59
NtRp2715
(dp2716
g62
(dp2717
g89
g90
ssg71
g2706
sg64
(lp2718
S':'
asbag57
(g78
g59
NtRp2719
(dp2720
g62
(dp2721
sg71
g2706
sg64
(lp2722
g57
(g58
g59
NtRp2723
(dp2724
g62
(dp2725
g70
I3
ssg71
g2719
sg64
(lp2726
g995
asbasbasbag57
(g73
g59
NtRp2727
(dp2728
g62
(dp2729
sg71
g2555
sg64
(lp2730
g57
(g78
g59
NtRp2731
(dp2732
g62
(dp2733
g82
g83
ssg71
g2727
sg64
(lp2734
S'HTTP_USER_AGENT'
p2735
asbag57
(g78
g59
NtRp2736
(dp2737
g62
(dp2738
g89
g90
ssg71
g2727
sg64
(lp2739
S':'
asbag57
(g78
g59
NtRp2740
(dp2741
g62
(dp2742
sg71
g2727
sg64
(lp2743
g57
(g58
g59
NtRp2744
(dp2745
g62
(dp2746
g70
I3
ssg71
g2740
sg64
(lp2747
g1017
asbasbasbag57
(g73
g59
NtRp2748
(dp2749
g62
(dp2750
sg71
g2555
sg64
(lp2751
g57
(g78
g59
NtRp2752
(dp2753
g62
(dp2754
g82
g83
ssg71
g2748
sg64
(lp2755
S'PATH_INFO'
p2756
asbag57
(g78
g59
NtRp2757
(dp2758
g62
(dp2759
g89
g90
ssg71
g2748
sg64
(lp2760
S':'
asbag57
(g78
g59
NtRp2761
(dp2762
g62
(dp2763
sg71
g2748
sg64
(lp2764
g57
(g58
g59
NtRp2765
(dp2766
g62
(dp2767
g70
I3
ssg71
g2761
sg64
(lp2768
g1210
asbasbasbag57
(g73
g59
NtRp2769
(dp2770
g62
(dp2771
sg71
g2555
sg64
(lp2772
g57
(g78
g59
NtRp2773
(dp2774
g62
(dp2775
g82
g83
ssg71
g2769
sg64
(lp2776
S'QUERY_STRING'
p2777
asbag57
(g78
g59
NtRp2778
(dp2779
g62
(dp2780
g89
g90
ssg71
g2769
sg64
(lp2781
S':'
asbag57
(g78
g59
NtRp2782
(dp2783
g62
(dp2784
sg71
g2769
sg64
(lp2785
g57
(g58
g59
NtRp2786
(dp2787
g62
(dp2788
g70
I3
ssg71
g2782
sg64
(lp2789
S''
asbasbasbag57
(g73
g59
NtRp2790
(dp2791
g62
(dp2792
sg71
g2555
sg64
(lp2793
g57
(g78
g59
NtRp2794
(dp2795
g62
(dp2796
g82
g83
ssg71
g2790
sg64
(lp2797
S'REMOTE_ADDR'
p2798
asbag57
(g78
g59
NtRp2799
(dp2800
g62
(dp2801
g89
g90
ssg71
g2790
sg64
(lp2802
S':'
asbag57
(g78
g59
NtRp2803
(dp2804
g62
(dp2805
sg71
g2790
sg64
(lp2806
g57
(g58
g59
NtRp2807
(dp2808
g62
(dp2809
g70
I3
ssg71
g2803
sg64
(lp2810
g212
asbasbasbag57
(g73
g59
NtRp2811
(dp2812
g62
(dp2813
sg71
g2555
sg64
(lp2814
g57
(g78
g59
NtRp2815
(dp2816
g62
(dp2817
g82
g83
ssg71
g2811
sg64
(lp2818
S'REMOTE_PORT'
p2819
asbag57
(g78
g59
NtRp2820
(dp2821
g62
(dp2822
g89
g90
ssg71
g2811
sg64
(lp2823
S':'
asbag57
(g78
g59
NtRp2824
(dp2825
g62
(dp2826
sg71
g2811
sg64
(lp2827
g57
(g58
g59
NtRp2828
(dp2829
g62
(dp2830
g70
I3
ssg71
g2824
sg64
(lp2831
g1274
asbasbasbag57
(g73
g59
NtRp2832
(dp2833
g62
(dp2834
sg71
g2555
sg64
(lp2835
g57
(g78
g59
NtRp2836
(dp2837
g62
(dp2838
g82
g83
ssg71
g2832
sg64
(lp2839
S'REQUEST_METHOD'
p2840
asbag57
(g78
g59
NtRp2841
(dp2842
g62
(dp2843
g89
g90
ssg71
g2832
sg64
(lp2844
S':'
asbag57
(g78
g59
NtRp2845
(dp2846
g62
(dp2847
sg71
g2832
sg64
(lp2848
g57
(g58
g59
NtRp2849
(dp2850
g62
(dp2851
g70
I3
ssg71
g2845
sg64
(lp2852
g1296
asbasbasbag57
(g73
g59
NtRp2853
(dp2854
g62
(dp2855
sg71
g2555
sg64
(lp2856
g57
(g78
g59
NtRp2857
(dp2858
g62
(dp2859
g82
g83
ssg71
g2853
sg64
(lp2860
S'REQUEST_URI'
p2861
asbag57
(g78
g59
NtRp2862
(dp2863
g62
(dp2864
g89
g90
ssg71
g2853
sg64
(lp2865
S':'
asbag57
(g78
g59
NtRp2866
(dp2867
g62
(dp2868
sg71
g2853
sg64
(lp2869
g57
(g58
g59
NtRp2870
(dp2871
g62
(dp2872
g70
I3
ssg71
g2866
sg64
(lp2873
g1210
asbasbasbag57
(g73
g59
NtRp2874
(dp2875
g62
(dp2876
sg71
g2555
sg64
(lp2877
g57
(g78
g59
NtRp2878
(dp2879
g62
(dp2880
g82
g83
ssg71
g2874
sg64
(lp2881
S'SCRIPT_NAME'
p2882
asbag57
(g78
g59
NtRp2883
(dp2884
g62
(dp2885
g89
g90
ssg71
g2874
sg64
(lp2886
S':'
asbag57
(g78
g59
NtRp2887
(dp2888
g62
(dp2889
sg71
g2874
sg64
(lp2890
g57
(g58
g59
NtRp2891
(dp2892
g62
(dp2893
g70
I3
ssg71
g2887
sg64
(lp2894
S''
asbasbasbag57
(g73
g59
NtRp2895
(dp2896
g62
(dp2897
sg71
g2555
sg64
(lp2898
g57
(g78
g59
NtRp2899
(dp2900
g62
(dp2901
g82
g83
ssg71
g2895
sg64
(lp2902
S'SERVER_NAME'
p2903
asbag57
(g78
g59
NtRp2904
(dp2905
g62
(dp2906
g89
g90
ssg71
g2895
sg64
(lp2907
S':'
asbag57
(g78
g59
NtRp2908
(dp2909
g62
(dp2910
sg71
g2895
sg64
(lp2911
g57
(g58
g59
NtRp2912
(dp2913
g62
(dp2914
g70
I3
ssg71
g2908
sg64
(lp2915
g1360
asbasbasbag57
(g73
g59
NtRp2916
(dp2917
g62
(dp2918
sg71
g2555
sg64
(lp2919
g57
(g78
g59
NtRp2920
(dp2921
g62
(dp2922
g82
g83
ssg71
g2916
sg64
(lp2923
S'SERVER_PORT'
p2924
asbag57
(g78
g59
NtRp2925
(dp2926
g62
(dp2927
g89
g90
ssg71
g2916
sg64
(lp2928
S':'
asbag57
(g78
g59
NtRp2929
(dp2930
g62
(dp2931
sg71
g2916
sg64
(lp2932
g57
(g58
g59
NtRp2933
(dp2934
g62
(dp2935
g70
I3
ssg71
g2929
sg64
(lp2936
g1382
asbasbasbag57
(g73
g59
NtRp2937
(dp2938
g62
(dp2939
sg71
g2555
sg64
(lp2940
g57
(g78
g59
NtRp2941
(dp2942
g62
(dp2943
g82
g83
ssg71
g2937
sg64
(lp2944
S'SERVER_PROTOCOL'
p2945
asbag57
(g78
g59
NtRp2946
(dp2947
g62
(dp2948
g89
g90
ssg71
g2937
sg64
(lp2949
S':'
asbag57
(g78
g59
NtRp2950
(dp2951
g62
(dp2952
sg71
g2937
sg64
(lp2953
g57
(g58
g59
NtRp2954
(dp2955
g62
(dp2956
g70
I3
ssg71
g2950
sg64
(lp2957
g1404
asbasbasbag57
(g73
g59
NtRp2958
(dp2959
g62
(dp2960
sg71
g2555
sg64
(lp2961
g57
(g78
g59
NtRp2962
(dp2963
g62
(dp2964
g82
g83
ssg71
g2958
sg64
(lp2965
S'SERVER_SOFTWARE'
p2966
asbag57
(g78
g59
NtRp2967
(dp2968
g62
(dp2969
g89
g90
ssg71
g2958
sg64
(lp2970
S':'
asbag57
(g78
g59
NtRp2971
(dp2972
g62
(dp2973
sg71
g2958
sg64
(lp2974
g57
(g58
g59
NtRp2975
(dp2976
g62
(dp2977
g70
I3
ssg71
g2971
sg64
(lp2978
g1426
asbasbasbag57
(g73
g59
NtRp2979
(dp2980
g62
(dp2981
sg71
g2555
sg64
(lp2982
g57
(g78
g59
NtRp2983
(dp2984
g62
(dp2985
g82
g83
ssg71
g2979
sg64
(lp2986
S'WEB2PY_ORIGINAL_URI'
p2987
asbag57
(g78
g59
NtRp2988
(dp2989
g62
(dp2990
g89
g90
ssg71
g2979
sg64
(lp2991
S':'
asbag57
(g78
g59
NtRp2992
(dp2993
g62
(dp2994
sg71
g2979
sg64
(lp2995
g57
(g58
g59
NtRp2996
(dp2997
g62
(dp2998
g70
I3
ssg71
g2992
sg64
(lp2999
g1448
asbasbasbag57
(g73
g59
NtRp3000
(dp3001
g62
(dp3002
sg71
g2555
sg64
(lp3003
g57
(g78
g59
NtRp3004
(dp3005
g62
(dp3006
g82
g83
ssg71
g3000
sg64
(lp3007
S'wsgi.errors'
p3008
asbag57
(g78
g59
NtRp3009
(dp3010
g62
(dp3011
g89
g90
ssg71
g3000
sg64
(lp3012
S':'
asbag57
(g78
g59
NtRp3013
(dp3014
g62
(dp3015
sg71
g3000
sg64
(lp3016
g57
(g58
g59
NtRp3017
(dp3018
g62
(dp3019
g70
I3
ssg71
g3013
sg64
(lp3020
S"<open file '<stderr>', mode 'w' at 0x0000000001D871E0>"
p3021
asbasbasbag57
(g73
g59
NtRp3022
(dp3023
g62
(dp3024
sg71
g2555
sg64
(lp3025
g57
(g78
g59
NtRp3026
(dp3027
g62
(dp3028
g82
g83
ssg71
g3022
sg64
(lp3029
S'wsgi.file_wrapper'
p3030
asbag57
(g78
g59
NtRp3031
(dp3032
g62
(dp3033
g89
g90
ssg71
g3022
sg64
(lp3034
S':'
asbag57
(g78
g59
NtRp3035
(dp3036
g62
(dp3037
sg71
g3022
sg64
(lp3038
g57
(g58
g59
NtRp3039
(dp3040
g62
(dp3041
g70
I3
ssg71
g3035
sg64
(lp3042
S'<class wsgiref.util.FileWrapper at 0x00000000033AE7C8>'
p3043
asbasbasbag57
(g73
g59
NtRp3044
(dp3045
g62
(dp3046
sg71
g2555
sg64
(lp3047
g57
(g78
g59
NtRp3048
(dp3049
g62
(dp3050
g82
g83
ssg71
g3044
sg64
(lp3051
S'wsgi.input'
p3052
asbag57
(g78
g59
NtRp3053
(dp3054
g62
(dp3055
g89
g90
ssg71
g3044
sg64
(lp3056
S':'
asbag57
(g78
g59
NtRp3057
(dp3058
g62
(dp3059
sg71
g3044
sg64
(lp3060
g57
(g58
g59
NtRp3061
(dp3062
g62
(dp3063
g70
I3
ssg71
g3057
sg64
(lp3064
S'<cStringIO.StringO object at 0x0000000004C8AB58>'
p3065
asbasbasbag57
(g73
g59
NtRp3066
(dp3067
g62
(dp3068
sg71
g2555
sg64
(lp3069
g57
(g78
g59
NtRp3070
(dp3071
g62
(dp3072
g82
g83
ssg71
g3066
sg64
(lp3073
S'wsgi.multiprocess'
p3074
asbag57
(g78
g59
NtRp3075
(dp3076
g62
(dp3077
g89
g90
ssg71
g3066
sg64
(lp3078
S':'
asbag57
(g78
g59
NtRp3079
(dp3080
g62
(dp3081
sg71
g3066
sg64
(lp3082
g57
(g58
g59
NtRp3083
(dp3084
g62
(dp3085
g70
I3
ssg71
g3079
sg64
(lp3086
g100
asbasbasbag57
(g73
g59
NtRp3087
(dp3088
g62
(dp3089
sg71
g2555
sg64
(lp3090
g57
(g78
g59
NtRp3091
(dp3092
g62
(dp3093
g82
g83
ssg71
g3087
sg64
(lp3094
S'wsgi.multithread'
p3095
asbag57
(g78
g59
NtRp3096
(dp3097
g62
(dp3098
g89
g90
ssg71
g3087
sg64
(lp3099
S':'
asbag57
(g78
g59
NtRp3100
(dp3101
g62
(dp3102
sg71
g3087
sg64
(lp3103
g57
(g58
g59
NtRp3104
(dp3105
g62
(dp3106
g70
I3
ssg71
g3100
sg64
(lp3107
g1665
asbasbasbag57
(g73
g59
NtRp3108
(dp3109
g62
(dp3110
sg71
g2555
sg64
(lp3111
g57
(g78
g59
NtRp3112
(dp3113
g62
(dp3114
g82
g83
ssg71
g3108
sg64
(lp3115
S'wsgi.run_once'
p3116
asbag57
(g78
g59
NtRp3117
(dp3118
g62
(dp3119
g89
g90
ssg71
g3108
sg64
(lp3120
S':'
asbag57
(g78
g59
NtRp3121
(dp3122
g62
(dp3123
sg71
g3108
sg64
(lp3124
g57
(g58
g59
NtRp3125
(dp3126
g62
(dp3127
g70
I3
ssg71
g3121
sg64
(lp3128
g100
asbasbasbag57
(g73
g59
NtRp3129
(dp3130
g62
(dp3131
sg71
g2555
sg64
(lp3132
g57
(g78
g59
NtRp3133
(dp3134
g62
(dp3135
g82
g83
ssg71
g3129
sg64
(lp3136
S'wsgi.url_scheme'
p3137
asbag57
(g78
g59
NtRp3138
(dp3139
g62
(dp3140
g89
g90
ssg71
g3129
sg64
(lp3141
S':'
asbag57
(g78
g59
NtRp3142
(dp3143
g62
(dp3144
sg71
g3129
sg64
(lp3145
g57
(g58
g59
NtRp3146
(dp3147
g62
(dp3148
g70
I3
ssg71
g3142
sg64
(lp3149
g1708
asbasbasbag57
(g73
g59
NtRp3150
(dp3151
g62
(dp3152
sg71
g2555
sg64
(lp3153
g57
(g78
g59
NtRp3154
(dp3155
g62
(dp3156
g82
g83
ssg71
g3150
sg64
(lp3157
S'wsgi.version'
p3158
asbag57
(g78
g59
NtRp3159
(dp3160
g62
(dp3161
g89
g90
ssg71
g3150
sg64
(lp3162
S':'
asbag57
(g78
g59
NtRp3163
(dp3164
g62
(dp3165
sg71
g3150
sg64
(lp3166
g57
(g58
g59
NtRp3167
(dp3168
g62
(dp3169
g70
I3
ssg71
g3163
sg64
(lp3170
S'1'
asbasbasbasbasbasbasbasbasbasbasbasbasbsS'frames'
p3171
(lp3172
(dp3173
S'file'
p3174
S'C:\\Users\\Juliano\\Documents\\Visual Studio 2012\\Projects\\PFM-Web\\gluon\\restricted.py'
p3175
sS'dump'
p3176
(dp3177
S'environment'
p3178
S"{'A': <class 'gluon.html.A'>, 'Auth': <class 'gluon.tools.Auth'>, 'B': <class 'gluon.html.B'>, 'BEAUTIFY': <class 'gluon.html.BEAUTIFY'>, 'BODY': <class 'gluon.html.BODY'>, 'BR': <class 'gluon.html.BR'>, 'BUTTON': <class 'gluon.html.BUTTON'>, 'CAT': <class 'gluon.html.CAT'>, 'CENTER': <class 'gluon.html.CENTER'>, 'CLEANUP': <class 'gluon.validators.CLEANUP'>, ...}"
p3179
sS'ccode'
p3180
S'<code object <module> at 0000000004E16330, file ...ations\\PFM_Web\\views\\default/index.html", line 1>'
p3181
ssS'lnum'
p3182
I212
sS'lines'
p3183
(dp3184
I207
S'    try:'
p3185
sI208
S'        if isinstance(code, types.CodeType):'
p3186
sI209
S'            ccode = code'
p3187
sI210
S'        else:'
p3188
sI211
S'            ccode = compile2(code, layer)'
p3189
sI212
S'        exec ccode in environment'
p3190
sI213
S'    except HTTP:'
p3191
sI214
S'        raise'
p3192
sI215
S'    except RestrictedError:'
p3193
sI216
S'        # do not encapsulate (obfuscate) the original RestrictedError'
p3194
ssS'call'
p3195
S'(code=\'response.write(\\\'<!DOCTYPE html>\\\\n<!-- paulirish...."></script>\\\\n</body>\\\\n</html>\\\\n\\\\n\\\', escape=False)\', environment={\'A\': <class \'gluon.html.A\'>, \'Auth\': <class \'gluon.tools.Auth\'>, \'B\': <class \'gluon.html.B\'>, \'BEAUTIFY\': <class \'gluon.html.BEAUTIFY\'>, \'BODY\': <class \'gluon.html.BODY\'>, \'BR\': <class \'gluon.html.BR\'>, \'BUTTON\': <class \'gluon.html.BUTTON\'>, \'CAT\': <class \'gluon.html.CAT\'>, \'CENTER\': <class \'gluon.html.CENTER\'>, \'CLEANUP\': <class \'gluon.validators.CLEANUP\'>, ...}, layer=r\'C:\\Users\\Juliano\\Documents\\Visual Studio 2012\\Pr...Web\\applications\\PFM_Web\\views\\default/index.html\')'
p3196
sS'func'
p3197
S'restricted'
p3198
sa(dp3199
g3174
S'C:\\Users\\Juliano\\Documents\\Visual Studio 2012\\Projects\\PFM-Web\\applications\\PFM_Web\\views\\default\\index.html'
p3200
sg3176
(dp3201
sg3182
I72
sg3183
(dp3202
I64
S"    response.write(MENU(response.menu, _class='mobile-menu nav' if is_mobile else 'nav',mobile=is_mobile,li_class='dropdown',ul_class='dropdown-menu'))"
p3203
sI65
S"    response.write('\\n          ', escape=False)"
p3204
sI66
S'    pass'
p3205
sI67
S'response.write(\'\\n        </div><!--/.nav-collapse -->\\n      </div>\\n    </div>\\n  </div><!--/top navbar -->\\n\\n  <div class="container">\\n    <!-- Masthead ================================================== -->\\n    <header class="mastheader row" id="header">\\n        <div class="span12">\\n            <div class="page-header">\\n                <div class="jumbotron">\\r\\n                    <h1>\', escape=False)'
p3206
sI68
S'response.write(response.title or request.application)'
p3207
sI69
S'response.write(\'</h1>\\r\\n                    <p class="lead">\', escape=False)'
p3208
sI70
S"response.write(response.subtitle or '')"
p3209
sI71
S'response.write(\'</p>\\r\\n                    <a class="btn btn-large btn-success" href="#">\', escape=False)'
p3210
sI72
S'response.write(getStarted)'
p3211
sI73
S'response.write(\'</a>\\r\\n                </div>\\n                <h1>\\n                    \\n                    <br/><small></small>\\n                </h1>\\n            </div>\\n        </div>\\n    </header>\\n    \\r\\n\\n    <section id="main" class="main row">\\n        \', escape=False)'
p3212
sI74
S'if left_sidebar_enabled:'
p3213
sI75
S'    response.write(\'\\n        <div class="span3 left-sidebar">\\n            \', escape=False)'
p3214
sI76
S"    response.write('\\n            <h3>Left Sidebar</h3>\\n            <p></p>\\n            ', escape=False)"
p3215
sI77
S"    response.write('\\n        </div>\\n        ', escape=False)"
p3216
sI78
S'    pass'
p3217
sI79
S'response.write(\'\\n\\n        <div class="\', escape=False)'
p3218
sI80
S'response.write(middle_columns)'
p3219
sI81
S'response.write(\'">\\n            \', escape=False)'
p3220
sI82
S"response.write('\\n            ', escape=False)"
p3221
sI63
S"    response.write('\\n          ', escape=False)"
p3222
ssg3195
S'()'
p3223
sg3197
S'<module>'
p3224
sasS'pyver'
p3225
S'Python 2.7.3: C:\\Python27\\python.exe'
p3226
sS'session'
p3227
g57
(g58
g59
NtRp3228
(dp3229
g62
(dp3230
sg64
(lp3231
g57
(g66
g59
NtRp3232
(dp3233
g62
(dp3234
g70
I5
ssg71
Nsg64
(lp3235
sbasbsS'etype'
p3236
S"<type 'exceptions.NameError'>"
p3237
sS'date'
p3238
S'Sat Feb 23 17:08:57 2013'
p3239
sS'response'
p3240
g57
(g58
g59
NtRp3241
(dp3242
g62
(dp3243
sg64
(lp3244
g57
(g66
g59
NtRp3245
(dp3246
g62
(dp3247
g70
I5
ssg71
Nsg64
(lp3248
g57
(g73
g59
NtRp3249
(dp3250
g62
(dp3251
sg71
g3245
sg64
(lp3252
g57
(g78
g59
NtRp3253
(dp3254
g62
(dp3255
g82
g83
ssg71
g3249
sg64
(lp3256
g155
asbag57
(g78
g59
NtRp3257
(dp3258
g62
(dp3259
g89
g90
ssg71
g3249
sg64
(lp3260
S':'
asbag57
(g78
g59
NtRp3261
(dp3262
g62
(dp3263
sg71
g3249
sg64
(lp3264
g57
(g58
g59
NtRp3265
(dp3266
g62
(dp3267
g70
I5
ssg71
g3261
sg64
(lp3268
S'<cStringIO.StringO object at 0x0000000004C8AC70>'
p3269
asbasbasbag57
(g73
g59
NtRp3270
(dp3271
g62
(dp3272
sg71
g3245
sg64
(lp3273
g57
(g78
g59
NtRp3274
(dp3275
g62
(dp3276
g82
g83
ssg71
g3270
sg64
(lp3277
g243
asbag57
(g78
g59
NtRp3278
(dp3279
g62
(dp3280
g89
g90
ssg71
g3270
sg64
(lp3281
S':'
asbag57
(g78
g59
NtRp3282
(dp3283
g62
(dp3284
sg71
g3270
sg64
(lp3285
g57
(g58
g59
NtRp3286
(dp3287
g62
(dp3288
g70
I5
ssg71
g3282
sg64
(lp3289
g57
(g66
g59
NtRp3290
(dp3291
g62
(dp3292
g70
I4
ssg71
Nsg64
(lp3293
g57
(g73
g59
NtRp3294
(dp3295
g62
(dp3296
sg71
g3290
sg64
(lp3297
g57
(g78
g59
NtRp3298
(dp3299
g62
(dp3300
g82
g83
ssg71
g3294
sg64
(lp3301
S'session_id_pfm_web'
p3302
asbag57
(g78
g59
NtRp3303
(dp3304
g62
(dp3305
g89
g90
ssg71
g3294
sg64
(lp3306
S':'
asbag57
(g78
g59
NtRp3307
(dp3308
g62
(dp3309
sg71
g3294
sg64
(lp3310
g57
(g58
g59
NtRp3311
(dp3312
g62
(dp3313
g70
I4
ssg71
g3307
sg64
(lp3314
g475
ag57
(g66
g59
NtRp3315
(dp3316
g62
(dp3317
g70
I3
ssg71
Nsg64
(lp3318
g57
(g73
g59
NtRp3319
(dp3320
g62
(dp3321
sg71
g3315
sg64
(lp3322
g57
(g78
g59
NtRp3323
(dp3324
g62
(dp3325
g82
g83
ssg71
g3319
sg64
(lp3326
g294
asbag57
(g78
g59
NtRp3327
(dp3328
g62
(dp3329
g89
g90
ssg71
g3319
sg64
(lp3330
S':'
asbag57
(g78
g59
NtRp3331
(dp3332
g62
(dp3333
sg71
g3319
sg64
(lp3334
g57
(g58
g59
NtRp3335
(dp3336
g62
(dp3337
g70
I3
ssg71
g3331
sg64
(lp3338
S''
asbasbasbag57
(g73
g59
NtRp3339
(dp3340
g62
(dp3341
sg71
g3315
sg64
(lp3342
g57
(g78
g59
NtRp3343
(dp3344
g62
(dp3345
g82
g83
ssg71
g3339
sg64
(lp3346
g315
asbag57
(g78
g59
NtRp3347
(dp3348
g62
(dp3349
g89
g90
ssg71
g3339
sg64
(lp3350
S':'
asbag57
(g78
g59
NtRp3351
(dp3352
g62
(dp3353
sg71
g3339
sg64
(lp3354
g57
(g58
g59
NtRp3355
(dp3356
g62
(dp3357
g70
I3
ssg71
g3351
sg64
(lp3358
S''
asbasbasbag57
(g73
g59
NtRp3359
(dp3360
g62
(dp3361
sg71
g3315
sg64
(lp3362
g57
(g78
g59
NtRp3363
(dp3364
g62
(dp3365
g82
g83
ssg71
g3359
sg64
(lp3366
g336
asbag57
(g78
g59
NtRp3367
(dp3368
g62
(dp3369
g89
g90
ssg71
g3359
sg64
(lp3370
S':'
asbag57
(g78
g59
NtRp3371
(dp3372
g62
(dp3373
sg71
g3359
sg64
(lp3374
g57
(g58
g59
NtRp3375
(dp3376
g62
(dp3377
g70
I3
ssg71
g3371
sg64
(lp3378
S''
asbasbasbag57
(g73
g59
NtRp3379
(dp3380
g62
(dp3381
sg71
g3315
sg64
(lp3382
g57
(g78
g59
NtRp3383
(dp3384
g62
(dp3385
g82
g83
ssg71
g3379
sg64
(lp3386
g357
asbag57
(g78
g59
NtRp3387
(dp3388
g62
(dp3389
g89
g90
ssg71
g3379
sg64
(lp3390
S':'
asbag57
(g78
g59
NtRp3391
(dp3392
g62
(dp3393
sg71
g3379
sg64
(lp3394
g57
(g58
g59
NtRp3395
(dp3396
g62
(dp3397
g70
I3
ssg71
g3391
sg64
(lp3398
S''
asbasbasbag57
(g73
g59
NtRp3399
(dp3400
g62
(dp3401
sg71
g3315
sg64
(lp3402
g57
(g78
g59
NtRp3403
(dp3404
g62
(dp3405
g82
g83
ssg71
g3399
sg64
(lp3406
g378
asbag57
(g78
g59
NtRp3407
(dp3408
g62
(dp3409
g89
g90
ssg71
g3399
sg64
(lp3410
S':'
asbag57
(g78
g59
NtRp3411
(dp3412
g62
(dp3413
sg71
g3399
sg64
(lp3414
g57
(g58
g59
NtRp3415
(dp3416
g62
(dp3417
g70
I3
ssg71
g3411
sg64
(lp3418
S''
asbasbasbag57
(g73
g59
NtRp3419
(dp3420
g62
(dp3421
sg71
g3315
sg64
(lp3422
g57
(g78
g59
NtRp3423
(dp3424
g62
(dp3425
g82
g83
ssg71
g3419
sg64
(lp3426
g399
asbag57
(g78
g59
NtRp3427
(dp3428
g62
(dp3429
g89
g90
ssg71
g3419
sg64
(lp3430
S':'
asbag57
(g78
g59
NtRp3431
(dp3432
g62
(dp3433
sg71
g3419
sg64
(lp3434
g57
(g58
g59
NtRp3435
(dp3436
g62
(dp3437
g70
I3
ssg71
g3431
sg64
(lp3438
S'/'
asbasbasbag57
(g73
g59
NtRp3439
(dp3440
g62
(dp3441
sg71
g3315
sg64
(lp3442
g57
(g78
g59
NtRp3443
(dp3444
g62
(dp3445
g82
g83
ssg71
g3439
sg64
(lp3446
g420
asbag57
(g78
g59
NtRp3447
(dp3448
g62
(dp3449
g89
g90
ssg71
g3439
sg64
(lp3450
S':'
asbag57
(g78
g59
NtRp3451
(dp3452
g62
(dp3453
sg71
g3439
sg64
(lp3454
g57
(g58
g59
NtRp3455
(dp3456
g62
(dp3457
g70
I3
ssg71
g3451
sg64
(lp3458
S''
asbasbasbag57
(g73
g59
NtRp3459
(dp3460
g62
(dp3461
sg71
g3315
sg64
(lp3462
g57
(g78
g59
NtRp3463
(dp3464
g62
(dp3465
g82
g83
ssg71
g3459
sg64
(lp3466
g441
asbag57
(g78
g59
NtRp3467
(dp3468
g62
(dp3469
g89
g90
ssg71
g3459
sg64
(lp3470
S':'
asbag57
(g78
g59
NtRp3471
(dp3472
g62
(dp3473
sg71
g3459
sg64
(lp3474
g57
(g58
g59
NtRp3475
(dp3476
g62
(dp3477
g70
I3
ssg71
g3471
sg64
(lp3478
S''
asbasbasbasbasbasbasbasbasbasbasbag57
(g73
g59
NtRp3479
(dp3480
g62
(dp3481
sg71
g3245
sg64
(lp3482
g57
(g78
g59
NtRp3483
(dp3484
g62
(dp3485
g82
g83
ssg71
g3479
sg64
(lp3486
S'delimiters'
p3487
asbag57
(g78
g59
NtRp3488
(dp3489
g62
(dp3490
g89
g90
ssg71
g3479
sg64
(lp3491
S':'
asbag57
(g78
g59
NtRp3492
(dp3493
g62
(dp3494
sg71
g3479
sg64
(lp3495
g57
(g58
g59
NtRp3496
(dp3497
g62
(dp3498
g70
I5
ssg71
g3492
sg64
(lp3499
g57
(g66
g59
NtRp3500
(dp3501
g62
(dp3502
g70
I4
ssg71
Nsg64
(lp3503
g57
(g73
g59
NtRp3504
(dp3505
g62
(dp3506
sg71
g3500
sg64
(lp3507
g57
(g78
g59
NtRp3508
(dp3509
g62
(dp3510
sg71
g3504
sg64
(lp3511
g57
(g58
g59
NtRp3512
(dp3513
g62
(dp3514
g70
I4
ssg71
g3508
sg64
(lp3515
S'{{'
p3516
asbasbasbag57
(g73
g59
NtRp3517
(dp3518
g62
(dp3519
sg71
g3500
sg64
(lp3520
g57
(g78
g59
NtRp3521
(dp3522
g62
(dp3523
sg71
g3517
sg64
(lp3524
g57
(g58
g59
NtRp3525
(dp3526
g62
(dp3527
g70
I4
ssg71
g3521
sg64
(lp3528
S'}}'
p3529
asbasbasbasbasbasbasbag57
(g73
g59
NtRp3530
(dp3531
g62
(dp3532
sg71
g3245
sg64
(lp3533
g57
(g78
g59
NtRp3534
(dp3535
g62
(dp3536
g82
g83
ssg71
g3530
sg64
(lp3537
S'files'
p3538
asbag57
(g78
g59
NtRp3539
(dp3540
g62
(dp3541
g89
g90
ssg71
g3530
sg64
(lp3542
S':'
asbag57
(g78
g59
NtRp3543
(dp3544
g62
(dp3545
sg71
g3530
sg64
(lp3546
g57
(g58
g59
NtRp3547
(dp3548
g62
(dp3549
g70
I5
ssg71
g3543
sg64
(lp3550
g57
(g66
g59
NtRp3551
(dp3552
g62
(dp3553
g70
I4
ssg71
Nsg64
(lp3554
g57
(g73
g59
NtRp3555
(dp3556
g62
(dp3557
sg71
g3551
sg64
(lp3558
g57
(g78
g59
NtRp3559
(dp3560
g62
(dp3561
sg71
g3555
sg64
(lp3562
g57
(g58
g59
NtRp3563
(dp3564
g62
(dp3565
g70
I4
ssg71
g3559
sg64
(lp3566
S'/PFM_Web/static/js/jquery.js'
p3567
asbasbasbag57
(g73
g59
NtRp3568
(dp3569
g62
(dp3570
sg71
g3551
sg64
(lp3571
g57
(g78
g59
NtRp3572
(dp3573
g62
(dp3574
sg71
g3568
sg64
(lp3575
g57
(g58
g59
NtRp3576
(dp3577
g62
(dp3578
g70
I4
ssg71
g3572
sg64
(lp3579
S'/PFM_Web/static/css/calendar.css'
p3580
asbasbasbag57
(g73
g59
NtRp3581
(dp3582
g62
(dp3583
sg71
g3551
sg64
(lp3584
g57
(g78
g59
NtRp3585
(dp3586
g62
(dp3587
sg71
g3581
sg64
(lp3588
g57
(g58
g59
NtRp3589
(dp3590
g62
(dp3591
g70
I4
ssg71
g3585
sg64
(lp3592
S'/PFM_Web/static/js/calendar.js'
p3593
asbasbasbag57
(g73
g59
NtRp3594
(dp3595
g62
(dp3596
sg71
g3551
sg64
(lp3597
g57
(g78
g59
NtRp3598
(dp3599
g62
(dp3600
sg71
g3594
sg64
(lp3601
g57
(g58
g59
NtRp3602
(dp3603
g62
(dp3604
g70
I4
ssg71
g3598
sg64
(lp3605
S'/PFM_Web/static/js/web2py.js'
p3606
asbasbasbag57
(g73
g59
NtRp3607
(dp3608
g62
(dp3609
sg71
g3551
sg64
(lp3610
g57
(g78
g59
NtRp3611
(dp3612
g62
(dp3613
sg71
g3607
sg64
(lp3614
g57
(g58
g59
NtRp3615
(dp3616
g62
(dp3617
g70
I4
ssg71
g3611
sg64
(lp3618
S'/PFM_Web/static/css/web2py.css'
p3619
asbasbasbag57
(g73
g59
NtRp3620
(dp3621
g62
(dp3622
sg71
g3551
sg64
(lp3623
g57
(g78
g59
NtRp3624
(dp3625
g62
(dp3626
sg71
g3620
sg64
(lp3627
g57
(g58
g59
NtRp3628
(dp3629
g62
(dp3630
g70
I4
ssg71
g3624
sg64
(lp3631
S'/PFM_Web/static/css/bootstrap.min.css'
p3632
asbasbasbag57
(g73
g59
NtRp3633
(dp3634
g62
(dp3635
sg71
g3551
sg64
(lp3636
g57
(g78
g59
NtRp3637
(dp3638
g62
(dp3639
sg71
g3633
sg64
(lp3640
g57
(g58
g59
NtRp3641
(dp3642
g62
(dp3643
g70
I4
ssg71
g3637
sg64
(lp3644
S'/PFM_Web/static/css/bootstrap-responsive.min.css'
p3645
asbasbasbag57
(g73
g59
NtRp3646
(dp3647
g62
(dp3648
sg71
g3551
sg64
(lp3649
g57
(g78
g59
NtRp3650
(dp3651
g62
(dp3652
sg71
g3646
sg64
(lp3653
g57
(g58
g59
NtRp3654
(dp3655
g62
(dp3656
g70
I4
ssg71
g3650
sg64
(lp3657
S'/PFM_Web/static/css/site.css'
p3658
asbasbasbag57
(g73
g59
NtRp3659
(dp3660
g62
(dp3661
sg71
g3551
sg64
(lp3662
g57
(g78
g59
NtRp3663
(dp3664
g62
(dp3665
sg71
g3659
sg64
(lp3666
g57
(g58
g59
NtRp3667
(dp3668
g62
(dp3669
g70
I4
ssg71
g3663
sg64
(lp3670
S'/PFM_Web/static/css/web2py_bootstrap.css'
p3671
asbasbasbasbasbasbasbag57
(g73
g59
NtRp3672
(dp3673
g62
(dp3674
sg71
g3245
sg64
(lp3675
g57
(g78
g59
NtRp3676
(dp3677
g62
(dp3678
g82
g83
ssg71
g3672
sg64
(lp3679
S'flash'
p3680
asbag57
(g78
g59
NtRp3681
(dp3682
g62
(dp3683
g89
g90
ssg71
g3672
sg64
(lp3684
S':'
asbag57
(g78
g59
NtRp3685
(dp3686
g62
(dp3687
sg71
g3672
sg64
(lp3688
g57
(g58
g59
NtRp3689
(dp3690
g62
(dp3691
g70
I5
ssg71
g3685
sg64
(lp3692
S''
asbasbasbag57
(g73
g59
NtRp3693
(dp3694
g62
(dp3695
sg71
g3245
sg64
(lp3696
g57
(g78
g59
NtRp3697
(dp3698
g62
(dp3699
g82
g83
ssg71
g3693
sg64
(lp3700
S'generic_patterns'
p3701
asbag57
(g78
g59
NtRp3702
(dp3703
g62
(dp3704
g89
g90
ssg71
g3693
sg64
(lp3705
S':'
asbag57
(g78
g59
NtRp3706
(dp3707
g62
(dp3708
sg71
g3693
sg64
(lp3709
g57
(g58
g59
NtRp3710
(dp3711
g62
(dp3712
g70
I5
ssg71
g3706
sg64
(lp3713
g57
(g66
g59
NtRp3714
(dp3715
g62
(dp3716
g70
I4
ssg71
Nsg64
(lp3717
g57
(g73
g59
NtRp3718
(dp3719
g62
(dp3720
sg71
g3714
sg64
(lp3721
g57
(g78
g59
NtRp3722
(dp3723
g62
(dp3724
sg71
g3718
sg64
(lp3725
g57
(g58
g59
NtRp3726
(dp3727
g62
(dp3728
g70
I4
ssg71
g3722
sg64
(lp3729
S'*'
asbasbasbasbasbasbasbag57
(g73
g59
NtRp3730
(dp3731
g62
(dp3732
sg71
g3245
sg64
(lp3733
g57
(g78
g59
NtRp3734
(dp3735
g62
(dp3736
g82
g83
ssg71
g3730
sg64
(lp3737
S'google_analytics_id'
p3738
asbag57
(g78
g59
NtRp3739
(dp3740
g62
(dp3741
g89
g90
ssg71
g3730
sg64
(lp3742
S':'
asbag57
(g78
g59
NtRp3743
(dp3744
g62
(dp3745
sg71
g3730
sg64
(lp3746
g57
(g58
g59
NtRp3747
(dp3748
g62
(dp3749
g70
I5
ssg71
g3743
sg64
(lp3750
S'None'
p3751
asbasbasbag57
(g73
g59
NtRp3752
(dp3753
g62
(dp3754
sg71
g3245
sg64
(lp3755
g57
(g78
g59
NtRp3756
(dp3757
g62
(dp3758
g82
g83
ssg71
g3752
sg64
(lp3759
S'headers'
p3760
asbag57
(g78
g59
NtRp3761
(dp3762
g62
(dp3763
g89
g90
ssg71
g3752
sg64
(lp3764
S':'
asbag57
(g78
g59
NtRp3765
(dp3766
g62
(dp3767
sg71
g3752
sg64
(lp3768
g57
(g58
g59
NtRp3769
(dp3770
g62
(dp3771
g70
I5
ssg71
g3765
sg64
(lp3772
g57
(g66
g59
NtRp3773
(dp3774
g62
(dp3775
g70
I4
ssg71
Nsg64
(lp3776
g57
(g73
g59
NtRp3777
(dp3778
g62
(dp3779
sg71
g3773
sg64
(lp3780
g57
(g78
g59
NtRp3781
(dp3782
g62
(dp3783
g82
g83
ssg71
g3777
sg64
(lp3784
S'X-Powered-By'
p3785
asbag57
(g78
g59
NtRp3786
(dp3787
g62
(dp3788
g89
g90
ssg71
g3777
sg64
(lp3789
S':'
asbag57
(g78
g59
NtRp3790
(dp3791
g62
(dp3792
sg71
g3777
sg64
(lp3793
g57
(g58
g59
NtRp3794
(dp3795
g62
(dp3796
g70
I4
ssg71
g3790
sg64
(lp3797
S'web2py'
p3798
asbasbasbasbasbasbasbag57
(g73
g59
NtRp3799
(dp3800
g62
(dp3801
sg71
g3245
sg64
(lp3802
g57
(g78
g59
NtRp3803
(dp3804
g62
(dp3805
g82
g83
ssg71
g3799
sg64
(lp3806
S'logo'
p3807
asbag57
(g78
g59
NtRp3808
(dp3809
g62
(dp3810
g89
g90
ssg71
g3799
sg64
(lp3811
S':'
asbag57
(g78
g59
NtRp3812
(dp3813
g62
(dp3814
sg71
g3799
sg64
(lp3815
g57
(g58
g59
NtRp3816
(dp3817
g62
(dp3818
g70
I5
ssg71
g3812
sg64
(lp3819
g57
(cgluon.html
A
p3820
g59
NtRp3821
(dp3822
g62
(dp3823
S'_class'
p3824
S'brand'
p3825
sS'_href'
p3826
S'http://codeagranel.github.com/'
p3827
ssg71
Nsg64
(lp3828
g57
(cgluon.html
B
p3829
g59
NtRp3830
(dp3831
g62
(dp3832
sg71
g3821
sg64
(lp3833
S'Code'
p3834
ag57
(cgluon.html
SPAN
p3835
g59
NtRp3836
(dp3837
g62
(dp3838
sg71
g3830
sg64
(lp3839
S'-A-'
p3840
asbaS'Granel'
p3841
asbacgluon.html
XML_unpickle
p3842
(S's\r\x00\x00\x00&trade;&nbsp;'
tRp3843
asbasbasbasbag57
(g73
g59
NtRp3844
(dp3845
g62
(dp3846
sg71
g3245
sg64
(lp3847
g57
(g78
g59
NtRp3848
(dp3849
g62
(dp3850
g82
g83
ssg71
g3844
sg64
(lp3851
S'menu'
p3852
asbag57
(g78
g59
NtRp3853
(dp3854
g62
(dp3855
g89
g90
ssg71
g3844
sg64
(lp3856
S':'
asbag57
(g78
g59
NtRp3857
(dp3858
g62
(dp3859
sg71
g3844
sg64
(lp3860
g57
(g58
g59
NtRp3861
(dp3862
g62
(dp3863
g70
I5
ssg71
g3857
sg64
(lp3864
g57
(g66
g59
NtRp3865
(dp3866
g62
(dp3867
g70
I4
ssg71
Nsg64
(lp3868
g57
(g73
g59
NtRp3869
(dp3870
g62
(dp3871
sg71
g3865
sg64
(lp3872
g57
(g78
g59
NtRp3873
(dp3874
g62
(dp3875
sg71
g3869
sg64
(lp3876
g57
(g58
g59
NtRp3877
(dp3878
g62
(dp3879
g70
I4
ssg71
g3873
sg64
(lp3880
g57
(g66
g59
NtRp3881
(dp3882
g62
(dp3883
g70
I3
ssg71
Nsg64
(lp3884
g57
(g73
g59
NtRp3885
(dp3886
g62
(dp3887
sg71
g3881
sg64
(lp3888
g57
(g78
g59
NtRp3889
(dp3890
g62
(dp3891
sg71
g3885
sg64
(lp3892
g57
(g58
g59
NtRp3893
(dp3894
g62
(dp3895
g70
I3
ssg71
g3889
sg64
(lp3896
cgluon.languages
lazyT_unpickle
p3897
(S's\x04\x00\x00\x00Home'
tRp3898
asbasbasbag57
(g73
g59
NtRp3899
(dp3900
g62
(dp3901
sg71
g3881
sg64
(lp3902
g57
(g78
g59
NtRp3903
(dp3904
g62
(dp3905
sg71
g3899
sg64
(lp3906
g57
(g58
g59
NtRp3907
(dp3908
g62
(dp3909
g70
I3
ssg71
g3903
sg64
(lp3910
g100
asbasbasbag57
(g73
g59
NtRp3911
(dp3912
g62
(dp3913
sg71
g3881
sg64
(lp3914
g57
(g78
g59
NtRp3915
(dp3916
g62
(dp3917
sg71
g3911
sg64
(lp3918
g57
(g58
g59
NtRp3919
(dp3920
g62
(dp3921
g70
I3
ssg71
g3915
sg64
(lp3922
S'/PFM_Web/default/index'
p3923
asbasbasbag57
(g73
g59
NtRp3924
(dp3925
g62
(dp3926
sg71
g3881
sg64
(lp3927
g57
(g78
g59
NtRp3928
(dp3929
g62
(dp3930
sg71
g3924
sg64
(lp3931
g57
(g58
g59
NtRp3932
(dp3933
g62
(dp3934
g70
I3
ssg71
g3928
sg64
(lp3935
g57
(g66
g59
NtRp3936
(dp3937
g62
(dp3938
g70
I2
ssg71
Nsg64
(lp3939
sbasbasbasbasbasbasbasbag57
(g73
g59
NtRp3940
(dp3941
g62
(dp3942
sg71
g3865
sg64
(lp3943
g57
(g78
g59
NtRp3944
(dp3945
g62
(dp3946
sg71
g3940
sg64
(lp3947
g57
(g58
g59
NtRp3948
(dp3949
g62
(dp3950
g70
I4
ssg71
g3944
sg64
(lp3951
g57
(g66
g59
NtRp3952
(dp3953
g62
(dp3954
g70
I3
ssg71
Nsg64
(lp3955
g57
(g73
g59
NtRp3956
(dp3957
g62
(dp3958
sg71
g3952
sg64
(lp3959
g57
(g78
g59
NtRp3960
(dp3961
g62
(dp3962
sg71
g3956
sg64
(lp3963
g57
(g58
g59
NtRp3964
(dp3965
g62
(dp3966
g70
I3
ssg71
g3960
sg64
(lp3967
g3897
(S's\x08\x00\x00\x00Expenses'
tRp3968
asbasbasbag57
(g73
g59
NtRp3969
(dp3970
g62
(dp3971
sg71
g3952
sg64
(lp3972
g57
(g78
g59
NtRp3973
(dp3974
g62
(dp3975
sg71
g3969
sg64
(lp3976
g57
(g58
g59
NtRp3977
(dp3978
g62
(dp3979
g70
I3
ssg71
g3973
sg64
(lp3980
g100
asbasbasbag57
(g73
g59
NtRp3981
(dp3982
g62
(dp3983
sg71
g3952
sg64
(lp3984
g57
(g78
g59
NtRp3985
(dp3986
g62
(dp3987
sg71
g3981
sg64
(lp3988
g57
(g58
g59
NtRp3989
(dp3990
g62
(dp3991
g70
I3
ssg71
g3985
sg64
(lp3992
S'/PFM_Web/expenses/index'
p3993
asbasbasbag57
(g73
g59
NtRp3994
(dp3995
g62
(dp3996
sg71
g3952
sg64
(lp3997
g57
(g78
g59
NtRp3998
(dp3999
g62
(dp4000
sg71
g3994
sg64
(lp4001
g57
(g58
g59
NtRp4002
(dp4003
g62
(dp4004
g70
I3
ssg71
g3998
sg64
(lp4005
g57
(g66
g59
NtRp4006
(dp4007
g62
(dp4008
g70
I2
ssg71
Nsg64
(lp4009
sbasbasbasbasbasbasbasbag57
(g73
g59
NtRp4010
(dp4011
g62
(dp4012
sg71
g3865
sg64
(lp4013
g57
(g78
g59
NtRp4014
(dp4015
g62
(dp4016
sg71
g4010
sg64
(lp4017
g57
(g58
g59
NtRp4018
(dp4019
g62
(dp4020
g70
I4
ssg71
g4014
sg64
(lp4021
g57
(g66
g59
NtRp4022
(dp4023
g62
(dp4024
g70
I3
ssg71
Nsg64
(lp4025
g57
(g73
g59
NtRp4026
(dp4027
g62
(dp4028
sg71
g4022
sg64
(lp4029
g57
(g78
g59
NtRp4030
(dp4031
g62
(dp4032
sg71
g4026
sg64
(lp4033
g57
(g58
g59
NtRp4034
(dp4035
g62
(dp4036
g70
I3
ssg71
g4030
sg64
(lp4037
g3897
(S's\n\x00\x00\x00Categories'
tRp4038
asbasbasbag57
(g73
g59
NtRp4039
(dp4040
g62
(dp4041
sg71
g4022
sg64
(lp4042
g57
(g78
g59
NtRp4043
(dp4044
g62
(dp4045
sg71
g4039
sg64
(lp4046
g57
(g58
g59
NtRp4047
(dp4048
g62
(dp4049
g70
I3
ssg71
g4043
sg64
(lp4050
g100
asbasbasbag57
(g73
g59
NtRp4051
(dp4052
g62
(dp4053
sg71
g4022
sg64
(lp4054
g57
(g78
g59
NtRp4055
(dp4056
g62
(dp4057
sg71
g4051
sg64
(lp4058
g57
(g58
g59
NtRp4059
(dp4060
g62
(dp4061
g70
I3
ssg71
g4055
sg64
(lp4062
S'/PFM_Web/categories/index'
p4063
asbasbasbag57
(g73
g59
NtRp4064
(dp4065
g62
(dp4066
sg71
g4022
sg64
(lp4067
g57
(g78
g59
NtRp4068
(dp4069
g62
(dp4070
sg71
g4064
sg64
(lp4071
g57
(g58
g59
NtRp4072
(dp4073
g62
(dp4074
g70
I3
ssg71
g4068
sg64
(lp4075
g57
(g66
g59
NtRp4076
(dp4077
g62
(dp4078
g70
I2
ssg71
Nsg64
(lp4079
sbasbasbasbasbasbasbasbag57
(g73
g59
NtRp4080
(dp4081
g62
(dp4082
sg71
g3865
sg64
(lp4083
g57
(g78
g59
NtRp4084
(dp4085
g62
(dp4086
sg71
g4080
sg64
(lp4087
g57
(g58
g59
NtRp4088
(dp4089
g62
(dp4090
g70
I4
ssg71
g4084
sg64
(lp4091
g57
(g66
g59
NtRp4092
(dp4093
g62
(dp4094
g70
I3
ssg71
Nsg64
(lp4095
g57
(g73
g59
NtRp4096
(dp4097
g62
(dp4098
sg71
g4092
sg64
(lp4099
g57
(g78
g59
NtRp4100
(dp4101
g62
(dp4102
sg71
g4096
sg64
(lp4103
g57
(g58
g59
NtRp4104
(dp4105
g62
(dp4106
g70
I3
ssg71
g4100
sg64
(lp4107
g3897
(S's\x12\x00\x00\x00Methods of payment'
tRp4108
asbasbasbag57
(g73
g59
NtRp4109
(dp4110
g62
(dp4111
sg71
g4092
sg64
(lp4112
g57
(g78
g59
NtRp4113
(dp4114
g62
(dp4115
sg71
g4109
sg64
(lp4116
g57
(g58
g59
NtRp4117
(dp4118
g62
(dp4119
g70
I3
ssg71
g4113
sg64
(lp4120
g100
asbasbasbag57
(g73
g59
NtRp4121
(dp4122
g62
(dp4123
sg71
g4092
sg64
(lp4124
g57
(g78
g59
NtRp4125
(dp4126
g62
(dp4127
sg71
g4121
sg64
(lp4128
g57
(g58
g59
NtRp4129
(dp4130
g62
(dp4131
g70
I3
ssg71
g4125
sg64
(lp4132
S'/PFM_Web/methodsofpayment/index'
p4133
asbasbasbag57
(g73
g59
NtRp4134
(dp4135
g62
(dp4136
sg71
g4092
sg64
(lp4137
g57
(g78
g59
NtRp4138
(dp4139
g62
(dp4140
sg71
g4134
sg64
(lp4141
g57
(g58
g59
NtRp4142
(dp4143
g62
(dp4144
g70
I3
ssg71
g4138
sg64
(lp4145
g57
(g66
g59
NtRp4146
(dp4147
g62
(dp4148
g70
I2
ssg71
Nsg64
(lp4149
sbasbasbasbasbasbasbasbasbasbasbasbag57
(g73
g59
NtRp4150
(dp4151
g62
(dp4152
sg71
g3245
sg64
(lp4153
g57
(g78
g59
NtRp4154
(dp4155
g62
(dp4156
g82
g83
ssg71
g4150
sg64
(lp4157
S'meta'
p4158
asbag57
(g78
g59
NtRp4159
(dp4160
g62
(dp4161
g89
g90
ssg71
g4150
sg64
(lp4162
S':'
asbag57
(g78
g59
NtRp4163
(dp4164
g62
(dp4165
sg71
g4150
sg64
(lp4166
g57
(g58
g59
NtRp4167
(dp4168
g62
(dp4169
g70
I5
ssg71
g4163
sg64
(lp4170
g57
(g66
g59
NtRp4171
(dp4172
g62
(dp4173
g70
I4
ssg71
Nsg64
(lp4174
g57
(g73
g59
NtRp4175
(dp4176
g62
(dp4177
sg71
g4171
sg64
(lp4178
g57
(g78
g59
NtRp4179
(dp4180
g62
(dp4181
g82
g83
ssg71
g4175
sg64
(lp4182
S'author'
p4183
asbag57
(g78
g59
NtRp4184
(dp4185
g62
(dp4186
g89
g90
ssg71
g4175
sg64
(lp4187
S':'
asbag57
(g78
g59
NtRp4188
(dp4189
g62
(dp4190
sg71
g4175
sg64
(lp4191
g57
(g58
g59
NtRp4192
(dp4193
g62
(dp4194
g70
I4
ssg71
g4188
sg64
(lp4195
S'Juliano Souza <juliano.sdsouza@gmail.com>'
p4196
asbasbasbag57
(g73
g59
NtRp4197
(dp4198
g62
(dp4199
sg71
g4171
sg64
(lp4200
g57
(g78
g59
NtRp4201
(dp4202
g62
(dp4203
g82
g83
ssg71
g4197
sg64
(lp4204
S'description'
p4205
asbag57
(g78
g59
NtRp4206
(dp4207
g62
(dp4208
g89
g90
ssg71
g4197
sg64
(lp4209
S':'
asbag57
(g78
g59
NtRp4210
(dp4211
g62
(dp4212
sg71
g4197
sg64
(lp4213
g57
(g58
g59
NtRp4214
(dp4215
g62
(dp4216
g70
I4
ssg71
g4210
sg64
(lp4217
S'Your finances in a simpler way'
p4218
asbasbasbag57
(g73
g59
NtRp4219
(dp4220
g62
(dp4221
sg71
g4171
sg64
(lp4222
g57
(g78
g59
NtRp4223
(dp4224
g62
(dp4225
g82
g83
ssg71
g4219
sg64
(lp4226
S'generator'
p4227
asbag57
(g78
g59
NtRp4228
(dp4229
g62
(dp4230
g89
g90
ssg71
g4219
sg64
(lp4231
S':'
asbag57
(g78
g59
NtRp4232
(dp4233
g62
(dp4234
sg71
g4219
sg64
(lp4235
g57
(g58
g59
NtRp4236
(dp4237
g62
(dp4238
g70
I4
ssg71
g4232
sg64
(lp4239
S'Web2py Web Framework'
p4240
asbasbasbag57
(g73
g59
NtRp4241
(dp4242
g62
(dp4243
sg71
g4171
sg64
(lp4244
g57
(g78
g59
NtRp4245
(dp4246
g62
(dp4247
g82
g83
ssg71
g4241
sg64
(lp4248
S'keywords'
p4249
asbag57
(g78
g59
NtRp4250
(dp4251
g62
(dp4252
g89
g90
ssg71
g4241
sg64
(lp4253
S':'
asbag57
(g78
g59
NtRp4254
(dp4255
g62
(dp4256
sg71
g4241
sg64
(lp4257
g57
(g58
g59
NtRp4258
(dp4259
g62
(dp4260
g70
I4
ssg71
g4254
sg64
(lp4261
S'finances, management, personal, app, application'
p4262
asbasbasbasbasbasbasbag57
(g73
g59
NtRp4263
(dp4264
g62
(dp4265
sg71
g3245
sg64
(lp4266
g57
(g78
g59
NtRp4267
(dp4268
g62
(dp4269
g82
g83
ssg71
g4263
sg64
(lp4270
S'models_to_run'
p4271
asbag57
(g78
g59
NtRp4272
(dp4273
g62
(dp4274
g89
g90
ssg71
g4263
sg64
(lp4275
S':'
asbag57
(g78
g59
NtRp4276
(dp4277
g62
(dp4278
sg71
g4263
sg64
(lp4279
g57
(g58
g59
NtRp4280
(dp4281
g62
(dp4282
g70
I5
ssg71
g4276
sg64
(lp4283
g57
(g66
g59
NtRp4284
(dp4285
g62
(dp4286
g70
I4
ssg71
Nsg64
(lp4287
g57
(g73
g59
NtRp4288
(dp4289
g62
(dp4290
sg71
g4284
sg64
(lp4291
g57
(g78
g59
NtRp4292
(dp4293
g62
(dp4294
sg71
g4288
sg64
(lp4295
g57
(g58
g59
NtRp4296
(dp4297
g62
(dp4298
g70
I4
ssg71
g4292
sg64
(lp4299
S'^\\w+\\.py$'
p4300
asbasbasbag57
(g73
g59
NtRp4301
(dp4302
g62
(dp4303
sg71
g4284
sg64
(lp4304
g57
(g78
g59
NtRp4305
(dp4306
g62
(dp4307
sg71
g4301
sg64
(lp4308
g57
(g58
g59
NtRp4309
(dp4310
g62
(dp4311
g70
I4
ssg71
g4305
sg64
(lp4312
S'^default/\\w+\\.py$'
p4313
asbasbasbag57
(g73
g59
NtRp4314
(dp4315
g62
(dp4316
sg71
g4284
sg64
(lp4317
g57
(g78
g59
NtRp4318
(dp4319
g62
(dp4320
sg71
g4314
sg64
(lp4321
g57
(g58
g59
NtRp4322
(dp4323
g62
(dp4324
g70
I4
ssg71
g4318
sg64
(lp4325
S'^default/index/\\w+\\.py$'
p4326
asbasbasbasbasbasbasbag57
(g73
g59
NtRp4327
(dp4328
g62
(dp4329
sg71
g3245
sg64
(lp4330
g57
(g78
g59
NtRp4331
(dp4332
g62
(dp4333
g82
g83
ssg71
g4327
sg64
(lp4334
S'postprocessing'
p4335
asbag57
(g78
g59
NtRp4336
(dp4337
g62
(dp4338
g89
g90
ssg71
g4327
sg64
(lp4339
S':'
asbag57
(g78
g59
NtRp4340
(dp4341
g62
(dp4342
sg71
g4327
sg64
(lp4343
g57
(g58
g59
NtRp4344
(dp4345
g62
(dp4346
g70
I5
ssg71
g4340
sg64
(lp4347
g57
(g66
g59
NtRp4348
(dp4349
g62
(dp4350
g70
I4
ssg71
Nsg64
(lp4351
sbasbasbasbag57
(g73
g59
NtRp4352
(dp4353
g62
(dp4354
sg71
g3245
sg64
(lp4355
g57
(g78
g59
NtRp4356
(dp4357
g62
(dp4358
g82
g83
ssg71
g4352
sg64
(lp4359
S'session_cookie_expires'
p4360
asbag57
(g78
g59
NtRp4361
(dp4362
g62
(dp4363
g89
g90
ssg71
g4352
sg64
(lp4364
S':'
asbag57
(g78
g59
NtRp4365
(dp4366
g62
(dp4367
sg71
g4352
sg64
(lp4368
g57
(g58
g59
NtRp4369
(dp4370
g62
(dp4371
g70
I5
ssg71
g4365
sg64
(lp4372
S'None'
p4373
asbasbasbag57
(g73
g59
NtRp4374
(dp4375
g62
(dp4376
sg71
g3245
sg64
(lp4377
g57
(g78
g59
NtRp4378
(dp4379
g62
(dp4380
g82
g83
ssg71
g4374
sg64
(lp4381
S'session_data_name'
p4382
asbag57
(g78
g59
NtRp4383
(dp4384
g62
(dp4385
g89
g90
ssg71
g4374
sg64
(lp4386
S':'
asbag57
(g78
g59
NtRp4387
(dp4388
g62
(dp4389
sg71
g4374
sg64
(lp4390
g57
(g58
g59
NtRp4391
(dp4392
g62
(dp4393
g70
I5
ssg71
g4387
sg64
(lp4394
S'session_data_pfm_web'
p4395
asbasbasbag57
(g73
g59
NtRp4396
(dp4397
g62
(dp4398
sg71
g3245
sg64
(lp4399
g57
(g78
g59
NtRp4400
(dp4401
g62
(dp4402
g82
g83
ssg71
g4396
sg64
(lp4403
S'session_file'
p4404
asbag57
(g78
g59
NtRp4405
(dp4406
g62
(dp4407
g89
g90
ssg71
g4396
sg64
(lp4408
S':'
asbag57
(g78
g59
NtRp4409
(dp4410
g62
(dp4411
sg71
g4396
sg64
(lp4412
g57
(g58
g59
NtRp4413
(dp4414
g62
(dp4415
g70
I5
ssg71
g4409
sg64
(lp4416
S"<open file 'C:\\Users\\Juliano\\Documents\\Visual Studio 2012\\Projects\\PFM-Web\\applications\\PFM_Web\\sessions\\127.0.0.1-140a1922-a5d0-44eb-9a21-a4c388e16f08', mode 'rb+' at 0x0000000004FE7F60>"
p4417
asbasbasbag57
(g73
g59
NtRp4418
(dp4419
g62
(dp4420
sg71
g3245
sg64
(lp4421
g57
(g78
g59
NtRp4422
(dp4423
g62
(dp4424
g82
g83
ssg71
g4418
sg64
(lp4425
S'session_filename'
p4426
asbag57
(g78
g59
NtRp4427
(dp4428
g62
(dp4429
g89
g90
ssg71
g4418
sg64
(lp4430
S':'
asbag57
(g78
g59
NtRp4431
(dp4432
g62
(dp4433
sg71
g4418
sg64
(lp4434
g57
(g58
g59
NtRp4435
(dp4436
g62
(dp4437
g70
I5
ssg71
g4431
sg64
(lp4438
S'C:\\Users\\Juliano\\Documents\\Visual Studio 2012\\Projects\\PFM-Web\\applications\\PFM_Web\\sessions\\127.0.0.1-140a1922-a5d0-44eb-9a21-a4c388e16f08'
p4439
asbasbasbag57
(g73
g59
NtRp4440
(dp4441
g62
(dp4442
sg71
g3245
sg64
(lp4443
g57
(g78
g59
NtRp4444
(dp4445
g62
(dp4446
g82
g83
ssg71
g4440
sg64
(lp4447
S'session_id'
p4448
asbag57
(g78
g59
NtRp4449
(dp4450
g62
(dp4451
g89
g90
ssg71
g4440
sg64
(lp4452
S':'
asbag57
(g78
g59
NtRp4453
(dp4454
g62
(dp4455
sg71
g4440
sg64
(lp4456
g57
(g58
g59
NtRp4457
(dp4458
g62
(dp4459
g70
I5
ssg71
g4453
sg64
(lp4460
g475
asbasbasbag57
(g73
g59
NtRp4461
(dp4462
g62
(dp4463
sg71
g3245
sg64
(lp4464
g57
(g78
g59
NtRp4465
(dp4466
g62
(dp4467
g82
g83
ssg71
g4461
sg64
(lp4468
S'session_id_name'
p4469
asbag57
(g78
g59
NtRp4470
(dp4471
g62
(dp4472
g89
g90
ssg71
g4461
sg64
(lp4473
S':'
asbag57
(g78
g59
NtRp4474
(dp4475
g62
(dp4476
sg71
g4461
sg64
(lp4477
g57
(g58
g59
NtRp4478
(dp4479
g62
(dp4480
g70
I5
ssg71
g4474
sg64
(lp4481
g3302
asbasbasbag57
(g73
g59
NtRp4482
(dp4483
g62
(dp4484
sg71
g3245
sg64
(lp4485
g57
(g78
g59
NtRp4486
(dp4487
g62
(dp4488
g82
g83
ssg71
g4482
sg64
(lp4489
S'session_locked'
p4490
asbag57
(g78
g59
NtRp4491
(dp4492
g62
(dp4493
g89
g90
ssg71
g4482
sg64
(lp4494
S':'
asbag57
(g78
g59
NtRp4495
(dp4496
g62
(dp4497
sg71
g4482
sg64
(lp4498
g57
(g58
g59
NtRp4499
(dp4500
g62
(dp4501
g70
I5
ssg71
g4495
sg64
(lp4502
g1665
asbasbasbag57
(g73
g59
NtRp4503
(dp4504
g62
(dp4505
sg71
g3245
sg64
(lp4506
g57
(g78
g59
NtRp4507
(dp4508
g62
(dp4509
g82
g83
ssg71
g4503
sg64
(lp4510
S'session_new'
p4511
asbag57
(g78
g59
NtRp4512
(dp4513
g62
(dp4514
g89
g90
ssg71
g4503
sg64
(lp4515
S':'
asbag57
(g78
g59
NtRp4516
(dp4517
g62
(dp4518
sg71
g4503
sg64
(lp4519
g57
(g58
g59
NtRp4520
(dp4521
g62
(dp4522
g70
I5
ssg71
g4516
sg64
(lp4523
g100
asbasbasbag57
(g73
g59
NtRp4524
(dp4525
g62
(dp4526
sg71
g3245
sg64
(lp4527
g57
(g78
g59
NtRp4528
(dp4529
g62
(dp4530
g82
g83
ssg71
g4524
sg64
(lp4531
S'session_storage_type'
p4532
asbag57
(g78
g59
NtRp4533
(dp4534
g62
(dp4535
g89
g90
ssg71
g4524
sg64
(lp4536
S':'
asbag57
(g78
g59
NtRp4537
(dp4538
g62
(dp4539
sg71
g4524
sg64
(lp4540
g57
(g58
g59
NtRp4541
(dp4542
g62
(dp4543
g70
I5
ssg71
g4537
sg64
(lp4544
g3174
asbasbasbag57
(g73
g59
NtRp4545
(dp4546
g62
(dp4547
sg71
g3245
sg64
(lp4548
g57
(g78
g59
NtRp4549
(dp4550
g62
(dp4551
g82
g83
ssg71
g4545
sg64
(lp4552
S'status'
p4553
asbag57
(g78
g59
NtRp4554
(dp4555
g62
(dp4556
g89
g90
ssg71
g4545
sg64
(lp4557
S':'
asbag57
(g78
g59
NtRp4558
(dp4559
g62
(dp4560
sg71
g4545
sg64
(lp4561
g57
(g58
g59
NtRp4562
(dp4563
g62
(dp4564
g70
I5
ssg71
g4558
sg64
(lp4565
S'200'
p4566
asbasbasbag57
(g73
g59
NtRp4567
(dp4568
g62
(dp4569
sg71
g3245
sg64
(lp4570
g57
(g78
g59
NtRp4571
(dp4572
g62
(dp4573
g82
g83
ssg71
g4567
sg64
(lp4574
S'subtitle'
p4575
asbag57
(g78
g59
NtRp4576
(dp4577
g62
(dp4578
g89
g90
ssg71
g4567
sg64
(lp4579
S':'
asbag57
(g78
g59
NtRp4580
(dp4581
g62
(dp4582
sg71
g4567
sg64
(lp4583
g57
(g58
g59
NtRp4584
(dp4585
g62
(dp4586
g70
I5
ssg71
g4580
sg64
(lp4587
g3897
(S's\x1e\x00\x00\x00Your finances in a simpler way'
tRp4588
asbasbasbag57
(g73
g59
NtRp4589
(dp4590
g62
(dp4591
sg71
g3245
sg64
(lp4592
g57
(g78
g59
NtRp4593
(dp4594
g62
(dp4595
g82
g83
ssg71
g4589
sg64
(lp4596
S'title'
p4597
asbag57
(g78
g59
NtRp4598
(dp4599
g62
(dp4600
g89
g90
ssg71
g4589
sg64
(lp4601
S':'
asbag57
(g78
g59
NtRp4602
(dp4603
g62
(dp4604
sg71
g4589
sg64
(lp4605
g57
(g58
g59
NtRp4606
(dp4607
g62
(dp4608
g70
I5
ssg71
g4602
sg64
(lp4609
S'Personal Finances Manager'
p4610
asbasbasbag57
(g73
g59
NtRp4611
(dp4612
g62
(dp4613
sg71
g3245
sg64
(lp4614
g57
(g78
g59
NtRp4615
(dp4616
g62
(dp4617
g82
g83
ssg71
g4611
sg64
(lp4618
S'view'
p4619
asbag57
(g78
g59
NtRp4620
(dp4621
g62
(dp4622
g89
g90
ssg71
g4611
sg64
(lp4623
S':'
asbag57
(g78
g59
NtRp4624
(dp4625
g62
(dp4626
sg71
g4611
sg64
(lp4627
g57
(g58
g59
NtRp4628
(dp4629
g62
(dp4630
g70
I5
ssg71
g4624
sg64
(lp4631
S'default/index.html'
p4632
asbasbasbasbasbsS'locals'
p4633
(dp4634
S'Service'
p4635
S"<class 'gluon.tools.Service'>"
p4636
sS'OBJECT'
p4637
S"<class 'gluon.html.OBJECT'>"
p4638
sS'SQLDB'
p4639
S"<class 'gluon.dal.DAL'>"
p4640
sg3227
S"<Storage {'_auth_next': '/PFM_Web/default/index'...'10.0', 'name': 'Microsoft Internet Explorer'}}}>"
p4641
sS'LINK'
p4642
S"<class 'gluon.html.LINK'>"
p4643
sS'BR'
p4644
S"<class 'gluon.html.BR'>"
p4645
sS'local_import'
p4646
S'<function <lambda>>'
p4647
sS'OPTGROUP'
p4648
S"<class 'gluon.html.OPTGROUP'>"
p4649
sS'__package__'
p4650
S'None'
p4651
sS'PRE'
p4652
S"<class 'gluon.html.PRE'>"
p4653
sS'IS_INT_IN_RANGE'
p4654
S"<class 'gluon.validators.IS_INT_IN_RANGE'>"
p4655
sS'left_sidebar_enabled'
p4656
g100
sS'IS_LOWER'
p4657
S"<class 'gluon.validators.IS_LOWER'>"
p4658
sS'IS_STRONG'
p4659
S"<class 'gluon.validators.IS_STRONG'>"
p4660
sS'cache'
p4661
S'<gluon.cache.Cache object>'
p4662
sS'IS_IN_DB'
p4663
S"<class 'gluon.validators.IS_IN_DB'>"
p4664
sS'TAG'
p4665
S'<gluon.html.__TAG__ object>'
p4666
sS'SQLField'
p4667
S"<class 'gluon.dal.Field'>"
p4668
sS'mail'
p4669
S'<gluon.tools.Mail object>'
p4670
sS'BODY'
p4671
S"<class 'gluon.html.BODY'>"
p4672
sS'IS_DATE_IN_RANGE'
p4673
S"<class 'gluon.validators.IS_DATE_IN_RANGE'>"
p4674
sS'IFRAME'
p4675
S"<class 'gluon.html.IFRAME'>"
p4676
sS'URL'
p4677
S'<function URL>'
p4678
sS'__file__'
p4679
S"r'C:\\Users\\Juliano\\Documents\\Visual Studio 2012\\Pr...Web\\applications\\PFM_Web\\views\\default/index.html'"
p4680
sS'db'
p4681
S'<DAL uri="sqlite://storage.sqlite">'
p4682
sS'auth'
p4683
S'<gluon.tools.Auth object>'
p4684
sS'P'
S"<class 'gluon.html.P'>"
p4685
sS'TFOOT'
p4686
S"<class 'gluon.html.TFOOT'>"
p4687
sS'XHTML'
p4688
S"<class 'gluon.html.XHTML'>"
p4689
sS'ON'
p4690
g1665
sS'OL'
p4691
S"<class 'gluon.html.OL'>"
p4692
sS'TEXTAREA'
p4693
S"<class 'gluon.html.TEXTAREA'>"
p4694
sS'MENU'
p4695
S"<class 'gluon.html.MENU'>"
p4696
sS'IS_IMAGE'
p4697
S"<class 'gluon.validators.IS_IMAGE'>"
p4698
sS'EM'
p4699
S"<class 'gluon.html.EM'>"
p4700
sS'CODE'
p4701
S"<class 'gluon.html.CODE'>"
p4702
sS'HTTP'
p4703
S"<class 'gluon.http.HTTP'>"
p4704
sS'HR'
p4705
S"<class 'gluon.html.HR'>"
p4706
sS'IS_DATETIME'
p4707
S"<class 'gluon.validators.IS_DATETIME'>"
p4708
sS'STYLE'
p4709
S"<class 'gluon.html.STYLE'>"
p4710
sS'LABEL'
p4711
S"<class 'gluon.html.LABEL'>"
p4712
sS'CLEANUP'
p4713
S"<class 'gluon.validators.CLEANUP'>"
p4714
sS'plugins'
p4715
S'<gluon.tools.PluginManager object>'
p4716
sS'SELECT'
p4717
S"<class 'gluon.html.SELECT'>"
p4718
sS'use_janrain'
p4719
S'<function use_janrain>'
p4720
sS'CENTER'
p4721
S"<class 'gluon.html.CENTER'>"
p4722
sS'prettydate'
p4723
S'<function prettydate>'
p4724
sS'Crud'
p4725
S"<class 'gluon.tools.Crud'>"
p4726
sS'Auth'
p4727
S"<class 'gluon.tools.Auth'>"
p4728
sS'DEVELOPMENT_MENU'
p4729
g100
sS'__builtins__'
p4730
S"{'ArithmeticError': <type 'exceptions.ArithmeticError'>, 'AssertionError': <type 'exceptions.AssertionError'>, 'AttributeError': <type 'exceptions.AttributeError'>, 'BaseException': <type 'exceptions.BaseException'>, 'BufferError': <type 'exceptions.BufferError'>, 'BytesWarning': <type 'exceptions.BytesWarning'>, 'DeprecationWarning': <type 'exceptions.DeprecationWarning'>, 'EOFError': <type 'exceptions.EOFError'>, 'Ellipsis': Ellipsis, 'EnvironmentError': <type 'exceptions.EnvironmentError'>, ...}"
p4731
sS'HTML'
p4732
S"<class 'gluon.html.HTML'>"
p4733
sS'SQLFORM'
p4734
S"<class 'gluon.sqlhtml.SQLFORM'>"
p4735
sS'LOAD'
p4736
S'<function LOAD>'
p4737
sS'redirect'
p4738
S'<function redirect>'
p4739
sS'FIELDSET'
p4740
S"<class 'gluon.html.FIELDSET'>"
p4741
sS'IS_EQUAL_TO'
p4742
S"<class 'gluon.validators.IS_EQUAL_TO'>"
p4743
sS'embed64'
p4744
S'<function embed64>'
p4745
sS'IS_LIST_OF'
p4746
S"<class 'gluon.validators.IS_LIST_OF'>"
p4747
sS'INPUT'
p4748
S"<class 'gluon.html.INPUT'>"
p4749
sS'EMBED'
p4750
S"<class 'gluon.html.EMBED'>"
p4751
sS'_'
S'<function _>'
p4752
sS'H2'
p4753
S"<class 'gluon.html.H2'>"
p4754
sS'H3'
p4755
S"<class 'gluon.html.H3'>"
p4756
sS'BUTTON'
p4757
S"<class 'gluon.html.BUTTON'>"
p4758
sS'H1'
p4759
S"<class 'gluon.html.H1'>"
p4760
sS'H6'
p4761
S"<class 'gluon.html.H6'>"
p4762
sS'H4'
p4763
S"<class 'gluon.html.H4'>"
p4764
sS'H5'
p4765
S"<class 'gluon.html.H5'>"
p4766
sS'UL'
p4767
S"<class 'gluon.html.UL'>"
p4768
sS'IS_UPPER'
p4769
S"<class 'gluon.validators.IS_UPPER'>"
p4770
sS'xmlescape'
p4771
S'<function xmlescape>'
p4772
sS'IS_TIME'
p4773
S"<class 'gluon.validators.IS_TIME'>"
p4774
sS'OPTION'
p4775
S"<class 'gluon.html.OPTION'>"
p4776
sS'TITLE'
p4777
S"<class 'gluon.html.TITLE'>"
p4778
sS'CRYPT'
p4779
S"<class 'gluon.validators.CRYPT'>"
p4780
sS'IS_EMPTY_OR'
p4781
S"<class 'gluon.validators.IS_EMPTY_OR'>"
p4782
sS'MARKMIN'
p4783
S"<class 'gluon.html.MARKMIN'>"
p4784
sS'__name__'
p4785
S"'__restricted__'"
p4786
sS'message'
p4787
S"<lazyT 'Hello World'>"
p4788
sS'STRONG'
p4789
S"<class 'gluon.html.STRONG'>"
p4790
sS'COL'
p4791
S"<class 'gluon.html.COL'>"
p4792
sS'service'
p4793
S'<gluon.tools.Service object>'
p4794
sS'SCRIPT'
p4795
S"<class 'gluon.html.SCRIPT'>"
p4796
sS'is_mobile'
p4797
g100
sS'TABLE'
p4798
S"<class 'gluon.html.TABLE'>"
p4799
sS'IS_IPV4'
p4800
S"<class 'gluon.validators.IS_IPV4'>"
p4801
sS'IS_LENGTH'
p4802
S"<class 'gluon.validators.IS_LENGTH'>"
p4803
sS'XML'
p4804
S"<class 'gluon.html.XML'>"
p4805
sS'B'
S"<class 'gluon.html.B'>"
p4806
sS'IMG'
p4807
S"<class 'gluon.html.IMG'>"
p4808
sS'SQLTABLE'
p4809
S"<class 'gluon.sqlhtml.SQLTABLE'>"
p4810
sS'IS_MATCH'
p4811
S"<class 'gluon.validators.IS_MATCH'>"
p4812
sS'IS_ALPHANUMERIC'
p4813
S"<class 'gluon.validators.IS_ALPHANUMERIC'>"
p4814
sS'SPAN'
p4815
S"<class 'gluon.html.SPAN'>"
p4816
sS'IS_SLUG'
p4817
S"<class 'gluon.validators.IS_SLUG'>"
p4818
sS'BEAUTIFY'
p4819
S"<class 'gluon.html.BEAUTIFY'>"
p4820
sS'META'
p4821
S"<class 'gluon.html.META'>"
p4822
sS'IS_DATE'
p4823
S"<class 'gluon.validators.IS_DATE'>"
p4824
sS'IS_EMAIL'
p4825
S"<class 'gluon.validators.IS_EMAIL'>"
p4826
sS'IS_NOT_EMPTY'
p4827
S"<class 'gluon.validators.IS_NOT_EMPTY'>"
p4828
sS'IS_FLOAT_IN_RANGE'
p4829
S"<class 'gluon.validators.IS_FLOAT_IN_RANGE'>"
p4830
sS'TBODY'
p4831
S"<class 'gluon.html.TBODY'>"
p4832
sS'CAT'
p4833
S"<class 'gluon.html.CAT'>"
p4834
sS'Field'
p4835
S"<class 'gluon.dal.Field'>"
p4836
sS'middle_columns'
p4837
S"'span12'"
p4838
sS'DIV'
p4839
S"<class 'gluon.html.DIV'>"
p4840
sS'LEGEND'
p4841
S"<class 'gluon.html.LEGEND'>"
p4842
sS'COLGROUP'
p4843
S"<class 'gluon.html.COLGROUP'>"
p4844
sS'DAL'
p4845
S"<class 'gluon.dal.DAL'>"
p4846
sS'TT'
p4847
S"<class 'gluon.html.TT'>"
p4848
sS'TR'
p4849
S"<class 'gluon.html.TR'>"
p4850
sS'LI'
p4851
S"<class 'gluon.html.LI'>"
p4852
sS'right_sidebar_enabled'
p4853
g100
sS'TH'
p4854
S"<class 'gluon.html.TH'>"
p4855
sS'TD'
p4856
S"<class 'gluon.html.TD'>"
p4857
sS'PluginManager'
p4858
S"<class 'gluon.tools.PluginManager'>"
p4859
sS'IS_URL'
p4860
S"<class 'gluon.validators.IS_URL'>"
p4861
sS'A'
S"<class 'gluon.html.A'>"
p4862
sS'HEAD'
p4863
S"<class 'gluon.html.HEAD'>"
p4864
sS'IS_DATETIME_IN_RANGE'
p4865
S"<class 'gluon.validators.IS_DATETIME_IN_RANGE'>"
p4866
sS'FORM'
p4867
S"<class 'gluon.html.FORM'>"
p4868
sS'I'
S"<class 'gluon.html.I'>"
p4869
sS'crud'
p4870
S'<gluon.tools.Crud object>'
p4871
sS'IS_NOT_IN_DB'
p4872
S"<class 'gluon.validators.IS_NOT_IN_DB'>"
p4873
sg3240
S"<Storage {'body': <cStringIO.StringO object at 0...000000000482B2E8>, 'view': 'default/index.html'}>"
p4874
sS'THEAD'
p4875
S"<class 'gluon.html.THEAD'>"
p4876
sS'IS_NULL_OR'
p4877
S"<class 'gluon.validators.IS_EMPTY_OR'>"
p4878
sg56
S"<Storage {'function': 'index', 'body': <cStringI...ications\\\\PFM_Web\\\\', 'post_vars': <Storage {}>}>"
p4879
sS'IS_EXPR'
p4880
S"<class 'gluon.validators.IS_EXPR'>"
p4881
sS'T'
S'<gluon.languages.translator object>'
p4882
sS'IS_IN_SET'
p4883
S"<class 'gluon.validators.IS_IN_SET'>"
p4884
sS'IS_UPLOAD_FILENAME'
p4885
S"<class 'gluon.validators.IS_UPLOAD_FILENAME'>"
p4886
sS'IS_DECIMAL_IN_RANGE'
p4887
S"<class 'gluon.validators.IS_DECIMAL_IN_RANGE'>"
p4888
sssS'traceback'
p4889
S'Traceback (most recent call last):\n  File "C:\\Users\\Juliano\\Documents\\Visual Studio 2012\\Projects\\PFM-Web\\gluon\\restricted.py", line 212, in restricted\n    exec ccode in environment\n  File "C:\\Users\\Juliano\\Documents\\Visual Studio 2012\\Projects\\PFM-Web\\applications\\PFM_Web\\views\\default/index.html", line 72, in <module>\nNameError: name \'getStarted\' is not defined\n'
p4890
s.