(dp1
S'output'
p2
S'<type \'exceptions.SyntaxError\'> invalid table/column name "value" is a "ALL" reserved SQL keyword'
p3
sS'layer'
p4
S'C:\\Users\\Juliano\\Documents\\Visual Studio 2012\\Projects\\PFM-Web\\applications\\PFM_Web\\models\\db.py'
p5
sS'code'
p6
S"# -*- coding: utf-8 -*-\n\n#########################################################################\n## This scaffolding model makes your app work on Google App Engine too\n## File is released under public domain and you can use without limitations\n#########################################################################\n\n## if SSL/HTTPS is properly configured and you want all HTTP requests to\n## be redirected to HTTPS, uncomment the line below:\n# request.requires_https()\n\nif not request.env.web2py_runtime_gae:\n    ## if NOT running on Google App Engine use SQLite or other DB\n    db = DAL('sqlite://storage.sqlite',pool_size=1,check_reserved=['all'])\nelse:\n    ## connect to Google BigTable (optional 'google:datastore://namespace')\n    db = DAL('google:datastore')\n    ## store sessions and tickets there\n    session.connect(request, response, db=db)\n    ## or store session in Memcache, Redis, etc.\n    ## from gluon.contrib.memdb import MEMDB\n    ## from google.appengine.api.memcache import Client\n    ## session.connect(request, response, db = MEMDB(Client()))\n\n## by default give a view/generic.extension to all actions from localhost\n## none otherwise. a pattern can be 'controller/function.extension'\nresponse.generic_patterns = ['*'] if request.is_local else []\n## (optional) optimize handling of static files\n# response.optimize_css = 'concat,minify,inline'\n# response.optimize_js = 'concat,minify,inline'\n\n#########################################################################\n## Here is sample code if you need for\n## - email capabilities\n## - authentication (registration, login, logout, ... )\n## - authorization (role based authorization)\n## - services (xml, csv, json, xmlrpc, jsonrpc, amf, rss)\n## - old style crud actions\n## (more options discussed in gluon/tools.py)\n#########################################################################\n\nfrom gluon.tools import Auth, Crud, Service, PluginManager, prettydate\nauth = Auth(db)\ncrud, service, plugins = Crud(db), Service(), PluginManager()\n\n## create all tables needed by auth if not custom tables\nauth.define_tables(username=False, signature=False)\n\n## configure email\nmail = auth.settings.mailer\nmail.settings.server = 'logging' or 'smtp.gmail.com:587'\nmail.settings.sender = 'you@gmail.com'\nmail.settings.login = 'username:password'\n\n## configure auth policy\nauth.settings.registration_requires_verification = False\nauth.settings.registration_requires_approval = False\nauth.settings.reset_password_requires_verification = True\n\n## if you need to use OpenID, Facebook, MySpace, Twitter, Linkedin, etc.\n## register with janrain.com, write your domain:api_key in private/janrain.key\nfrom gluon.contrib.login_methods.rpx_account import use_janrain\nuse_janrain(auth, filename='private/janrain.key')\n\n#########################################################################\n## Define your tables below (or better in another model file) for example\n##\n## >>> db.define_table('mytable',Field('myfield','string'))\n##\n## Fields can be 'string','text','password','integer','double','boolean'\n##       'date','time','datetime','blob','upload', 'reference TABLENAME'\n## There is an implicit 'id integer autoincrement' field\n## Consult manual for more options, validators, etc.\n##\n## More API examples for controllers:\n##\n## >>> db.mytable.insert(myfield='value')\n## >>> rows=db(db.mytable.myfield=='value').select(db.mytable.ALL)\n## >>> for row in rows: print row.id, row.myfield\n#########################################################################\n\ndb.define_table('category',\n    Field('name', unique=True),\n    Field('description', 'text'),\n    format='%(name)s')\ndb.category.name.requires = IS_NOT_EMPTY()\n    \ndb.define_table('methodOfPayment',\n    Field('name', unique=True),\n    Field('description', 'text'),\n    format='%(name)s')\ndb.methodOfPayment.name.requires = IS_NOT_EMPTY()\n\ndb.define_table('expense',\n    Field('name'),\n    Field('description', 'text'),\n    Field('categories', 'list:reference category'),\n    Field('methodOfPayment', 'reference methodOfPayment'),\n    Field('value', 'double'),\n    Field('dueTo', 'date'),\n    Field('parcels', 'integer'),\n    Field('receipt', 'upload'),\n    format='%(name)s')\n    \n\n## after defining tables, uncomment below to enable auditing\n# auth.enable_record_versioning(db)\n"
p7
sS'snapshot'
p8
(dp9
S'exception'
p10
(dp11
S'__getslice__'
p12
S"<method-wrapper '__getslice__' of exceptions.SyntaxError object>"
p13
sS'text'
p14
S'None'
p15
sS'__str__'
p16
S"<method-wrapper '__str__' of exceptions.SyntaxError object>"
p17
sS'__reduce__'
p18
S'<built-in method __reduce__ of exceptions.SyntaxError object>'
p19
sS'__dict__'
p20
S'{}'
p21
sS'__sizeof__'
p22
S'<built-in method __sizeof__ of exceptions.SyntaxError object>'
p23
sS'__init__'
p24
S"<method-wrapper '__init__' of exceptions.SyntaxError object>"
p25
sS'__setattr__'
p26
S"<method-wrapper '__setattr__' of exceptions.SyntaxError object>"
p27
sS'__reduce_ex__'
p28
S'<built-in method __reduce_ex__ of exceptions.SyntaxError object>'
p29
sS'__new__'
p30
S'<built-in method __new__ of type object>'
p31
sS'__format__'
p32
S'<built-in method __format__ of exceptions.SyntaxError object>'
p33
sS'__class__'
p34
S"<type 'exceptions.SyntaxError'>"
p35
sS'filename'
p36
S'None'
p37
sS'lineno'
p38
S'None'
p39
sS'msg'
p40
S'\'invalid table/column name "value" is a "ALL" reserved SQL keyword\''
p41
sS'__doc__'
p42
S"'Invalid syntax.'"
p43
sS'__getitem__'
p44
S"<method-wrapper '__getitem__' of exceptions.SyntaxError object>"
p45
sS'__setstate__'
p46
S'<built-in method __setstate__ of exceptions.SyntaxError object>'
p47
sS'__getattribute__'
p48
S"<method-wrapper '__getattribute__' of exceptions.SyntaxError object>"
p49
sS'print_file_and_line'
p50
S'None'
p51
sS'args'
p52
S'(\'invalid table/column name "value" is a "ALL" reserved SQL keyword\',)'
p53
sS'__subclasshook__'
p54
S'<built-in method __subclasshook__ of type object>'
p55
sS'offset'
p56
S'None'
p57
sS'__unicode__'
p58
S'<built-in method __unicode__ of exceptions.SyntaxError object>'
p59
sS'__delattr__'
p60
S"<method-wrapper '__delattr__' of exceptions.SyntaxError object>"
p61
sS'__repr__'
p62
S"<method-wrapper '__repr__' of exceptions.SyntaxError object>"
p63
sS'__hash__'
p64
S"<method-wrapper '__hash__' of exceptions.SyntaxError object>"
p65
ssS'evalue'
p66
S'invalid table/column name "value" is a "ALL" reserved SQL keyword'
p67
sS'request'
p68
ccopy_reg
_reconstructor
p69
(cgluon.html
BEAUTIFY
p70
c__builtin__
object
p71
NtRp72
(dp73
S'attributes'
p74
(dp75
sS'components'
p76
(lp77
g69
(cgluon.html
TABLE
p78
g71
NtRp79
(dp80
g74
(dp81
S'level'
p82
I5
ssS'parent'
p83
Nsg76
(lp84
g69
(cgluon.html
TR
p85
g71
NtRp86
(dp87
g74
(dp88
sg83
g79
sg76
(lp89
g69
(cgluon.html
TD
p90
g71
NtRp91
(dp92
g74
(dp93
S'_style'
p94
S'font-weight:bold;vertical-align:top'
p95
ssg83
g86
sg76
(lp96
S'ajax'
p97
asbag69
(g90
g71
NtRp98
(dp99
g74
(dp100
S'_valign'
p101
S'top'
p102
ssg83
g86
sg76
(lp103
S':'
asbag69
(g90
g71
NtRp104
(dp105
g74
(dp106
sg83
g86
sg76
(lp107
g69
(g70
g71
NtRp108
(dp109
g74
(dp110
g82
I5
ssg83
g104
sg76
(lp111
S'False'
p112
asbasbasbag69
(g85
g71
NtRp113
(dp114
g74
(dp115
sg83
g79
sg76
(lp116
g69
(g90
g71
NtRp117
(dp118
g74
(dp119
g94
g95
ssg83
g113
sg76
(lp120
S'application'
p121
asbag69
(g90
g71
NtRp122
(dp123
g74
(dp124
g101
g102
ssg83
g113
sg76
(lp125
S':'
asbag69
(g90
g71
NtRp126
(dp127
g74
(dp128
sg83
g113
sg76
(lp129
g69
(g70
g71
NtRp130
(dp131
g74
(dp132
g82
I5
ssg83
g126
sg76
(lp133
S'PFM_Web'
p134
asbasbasbag69
(g85
g71
NtRp135
(dp136
g74
(dp137
sg83
g79
sg76
(lp138
g69
(g90
g71
NtRp139
(dp140
g74
(dp141
g94
g95
ssg83
g135
sg76
(lp142
g52
asbag69
(g90
g71
NtRp143
(dp144
g74
(dp145
g101
g102
ssg83
g135
sg76
(lp146
S':'
asbag69
(g90
g71
NtRp147
(dp148
g74
(dp149
sg83
g135
sg76
(lp150
g69
(g70
g71
NtRp151
(dp152
g74
(dp153
g82
I5
ssg83
g147
sg76
(lp154
g69
(g78
g71
NtRp155
(dp156
g74
(dp157
g82
I4
ssg83
Nsg76
(lp158
sbasbasbasbag69
(g85
g71
NtRp159
(dp160
g74
(dp161
sg83
g79
sg76
(lp162
g69
(g90
g71
NtRp163
(dp164
g74
(dp165
g94
g95
ssg83
g159
sg76
(lp166
S'body'
p167
asbag69
(g90
g71
NtRp168
(dp169
g74
(dp170
g101
g102
ssg83
g159
sg76
(lp171
S':'
asbag69
(g90
g71
NtRp172
(dp173
g74
(dp174
sg83
g159
sg76
(lp175
g69
(g70
g71
NtRp176
(dp177
g74
(dp178
g82
I5
ssg83
g172
sg76
(lp179
S'<cStringIO.StringO object at 0x0000000007EF7928>'
p180
asbasbasbag69
(g85
g71
NtRp181
(dp182
g74
(dp183
sg83
g79
sg76
(lp184
g69
(g90
g71
NtRp185
(dp186
g74
(dp187
g94
g95
ssg83
g181
sg76
(lp188
S'cid'
p189
asbag69
(g90
g71
NtRp190
(dp191
g74
(dp192
g101
g102
ssg83
g181
sg76
(lp193
S':'
asbag69
(g90
g71
NtRp194
(dp195
g74
(dp196
sg83
g181
sg76
(lp197
g69
(g70
g71
NtRp198
(dp199
g74
(dp200
g82
I5
ssg83
g194
sg76
(lp201
S'None'
p202
asbasbasbag69
(g85
g71
NtRp203
(dp204
g74
(dp205
sg83
g79
sg76
(lp206
g69
(g90
g71
NtRp207
(dp208
g74
(dp209
g94
g95
ssg83
g203
sg76
(lp210
S'client'
p211
asbag69
(g90
g71
NtRp212
(dp213
g74
(dp214
g101
g102
ssg83
g203
sg76
(lp215
S':'
asbag69
(g90
g71
NtRp216
(dp217
g74
(dp218
sg83
g203
sg76
(lp219
g69
(g70
g71
NtRp220
(dp221
g74
(dp222
g82
I5
ssg83
g216
sg76
(lp223
S'127.0.0.1'
p224
asbasbasbag69
(g85
g71
NtRp225
(dp226
g74
(dp227
sg83
g79
sg76
(lp228
g69
(g90
g71
NtRp229
(dp230
g74
(dp231
g94
g95
ssg83
g225
sg76
(lp232
S'controller'
p233
asbag69
(g90
g71
NtRp234
(dp235
g74
(dp236
g101
g102
ssg83
g225
sg76
(lp237
S':'
asbag69
(g90
g71
NtRp238
(dp239
g74
(dp240
sg83
g225
sg76
(lp241
g69
(g70
g71
NtRp242
(dp243
g74
(dp244
g82
I5
ssg83
g238
sg76
(lp245
S'default'
p246
asbasbasbag69
(g85
g71
NtRp247
(dp248
g74
(dp249
sg83
g79
sg76
(lp250
g69
(g90
g71
NtRp251
(dp252
g74
(dp253
g94
g95
ssg83
g247
sg76
(lp254
S'cookies'
p255
asbag69
(g90
g71
NtRp256
(dp257
g74
(dp258
g101
g102
ssg83
g247
sg76
(lp259
S':'
asbag69
(g90
g71
NtRp260
(dp261
g74
(dp262
sg83
g247
sg76
(lp263
g69
(g70
g71
NtRp264
(dp265
g74
(dp266
g82
I5
ssg83
g260
sg76
(lp267
g69
(g78
g71
NtRp268
(dp269
g74
(dp270
g82
I4
ssg83
Nsg76
(lp271
g69
(g85
g71
NtRp272
(dp273
g74
(dp274
sg83
g268
sg76
(lp275
g69
(g90
g71
NtRp276
(dp277
g74
(dp278
g94
g95
ssg83
g272
sg76
(lp279
S'session_id_admin'
p280
asbag69
(g90
g71
NtRp281
(dp282
g74
(dp283
g101
g102
ssg83
g272
sg76
(lp284
S':'
asbag69
(g90
g71
NtRp285
(dp286
g74
(dp287
sg83
g272
sg76
(lp288
g69
(g70
g71
NtRp289
(dp290
g74
(dp291
g82
I4
ssg83
g285
sg76
(lp292
S'127.0.0.1-330bdff0-d932-4e47-b06e-88645e53ecbf'
p293
ag69
(g78
g71
NtRp294
(dp295
g74
(dp296
g82
I3
ssg83
Nsg76
(lp297
g69
(g85
g71
NtRp298
(dp299
g74
(dp300
sg83
g294
sg76
(lp301
g69
(g90
g71
NtRp302
(dp303
g74
(dp304
g94
g95
ssg83
g298
sg76
(lp305
S'comment'
p306
asbag69
(g90
g71
NtRp307
(dp308
g74
(dp309
g101
g102
ssg83
g298
sg76
(lp310
S':'
asbag69
(g90
g71
NtRp311
(dp312
g74
(dp313
sg83
g298
sg76
(lp314
g69
(g70
g71
NtRp315
(dp316
g74
(dp317
g82
I3
ssg83
g311
sg76
(lp318
S''
asbasbasbag69
(g85
g71
NtRp319
(dp320
g74
(dp321
sg83
g294
sg76
(lp322
g69
(g90
g71
NtRp323
(dp324
g74
(dp325
g94
g95
ssg83
g319
sg76
(lp326
S'domain'
p327
asbag69
(g90
g71
NtRp328
(dp329
g74
(dp330
g101
g102
ssg83
g319
sg76
(lp331
S':'
asbag69
(g90
g71
NtRp332
(dp333
g74
(dp334
sg83
g319
sg76
(lp335
g69
(g70
g71
NtRp336
(dp337
g74
(dp338
g82
I3
ssg83
g332
sg76
(lp339
S''
asbasbasbag69
(g85
g71
NtRp340
(dp341
g74
(dp342
sg83
g294
sg76
(lp343
g69
(g90
g71
NtRp344
(dp345
g74
(dp346
g94
g95
ssg83
g340
sg76
(lp347
S'expires'
p348
asbag69
(g90
g71
NtRp349
(dp350
g74
(dp351
g101
g102
ssg83
g340
sg76
(lp352
S':'
asbag69
(g90
g71
NtRp353
(dp354
g74
(dp355
sg83
g340
sg76
(lp356
g69
(g70
g71
NtRp357
(dp358
g74
(dp359
g82
I3
ssg83
g353
sg76
(lp360
S''
asbasbasbag69
(g85
g71
NtRp361
(dp362
g74
(dp363
sg83
g294
sg76
(lp364
g69
(g90
g71
NtRp365
(dp366
g74
(dp367
g94
g95
ssg83
g361
sg76
(lp368
S'httponly'
p369
asbag69
(g90
g71
NtRp370
(dp371
g74
(dp372
g101
g102
ssg83
g361
sg76
(lp373
S':'
asbag69
(g90
g71
NtRp374
(dp375
g74
(dp376
sg83
g361
sg76
(lp377
g69
(g70
g71
NtRp378
(dp379
g74
(dp380
g82
I3
ssg83
g374
sg76
(lp381
S''
asbasbasbag69
(g85
g71
NtRp382
(dp383
g74
(dp384
sg83
g294
sg76
(lp385
g69
(g90
g71
NtRp386
(dp387
g74
(dp388
g94
g95
ssg83
g382
sg76
(lp389
S'max-age'
p390
asbag69
(g90
g71
NtRp391
(dp392
g74
(dp393
g101
g102
ssg83
g382
sg76
(lp394
S':'
asbag69
(g90
g71
NtRp395
(dp396
g74
(dp397
sg83
g382
sg76
(lp398
g69
(g70
g71
NtRp399
(dp400
g74
(dp401
g82
I3
ssg83
g395
sg76
(lp402
S''
asbasbasbag69
(g85
g71
NtRp403
(dp404
g74
(dp405
sg83
g294
sg76
(lp406
g69
(g90
g71
NtRp407
(dp408
g74
(dp409
g94
g95
ssg83
g403
sg76
(lp410
S'path'
p411
asbag69
(g90
g71
NtRp412
(dp413
g74
(dp414
g101
g102
ssg83
g403
sg76
(lp415
S':'
asbag69
(g90
g71
NtRp416
(dp417
g74
(dp418
sg83
g403
sg76
(lp419
g69
(g70
g71
NtRp420
(dp421
g74
(dp422
g82
I3
ssg83
g416
sg76
(lp423
S''
asbasbasbag69
(g85
g71
NtRp424
(dp425
g74
(dp426
sg83
g294
sg76
(lp427
g69
(g90
g71
NtRp428
(dp429
g74
(dp430
g94
g95
ssg83
g424
sg76
(lp431
S'secure'
p432
asbag69
(g90
g71
NtRp433
(dp434
g74
(dp435
g101
g102
ssg83
g424
sg76
(lp436
S':'
asbag69
(g90
g71
NtRp437
(dp438
g74
(dp439
sg83
g424
sg76
(lp440
g69
(g70
g71
NtRp441
(dp442
g74
(dp443
g82
I3
ssg83
g437
sg76
(lp444
S''
asbasbasbag69
(g85
g71
NtRp445
(dp446
g74
(dp447
sg83
g294
sg76
(lp448
g69
(g90
g71
NtRp449
(dp450
g74
(dp451
g94
g95
ssg83
g445
sg76
(lp452
S'version'
p453
asbag69
(g90
g71
NtRp454
(dp455
g74
(dp456
g101
g102
ssg83
g445
sg76
(lp457
S':'
asbag69
(g90
g71
NtRp458
(dp459
g74
(dp460
sg83
g445
sg76
(lp461
g69
(g70
g71
NtRp462
(dp463
g74
(dp464
g82
I3
ssg83
g458
sg76
(lp465
S''
asbasbasbasbasbasbasbag69
(g85
g71
NtRp466
(dp467
g74
(dp468
sg83
g268
sg76
(lp469
g69
(g90
g71
NtRp470
(dp471
g74
(dp472
g94
g95
ssg83
g466
sg76
(lp473
S'session_id_pfm_web'
p474
asbag69
(g90
g71
NtRp475
(dp476
g74
(dp477
g101
g102
ssg83
g466
sg76
(lp478
S':'
asbag69
(g90
g71
NtRp479
(dp480
g74
(dp481
sg83
g466
sg76
(lp482
g69
(g70
g71
NtRp483
(dp484
g74
(dp485
g82
I4
ssg83
g479
sg76
(lp486
S'127.0.0.1-7c0ccf12-7660-45c0-8624-7d98638ea3a7'
p487
ag69
(g78
g71
NtRp488
(dp489
g74
(dp490
g82
I3
ssg83
Nsg76
(lp491
g69
(g85
g71
NtRp492
(dp493
g74
(dp494
sg83
g488
sg76
(lp495
g69
(g90
g71
NtRp496
(dp497
g74
(dp498
g94
g95
ssg83
g492
sg76
(lp499
g306
asbag69
(g90
g71
NtRp500
(dp501
g74
(dp502
g101
g102
ssg83
g492
sg76
(lp503
S':'
asbag69
(g90
g71
NtRp504
(dp505
g74
(dp506
sg83
g492
sg76
(lp507
g69
(g70
g71
NtRp508
(dp509
g74
(dp510
g82
I3
ssg83
g504
sg76
(lp511
S''
asbasbasbag69
(g85
g71
NtRp512
(dp513
g74
(dp514
sg83
g488
sg76
(lp515
g69
(g90
g71
NtRp516
(dp517
g74
(dp518
g94
g95
ssg83
g512
sg76
(lp519
g327
asbag69
(g90
g71
NtRp520
(dp521
g74
(dp522
g101
g102
ssg83
g512
sg76
(lp523
S':'
asbag69
(g90
g71
NtRp524
(dp525
g74
(dp526
sg83
g512
sg76
(lp527
g69
(g70
g71
NtRp528
(dp529
g74
(dp530
g82
I3
ssg83
g524
sg76
(lp531
S''
asbasbasbag69
(g85
g71
NtRp532
(dp533
g74
(dp534
sg83
g488
sg76
(lp535
g69
(g90
g71
NtRp536
(dp537
g74
(dp538
g94
g95
ssg83
g532
sg76
(lp539
g348
asbag69
(g90
g71
NtRp540
(dp541
g74
(dp542
g101
g102
ssg83
g532
sg76
(lp543
S':'
asbag69
(g90
g71
NtRp544
(dp545
g74
(dp546
sg83
g532
sg76
(lp547
g69
(g70
g71
NtRp548
(dp549
g74
(dp550
g82
I3
ssg83
g544
sg76
(lp551
S''
asbasbasbag69
(g85
g71
NtRp552
(dp553
g74
(dp554
sg83
g488
sg76
(lp555
g69
(g90
g71
NtRp556
(dp557
g74
(dp558
g94
g95
ssg83
g552
sg76
(lp559
g369
asbag69
(g90
g71
NtRp560
(dp561
g74
(dp562
g101
g102
ssg83
g552
sg76
(lp563
S':'
asbag69
(g90
g71
NtRp564
(dp565
g74
(dp566
sg83
g552
sg76
(lp567
g69
(g70
g71
NtRp568
(dp569
g74
(dp570
g82
I3
ssg83
g564
sg76
(lp571
S''
asbasbasbag69
(g85
g71
NtRp572
(dp573
g74
(dp574
sg83
g488
sg76
(lp575
g69
(g90
g71
NtRp576
(dp577
g74
(dp578
g94
g95
ssg83
g572
sg76
(lp579
g390
asbag69
(g90
g71
NtRp580
(dp581
g74
(dp582
g101
g102
ssg83
g572
sg76
(lp583
S':'
asbag69
(g90
g71
NtRp584
(dp585
g74
(dp586
sg83
g572
sg76
(lp587
g69
(g70
g71
NtRp588
(dp589
g74
(dp590
g82
I3
ssg83
g584
sg76
(lp591
S''
asbasbasbag69
(g85
g71
NtRp592
(dp593
g74
(dp594
sg83
g488
sg76
(lp595
g69
(g90
g71
NtRp596
(dp597
g74
(dp598
g94
g95
ssg83
g592
sg76
(lp599
g411
asbag69
(g90
g71
NtRp600
(dp601
g74
(dp602
g101
g102
ssg83
g592
sg76
(lp603
S':'
asbag69
(g90
g71
NtRp604
(dp605
g74
(dp606
sg83
g592
sg76
(lp607
g69
(g70
g71
NtRp608
(dp609
g74
(dp610
g82
I3
ssg83
g604
sg76
(lp611
S''
asbasbasbag69
(g85
g71
NtRp612
(dp613
g74
(dp614
sg83
g488
sg76
(lp615
g69
(g90
g71
NtRp616
(dp617
g74
(dp618
g94
g95
ssg83
g612
sg76
(lp619
g432
asbag69
(g90
g71
NtRp620
(dp621
g74
(dp622
g101
g102
ssg83
g612
sg76
(lp623
S':'
asbag69
(g90
g71
NtRp624
(dp625
g74
(dp626
sg83
g612
sg76
(lp627
g69
(g70
g71
NtRp628
(dp629
g74
(dp630
g82
I3
ssg83
g624
sg76
(lp631
S''
asbasbasbag69
(g85
g71
NtRp632
(dp633
g74
(dp634
sg83
g488
sg76
(lp635
g69
(g90
g71
NtRp636
(dp637
g74
(dp638
g94
g95
ssg83
g632
sg76
(lp639
g453
asbag69
(g90
g71
NtRp640
(dp641
g74
(dp642
g101
g102
ssg83
g632
sg76
(lp643
S':'
asbag69
(g90
g71
NtRp644
(dp645
g74
(dp646
sg83
g632
sg76
(lp647
g69
(g70
g71
NtRp648
(dp649
g74
(dp650
g82
I3
ssg83
g644
sg76
(lp651
S''
asbasbasbasbasbasbasbasbasbasbasbag69
(g85
g71
NtRp652
(dp653
g74
(dp654
sg83
g79
sg76
(lp655
g69
(g90
g71
NtRp656
(dp657
g74
(dp658
g94
g95
ssg83
g652
sg76
(lp659
S'env'
p660
asbag69
(g90
g71
NtRp661
(dp662
g74
(dp663
g101
g102
ssg83
g652
sg76
(lp664
S':'
asbag69
(g90
g71
NtRp665
(dp666
g74
(dp667
sg83
g652
sg76
(lp668
g69
(g70
g71
NtRp669
(dp670
g74
(dp671
g82
I5
ssg83
g665
sg76
(lp672
g69
(g78
g71
NtRp673
(dp674
g74
(dp675
g82
I4
ssg83
Nsg76
(lp676
g69
(g85
g71
NtRp677
(dp678
g74
(dp679
sg83
g673
sg76
(lp680
g69
(g90
g71
NtRp681
(dp682
g74
(dp683
g94
g95
ssg83
g677
sg76
(lp684
S'app_folders'
p685
asbag69
(g90
g71
NtRp686
(dp687
g74
(dp688
g101
g102
ssg83
g677
sg76
(lp689
S':'
asbag69
(g90
g71
NtRp690
(dp691
g74
(dp692
sg83
g677
sg76
(lp693
g69
(g70
g71
NtRp694
(dp695
g74
(dp696
g82
I4
ssg83
g690
sg76
(lp697
S"set(['C:\\\\Users\\\\Juliano\\\\Documents\\\\Visual Studio 2012\\\\Projects\\\\PFM-Web\\\\applications\\\\PFM_Web\\\\', 'C:\\\\Users\\\\Juliano\\\\Documents\\\\Visual Studio 2012\\\\Projects\\\\PFM-Web\\\\applications\\\\admin\\\\'])"
p698
asbasbasbag69
(g85
g71
NtRp699
(dp700
g74
(dp701
sg83
g673
sg76
(lp702
g69
(g90
g71
NtRp703
(dp704
g74
(dp705
g94
g95
ssg83
g699
sg76
(lp706
S'applications_parent'
p707
asbag69
(g90
g71
NtRp708
(dp709
g74
(dp710
g101
g102
ssg83
g699
sg76
(lp711
S':'
asbag69
(g90
g71
NtRp712
(dp713
g74
(dp714
sg83
g699
sg76
(lp715
g69
(g70
g71
NtRp716
(dp717
g74
(dp718
g82
I4
ssg83
g712
sg76
(lp719
S'C:\\Users\\Juliano\\Documents\\Visual Studio 2012\\Projects\\PFM-Web'
p720
asbasbasbag69
(g85
g71
NtRp721
(dp722
g74
(dp723
sg83
g673
sg76
(lp724
g69
(g90
g71
NtRp725
(dp726
g74
(dp727
g94
g95
ssg83
g721
sg76
(lp728
S'cmd_args'
p729
asbag69
(g90
g71
NtRp730
(dp731
g74
(dp732
g101
g102
ssg83
g721
sg76
(lp733
S':'
asbag69
(g90
g71
NtRp734
(dp735
g74
(dp736
sg83
g721
sg76
(lp737
g69
(g70
g71
NtRp738
(dp739
g74
(dp740
g82
I4
ssg83
g734
sg76
(lp741
g69
(g78
g71
NtRp742
(dp743
g74
(dp744
g82
I3
ssg83
Nsg76
(lp745
sbasbasbasbag69
(g85
g71
NtRp746
(dp747
g74
(dp748
sg83
g673
sg76
(lp749
g69
(g90
g71
NtRp750
(dp751
g74
(dp752
g94
g95
ssg83
g746
sg76
(lp753
S'cmd_options'
p754
asbag69
(g90
g71
NtRp755
(dp756
g74
(dp757
g101
g102
ssg83
g746
sg76
(lp758
S':'
asbag69
(g90
g71
NtRp759
(dp760
g74
(dp761
sg83
g746
sg76
(lp762
g69
(g70
g71
NtRp763
(dp764
g74
(dp765
g82
I4
ssg83
g759
sg76
(lp766
S"<Values at 0x33d6288: {'verbose': False, 'ip': '127.0.0.1', 'with_scheduler': False, 'ips': ['192.168.0.196', 'fe80::2d25:44dc:a58e:afb9%13', '2001:0:9d38:953c:10e6:25ea:3f57:ff3b', 'fe80::10e6:25ea:3f57:ff3b%16'], 'shutdown_timeout': 5, 'taskbar': False, 'port': 8000, 'maxthreads': None, 'softcron': False, 'server_name': 'Hexed', 'bpython': False, 'nogui': False, 'pid_filename': 'httpserver.pid', 'extcron': False, 'runcron': False, 'run_system_tests': False, 'test': None, 'folder': 'C:\\\\Users\\\\Juliano\\\\Documents\\\\Visual Studio 2012\\\\Projects\\\\PFM-Web', 'config': '', 'import_models': False, 'winservice': '', 'shell': None, 'run': '', 'log_filename': 'httpserver.log', 'debuglevel': 30, 'args': [''], 'socket_timeout': 5, 'ssl_ca_certificate': None, 'scheduler': None, 'profiler_filename': None, 'ssl_private_key': '', 'scheduler_groups': None, 'password': '<ask>', 'request_queue_size': 5, 'ssl_certificate': '', 'cronjob': False, 'numthreads': None, 'quiet': False, 'interfaces': None, 'minthreads': None, 'timeout': 10, 'plain': False, 'nobanner': False}>"
p767
asbasbasbag69
(g85
g71
NtRp768
(dp769
g74
(dp770
sg83
g673
sg76
(lp771
g69
(g90
g71
NtRp772
(dp773
g74
(dp774
g94
g95
ssg83
g768
sg76
(lp775
S'db_sessions'
p776
asbag69
(g90
g71
NtRp777
(dp778
g74
(dp779
g101
g102
ssg83
g768
sg76
(lp780
S':'
asbag69
(g90
g71
NtRp781
(dp782
g74
(dp783
sg83
g768
sg76
(lp784
g69
(g70
g71
NtRp785
(dp786
g74
(dp787
g82
I4
ssg83
g781
sg76
(lp788
S'set([])'
p789
asbasbasbag69
(g85
g71
NtRp790
(dp791
g74
(dp792
sg83
g673
sg76
(lp793
g69
(g90
g71
NtRp794
(dp795
g74
(dp796
g94
g95
ssg83
g790
sg76
(lp797
S'debugging'
p798
asbag69
(g90
g71
NtRp799
(dp800
g74
(dp801
g101
g102
ssg83
g790
sg76
(lp802
S':'
asbag69
(g90
g71
NtRp803
(dp804
g74
(dp805
sg83
g790
sg76
(lp806
g69
(g70
g71
NtRp807
(dp808
g74
(dp809
g82
I4
ssg83
g803
sg76
(lp810
g112
asbasbasbag69
(g85
g71
NtRp811
(dp812
g74
(dp813
sg83
g673
sg76
(lp814
g69
(g90
g71
NtRp815
(dp816
g74
(dp817
g94
g95
ssg83
g811
sg76
(lp818
S'gluon_parent'
p819
asbag69
(g90
g71
NtRp820
(dp821
g74
(dp822
g101
g102
ssg83
g811
sg76
(lp823
S':'
asbag69
(g90
g71
NtRp824
(dp825
g74
(dp826
sg83
g811
sg76
(lp827
g69
(g70
g71
NtRp828
(dp829
g74
(dp830
g82
I4
ssg83
g824
sg76
(lp831
S'C:\\Users\\Juliano\\Documents\\Visual Studio 2012\\Projects\\PFM-Web'
p832
asbasbasbag69
(g85
g71
NtRp833
(dp834
g74
(dp835
sg83
g673
sg76
(lp836
g69
(g90
g71
NtRp837
(dp838
g74
(dp839
g94
g95
ssg83
g833
sg76
(lp840
S'http_accept'
p841
asbag69
(g90
g71
NtRp842
(dp843
g74
(dp844
g101
g102
ssg83
g833
sg76
(lp845
S':'
asbag69
(g90
g71
NtRp846
(dp847
g74
(dp848
sg83
g833
sg76
(lp849
g69
(g70
g71
NtRp850
(dp851
g74
(dp852
g82
I4
ssg83
g846
sg76
(lp853
S'text/html, application/xhtml+xml, */*'
p854
asbasbasbag69
(g85
g71
NtRp855
(dp856
g74
(dp857
sg83
g673
sg76
(lp858
g69
(g90
g71
NtRp859
(dp860
g74
(dp861
g94
g95
ssg83
g855
sg76
(lp862
S'http_accept_encoding'
p863
asbag69
(g90
g71
NtRp864
(dp865
g74
(dp866
g101
g102
ssg83
g855
sg76
(lp867
S':'
asbag69
(g90
g71
NtRp868
(dp869
g74
(dp870
sg83
g855
sg76
(lp871
g69
(g70
g71
NtRp872
(dp873
g74
(dp874
g82
I4
ssg83
g868
sg76
(lp875
S'gzip, deflate'
p876
asbasbasbag69
(g85
g71
NtRp877
(dp878
g74
(dp879
sg83
g673
sg76
(lp880
g69
(g90
g71
NtRp881
(dp882
g74
(dp883
g94
g95
ssg83
g877
sg76
(lp884
S'http_accept_language'
p885
asbag69
(g90
g71
NtRp886
(dp887
g74
(dp888
g101
g102
ssg83
g877
sg76
(lp889
S':'
asbag69
(g90
g71
NtRp890
(dp891
g74
(dp892
sg83
g877
sg76
(lp893
g69
(g70
g71
NtRp894
(dp895
g74
(dp896
g82
I4
ssg83
g890
sg76
(lp897
S'pt-BR,pt;q=0.8,en-US;q=0.5,en;q=0.3'
p898
asbasbasbag69
(g85
g71
NtRp899
(dp900
g74
(dp901
sg83
g673
sg76
(lp902
g69
(g90
g71
NtRp903
(dp904
g74
(dp905
g94
g95
ssg83
g899
sg76
(lp906
S'http_connection'
p907
asbag69
(g90
g71
NtRp908
(dp909
g74
(dp910
g101
g102
ssg83
g899
sg76
(lp911
S':'
asbag69
(g90
g71
NtRp912
(dp913
g74
(dp914
sg83
g899
sg76
(lp915
g69
(g70
g71
NtRp916
(dp917
g74
(dp918
g82
I4
ssg83
g912
sg76
(lp919
S'Keep-Alive'
p920
asbasbasbag69
(g85
g71
NtRp921
(dp922
g74
(dp923
sg83
g673
sg76
(lp924
g69
(g90
g71
NtRp925
(dp926
g74
(dp927
g94
g95
ssg83
g921
sg76
(lp928
S'http_cookie'
p929
asbag69
(g90
g71
NtRp930
(dp931
g74
(dp932
g101
g102
ssg83
g921
sg76
(lp933
S':'
asbag69
(g90
g71
NtRp934
(dp935
g74
(dp936
sg83
g921
sg76
(lp937
g69
(g70
g71
NtRp938
(dp939
g74
(dp940
g82
I4
ssg83
g934
sg76
(lp941
S'session_id_pfm_web=127.0.0.1-7c0ccf12-7660-45c0-8624-7d98638ea3a7; session_id_admin=127.0.0.1-330bdff0-d932-4e47-b06e-88645e53ecbf'
p942
asbasbasbag69
(g85
g71
NtRp943
(dp944
g74
(dp945
sg83
g673
sg76
(lp946
g69
(g90
g71
NtRp947
(dp948
g74
(dp949
g94
g95
ssg83
g943
sg76
(lp950
S'http_dnt'
p951
asbag69
(g90
g71
NtRp952
(dp953
g74
(dp954
g101
g102
ssg83
g943
sg76
(lp955
S':'
asbag69
(g90
g71
NtRp956
(dp957
g74
(dp958
sg83
g943
sg76
(lp959
g69
(g70
g71
NtRp960
(dp961
g74
(dp962
g82
I4
ssg83
g956
sg76
(lp963
S'1'
asbasbasbag69
(g85
g71
NtRp964
(dp965
g74
(dp966
sg83
g673
sg76
(lp967
g69
(g90
g71
NtRp968
(dp969
g74
(dp970
g94
g95
ssg83
g964
sg76
(lp971
S'http_host'
p972
asbag69
(g90
g71
NtRp973
(dp974
g74
(dp975
g101
g102
ssg83
g964
sg76
(lp976
S':'
asbag69
(g90
g71
NtRp977
(dp978
g74
(dp979
sg83
g964
sg76
(lp980
g69
(g70
g71
NtRp981
(dp982
g74
(dp983
g82
I4
ssg83
g977
sg76
(lp984
S'127.0.0.1:8000'
p985
asbasbasbag69
(g85
g71
NtRp986
(dp987
g74
(dp988
sg83
g673
sg76
(lp989
g69
(g90
g71
NtRp990
(dp991
g74
(dp992
g94
g95
ssg83
g986
sg76
(lp993
S'http_user_agent'
p994
asbag69
(g90
g71
NtRp995
(dp996
g74
(dp997
g101
g102
ssg83
g986
sg76
(lp998
S':'
asbag69
(g90
g71
NtRp999
(dp1000
g74
(dp1001
sg83
g986
sg76
(lp1002
g69
(g70
g71
NtRp1003
(dp1004
g74
(dp1005
g82
I4
ssg83
g999
sg76
(lp1006
S'Mozilla/5.0 (compatible; MSIE 10.0; Windows NT 6.2; WOW64; Trident/6.0)'
p1007
asbasbasbag69
(g85
g71
NtRp1008
(dp1009
g74
(dp1010
sg83
g673
sg76
(lp1011
g69
(g90
g71
NtRp1012
(dp1013
g74
(dp1014
g94
g95
ssg83
g1008
sg76
(lp1015
S'is_jython'
p1016
asbag69
(g90
g71
NtRp1017
(dp1018
g74
(dp1019
g101
g102
ssg83
g1008
sg76
(lp1020
S':'
asbag69
(g90
g71
NtRp1021
(dp1022
g74
(dp1023
sg83
g1008
sg76
(lp1024
g69
(g70
g71
NtRp1025
(dp1026
g74
(dp1027
g82
I4
ssg83
g1021
sg76
(lp1028
g112
asbasbasbag69
(g85
g71
NtRp1029
(dp1030
g74
(dp1031
sg83
g673
sg76
(lp1032
g69
(g90
g71
NtRp1033
(dp1034
g74
(dp1035
g94
g95
ssg83
g1029
sg76
(lp1036
S'is_pypy'
p1037
asbag69
(g90
g71
NtRp1038
(dp1039
g74
(dp1040
g101
g102
ssg83
g1029
sg76
(lp1041
S':'
asbag69
(g90
g71
NtRp1042
(dp1043
g74
(dp1044
sg83
g1029
sg76
(lp1045
g69
(g70
g71
NtRp1046
(dp1047
g74
(dp1048
g82
I4
ssg83
g1042
sg76
(lp1049
g112
asbasbasbag69
(g85
g71
NtRp1050
(dp1051
g74
(dp1052
sg83
g673
sg76
(lp1053
g69
(g90
g71
NtRp1054
(dp1055
g74
(dp1056
g94
g95
ssg83
g1050
sg76
(lp1057
S'local_hosts'
p1058
asbag69
(g90
g71
NtRp1059
(dp1060
g74
(dp1061
g101
g102
ssg83
g1050
sg76
(lp1062
S':'
asbag69
(g90
g71
NtRp1063
(dp1064
g74
(dp1065
sg83
g1050
sg76
(lp1066
g69
(g70
g71
NtRp1067
(dp1068
g74
(dp1069
g82
I4
ssg83
g1063
sg76
(lp1070
g69
(g78
g71
NtRp1071
(dp1072
g74
(dp1073
g82
I3
ssg83
Nsg76
(lp1074
g69
(g85
g71
NtRp1075
(dp1076
g74
(dp1077
sg83
g1071
sg76
(lp1078
g69
(g90
g71
NtRp1079
(dp1080
g74
(dp1081
sg83
g1075
sg76
(lp1082
g69
(g70
g71
NtRp1083
(dp1084
g74
(dp1085
g82
I3
ssg83
g1079
sg76
(lp1086
S'192.168.0.196'
p1087
asbasbasbag69
(g85
g71
NtRp1088
(dp1089
g74
(dp1090
sg83
g1071
sg76
(lp1091
g69
(g90
g71
NtRp1092
(dp1093
g74
(dp1094
sg83
g1088
sg76
(lp1095
g69
(g70
g71
NtRp1096
(dp1097
g74
(dp1098
g82
I3
ssg83
g1092
sg76
(lp1099
S'2001:0:9d38:953c:10e6:25ea:3f57:ff3b'
p1100
asbasbasbag69
(g85
g71
NtRp1101
(dp1102
g74
(dp1103
sg83
g1071
sg76
(lp1104
g69
(g90
g71
NtRp1105
(dp1106
g74
(dp1107
sg83
g1101
sg76
(lp1108
g69
(g70
g71
NtRp1109
(dp1110
g74
(dp1111
g82
I3
ssg83
g1105
sg76
(lp1112
S'::ffff:127.0.0.1'
p1113
asbasbasbag69
(g85
g71
NtRp1114
(dp1115
g74
(dp1116
sg83
g1071
sg76
(lp1117
g69
(g90
g71
NtRp1118
(dp1119
g74
(dp1120
sg83
g1114
sg76
(lp1121
g69
(g70
g71
NtRp1122
(dp1123
g74
(dp1124
g82
I3
ssg83
g1118
sg76
(lp1125
S'::1'
p1126
asbasbasbag69
(g85
g71
NtRp1127
(dp1128
g74
(dp1129
sg83
g1071
sg76
(lp1130
g69
(g90
g71
NtRp1131
(dp1132
g74
(dp1133
sg83
g1127
sg76
(lp1134
g69
(g70
g71
NtRp1135
(dp1136
g74
(dp1137
g82
I3
ssg83
g1131
sg76
(lp1138
S'fe80::10e6:25ea:3f57:ff3b%16'
p1139
asbasbasbag69
(g85
g71
NtRp1140
(dp1141
g74
(dp1142
sg83
g1071
sg76
(lp1143
g69
(g90
g71
NtRp1144
(dp1145
g74
(dp1146
sg83
g1140
sg76
(lp1147
g69
(g70
g71
NtRp1148
(dp1149
g74
(dp1150
g82
I3
ssg83
g1144
sg76
(lp1151
S'fe80::2d25:44dc:a58e:afb9%13'
p1152
asbasbasbag69
(g85
g71
NtRp1153
(dp1154
g74
(dp1155
sg83
g1071
sg76
(lp1156
g69
(g90
g71
NtRp1157
(dp1158
g74
(dp1159
sg83
g1153
sg76
(lp1160
g69
(g70
g71
NtRp1161
(dp1162
g74
(dp1163
g82
I3
ssg83
g1157
sg76
(lp1164
S'Hexed'
p1165
asbasbasbag69
(g85
g71
NtRp1166
(dp1167
g74
(dp1168
sg83
g1071
sg76
(lp1169
g69
(g90
g71
NtRp1170
(dp1171
g74
(dp1172
sg83
g1166
sg76
(lp1173
g69
(g70
g71
NtRp1174
(dp1175
g74
(dp1176
g82
I3
ssg83
g1170
sg76
(lp1177
S'127.0.0.1'
p1178
asbasbasbasbasbasbasbag69
(g85
g71
NtRp1179
(dp1180
g74
(dp1181
sg83
g673
sg76
(lp1182
g69
(g90
g71
NtRp1183
(dp1184
g74
(dp1185
g94
g95
ssg83
g1179
sg76
(lp1186
S'path_info'
p1187
asbag69
(g90
g71
NtRp1188
(dp1189
g74
(dp1190
g101
g102
ssg83
g1179
sg76
(lp1191
S':'
asbag69
(g90
g71
NtRp1192
(dp1193
g74
(dp1194
sg83
g1179
sg76
(lp1195
g69
(g70
g71
NtRp1196
(dp1197
g74
(dp1198
g82
I4
ssg83
g1192
sg76
(lp1199
S'/'
asbasbasbag69
(g85
g71
NtRp1200
(dp1201
g74
(dp1202
sg83
g673
sg76
(lp1203
g69
(g90
g71
NtRp1204
(dp1205
g74
(dp1206
g94
g95
ssg83
g1200
sg76
(lp1207
S'query_string'
p1208
asbag69
(g90
g71
NtRp1209
(dp1210
g74
(dp1211
g101
g102
ssg83
g1200
sg76
(lp1212
S':'
asbag69
(g90
g71
NtRp1213
(dp1214
g74
(dp1215
sg83
g1200
sg76
(lp1216
g69
(g70
g71
NtRp1217
(dp1218
g74
(dp1219
g82
I4
ssg83
g1213
sg76
(lp1220
S''
asbasbasbag69
(g85
g71
NtRp1221
(dp1222
g74
(dp1223
sg83
g673
sg76
(lp1224
g69
(g90
g71
NtRp1225
(dp1226
g74
(dp1227
g94
g95
ssg83
g1221
sg76
(lp1228
S'remote_addr'
p1229
asbag69
(g90
g71
NtRp1230
(dp1231
g74
(dp1232
g101
g102
ssg83
g1221
sg76
(lp1233
S':'
asbag69
(g90
g71
NtRp1234
(dp1235
g74
(dp1236
sg83
g1221
sg76
(lp1237
g69
(g70
g71
NtRp1238
(dp1239
g74
(dp1240
g82
I4
ssg83
g1234
sg76
(lp1241
g224
asbasbasbag69
(g85
g71
NtRp1242
(dp1243
g74
(dp1244
sg83
g673
sg76
(lp1245
g69
(g90
g71
NtRp1246
(dp1247
g74
(dp1248
g94
g95
ssg83
g1242
sg76
(lp1249
S'remote_port'
p1250
asbag69
(g90
g71
NtRp1251
(dp1252
g74
(dp1253
g101
g102
ssg83
g1242
sg76
(lp1254
S':'
asbag69
(g90
g71
NtRp1255
(dp1256
g74
(dp1257
sg83
g1242
sg76
(lp1258
g69
(g70
g71
NtRp1259
(dp1260
g74
(dp1261
g82
I4
ssg83
g1255
sg76
(lp1262
S'64018'
p1263
asbasbasbag69
(g85
g71
NtRp1264
(dp1265
g74
(dp1266
sg83
g673
sg76
(lp1267
g69
(g90
g71
NtRp1268
(dp1269
g74
(dp1270
g94
g95
ssg83
g1264
sg76
(lp1271
S'request_method'
p1272
asbag69
(g90
g71
NtRp1273
(dp1274
g74
(dp1275
g101
g102
ssg83
g1264
sg76
(lp1276
S':'
asbag69
(g90
g71
NtRp1277
(dp1278
g74
(dp1279
sg83
g1264
sg76
(lp1280
g69
(g70
g71
NtRp1281
(dp1282
g74
(dp1283
g82
I4
ssg83
g1277
sg76
(lp1284
S'GET'
p1285
asbasbasbag69
(g85
g71
NtRp1286
(dp1287
g74
(dp1288
sg83
g673
sg76
(lp1289
g69
(g90
g71
NtRp1290
(dp1291
g74
(dp1292
g94
g95
ssg83
g1286
sg76
(lp1293
S'request_uri'
p1294
asbag69
(g90
g71
NtRp1295
(dp1296
g74
(dp1297
g101
g102
ssg83
g1286
sg76
(lp1298
S':'
asbag69
(g90
g71
NtRp1299
(dp1300
g74
(dp1301
sg83
g1286
sg76
(lp1302
g69
(g70
g71
NtRp1303
(dp1304
g74
(dp1305
g82
I4
ssg83
g1299
sg76
(lp1306
S'/'
asbasbasbag69
(g85
g71
NtRp1307
(dp1308
g74
(dp1309
sg83
g673
sg76
(lp1310
g69
(g90
g71
NtRp1311
(dp1312
g74
(dp1313
g94
g95
ssg83
g1307
sg76
(lp1314
S'script_name'
p1315
asbag69
(g90
g71
NtRp1316
(dp1317
g74
(dp1318
g101
g102
ssg83
g1307
sg76
(lp1319
S':'
asbag69
(g90
g71
NtRp1320
(dp1321
g74
(dp1322
sg83
g1307
sg76
(lp1323
g69
(g70
g71
NtRp1324
(dp1325
g74
(dp1326
g82
I4
ssg83
g1320
sg76
(lp1327
S''
asbasbasbag69
(g85
g71
NtRp1328
(dp1329
g74
(dp1330
sg83
g673
sg76
(lp1331
g69
(g90
g71
NtRp1332
(dp1333
g74
(dp1334
g94
g95
ssg83
g1328
sg76
(lp1335
S'server_name'
p1336
asbag69
(g90
g71
NtRp1337
(dp1338
g74
(dp1339
g101
g102
ssg83
g1328
sg76
(lp1340
S':'
asbag69
(g90
g71
NtRp1341
(dp1342
g74
(dp1343
sg83
g1328
sg76
(lp1344
g69
(g70
g71
NtRp1345
(dp1346
g74
(dp1347
g82
I4
ssg83
g1341
sg76
(lp1348
S'Hexed'
p1349
asbasbasbag69
(g85
g71
NtRp1350
(dp1351
g74
(dp1352
sg83
g673
sg76
(lp1353
g69
(g90
g71
NtRp1354
(dp1355
g74
(dp1356
g94
g95
ssg83
g1350
sg76
(lp1357
S'server_port'
p1358
asbag69
(g90
g71
NtRp1359
(dp1360
g74
(dp1361
g101
g102
ssg83
g1350
sg76
(lp1362
S':'
asbag69
(g90
g71
NtRp1363
(dp1364
g74
(dp1365
sg83
g1350
sg76
(lp1366
g69
(g70
g71
NtRp1367
(dp1368
g74
(dp1369
g82
I4
ssg83
g1363
sg76
(lp1370
S'8000'
p1371
asbasbasbag69
(g85
g71
NtRp1372
(dp1373
g74
(dp1374
sg83
g673
sg76
(lp1375
g69
(g90
g71
NtRp1376
(dp1377
g74
(dp1378
g94
g95
ssg83
g1372
sg76
(lp1379
S'server_protocol'
p1380
asbag69
(g90
g71
NtRp1381
(dp1382
g74
(dp1383
g101
g102
ssg83
g1372
sg76
(lp1384
S':'
asbag69
(g90
g71
NtRp1385
(dp1386
g74
(dp1387
sg83
g1372
sg76
(lp1388
g69
(g70
g71
NtRp1389
(dp1390
g74
(dp1391
g82
I4
ssg83
g1385
sg76
(lp1392
S'HTTP/1.1'
p1393
asbasbasbag69
(g85
g71
NtRp1394
(dp1395
g74
(dp1396
sg83
g673
sg76
(lp1397
g69
(g90
g71
NtRp1398
(dp1399
g74
(dp1400
g94
g95
ssg83
g1394
sg76
(lp1401
S'server_software'
p1402
asbag69
(g90
g71
NtRp1403
(dp1404
g74
(dp1405
g101
g102
ssg83
g1394
sg76
(lp1406
S':'
asbag69
(g90
g71
NtRp1407
(dp1408
g74
(dp1409
sg83
g1394
sg76
(lp1410
g69
(g70
g71
NtRp1411
(dp1412
g74
(dp1413
g82
I4
ssg83
g1407
sg76
(lp1414
S'Rocket 1.2.6'
p1415
asbasbasbag69
(g85
g71
NtRp1416
(dp1417
g74
(dp1418
sg83
g673
sg76
(lp1419
g69
(g90
g71
NtRp1420
(dp1421
g74
(dp1422
g94
g95
ssg83
g1416
sg76
(lp1423
S'web2py_original_uri'
p1424
asbag69
(g90
g71
NtRp1425
(dp1426
g74
(dp1427
g101
g102
ssg83
g1416
sg76
(lp1428
S':'
asbag69
(g90
g71
NtRp1429
(dp1430
g74
(dp1431
sg83
g1416
sg76
(lp1432
g69
(g70
g71
NtRp1433
(dp1434
g74
(dp1435
g82
I4
ssg83
g1429
sg76
(lp1436
S'/'
asbasbasbag69
(g85
g71
NtRp1437
(dp1438
g74
(dp1439
sg83
g673
sg76
(lp1440
g69
(g90
g71
NtRp1441
(dp1442
g74
(dp1443
g94
g95
ssg83
g1437
sg76
(lp1444
S'web2py_path'
p1445
asbag69
(g90
g71
NtRp1446
(dp1447
g74
(dp1448
g101
g102
ssg83
g1437
sg76
(lp1449
S':'
asbag69
(g90
g71
NtRp1450
(dp1451
g74
(dp1452
sg83
g1437
sg76
(lp1453
g69
(g70
g71
NtRp1454
(dp1455
g74
(dp1456
g82
I4
ssg83
g1450
sg76
(lp1457
g720
asbasbasbag69
(g85
g71
NtRp1458
(dp1459
g74
(dp1460
sg83
g673
sg76
(lp1461
g69
(g90
g71
NtRp1462
(dp1463
g74
(dp1464
g94
g95
ssg83
g1458
sg76
(lp1465
S'web2py_version'
p1466
asbag69
(g90
g71
NtRp1467
(dp1468
g74
(dp1469
g101
g102
ssg83
g1458
sg76
(lp1470
S':'
asbag69
(g90
g71
NtRp1471
(dp1472
g74
(dp1473
sg83
g1458
sg76
(lp1474
g69
(g70
g71
NtRp1475
(dp1476
g74
(dp1477
g82
I4
ssg83
g1471
sg76
(lp1478
g69
(g78
g71
NtRp1479
(dp1480
g74
(dp1481
g82
I3
ssg83
Nsg76
(lp1482
g69
(g85
g71
NtRp1483
(dp1484
g74
(dp1485
sg83
g1479
sg76
(lp1486
g69
(g90
g71
NtRp1487
(dp1488
g74
(dp1489
sg83
g1483
sg76
(lp1490
g69
(g70
g71
NtRp1491
(dp1492
g74
(dp1493
g82
I3
ssg83
g1487
sg76
(lp1494
S'2'
asbasbasbag69
(g85
g71
NtRp1495
(dp1496
g74
(dp1497
sg83
g1479
sg76
(lp1498
g69
(g90
g71
NtRp1499
(dp1500
g74
(dp1501
sg83
g1495
sg76
(lp1502
g69
(g70
g71
NtRp1503
(dp1504
g74
(dp1505
g82
I3
ssg83
g1499
sg76
(lp1506
S'3'
asbasbasbag69
(g85
g71
NtRp1507
(dp1508
g74
(dp1509
sg83
g1479
sg76
(lp1510
g69
(g90
g71
NtRp1511
(dp1512
g74
(dp1513
sg83
g1507
sg76
(lp1514
g69
(g70
g71
NtRp1515
(dp1516
g74
(dp1517
g82
I3
ssg83
g1511
sg76
(lp1518
S'2'
asbasbasbag69
(g85
g71
NtRp1519
(dp1520
g74
(dp1521
sg83
g1479
sg76
(lp1522
g69
(g90
g71
NtRp1523
(dp1524
g74
(dp1525
sg83
g1519
sg76
(lp1526
g69
(g70
g71
NtRp1527
(dp1528
g74
(dp1529
g82
I3
ssg83
g1523
sg76
(lp1530
S'datetime.datetime(2012, 12, 17, 15, 3, 30)'
p1531
asbasbasbag69
(g85
g71
NtRp1532
(dp1533
g74
(dp1534
sg83
g1479
sg76
(lp1535
g69
(g90
g71
NtRp1536
(dp1537
g74
(dp1538
sg83
g1532
sg76
(lp1539
g69
(g70
g71
NtRp1540
(dp1541
g74
(dp1542
g82
I3
ssg83
g1536
sg76
(lp1543
S'stable'
p1544
asbasbasbasbasbasbasbag69
(g85
g71
NtRp1545
(dp1546
g74
(dp1547
sg83
g673
sg76
(lp1548
g69
(g90
g71
NtRp1549
(dp1550
g74
(dp1551
g94
g95
ssg83
g1545
sg76
(lp1552
S'wsgi_errors'
p1553
asbag69
(g90
g71
NtRp1554
(dp1555
g74
(dp1556
g101
g102
ssg83
g1545
sg76
(lp1557
S':'
asbag69
(g90
g71
NtRp1558
(dp1559
g74
(dp1560
sg83
g1545
sg76
(lp1561
g69
(g70
g71
NtRp1562
(dp1563
g74
(dp1564
g82
I4
ssg83
g1558
sg76
(lp1565
S"<open file '<stderr>', mode 'w' at 0x0000000001CB71E0>"
p1566
asbasbasbag69
(g85
g71
NtRp1567
(dp1568
g74
(dp1569
sg83
g673
sg76
(lp1570
g69
(g90
g71
NtRp1571
(dp1572
g74
(dp1573
g94
g95
ssg83
g1567
sg76
(lp1574
S'wsgi_file_wrapper'
p1575
asbag69
(g90
g71
NtRp1576
(dp1577
g74
(dp1578
g101
g102
ssg83
g1567
sg76
(lp1579
S':'
asbag69
(g90
g71
NtRp1580
(dp1581
g74
(dp1582
sg83
g1567
sg76
(lp1583
g69
(g70
g71
NtRp1584
(dp1585
g74
(dp1586
g82
I4
ssg83
g1580
sg76
(lp1587
S'<class wsgiref.util.FileWrapper at 0x000000000335E7C8>'
p1588
asbasbasbag69
(g85
g71
NtRp1589
(dp1590
g74
(dp1591
sg83
g673
sg76
(lp1592
g69
(g90
g71
NtRp1593
(dp1594
g74
(dp1595
g94
g95
ssg83
g1589
sg76
(lp1596
S'wsgi_input'
p1597
asbag69
(g90
g71
NtRp1598
(dp1599
g74
(dp1600
g101
g102
ssg83
g1589
sg76
(lp1601
S':'
asbag69
(g90
g71
NtRp1602
(dp1603
g74
(dp1604
sg83
g1589
sg76
(lp1605
g69
(g70
g71
NtRp1606
(dp1607
g74
(dp1608
g82
I4
ssg83
g1602
sg76
(lp1609
S'<socket._fileobject object at 0x0000000007F21390>'
p1610
asbasbasbag69
(g85
g71
NtRp1611
(dp1612
g74
(dp1613
sg83
g673
sg76
(lp1614
g69
(g90
g71
NtRp1615
(dp1616
g74
(dp1617
g94
g95
ssg83
g1611
sg76
(lp1618
S'wsgi_multiprocess'
p1619
asbag69
(g90
g71
NtRp1620
(dp1621
g74
(dp1622
g101
g102
ssg83
g1611
sg76
(lp1623
S':'
asbag69
(g90
g71
NtRp1624
(dp1625
g74
(dp1626
sg83
g1611
sg76
(lp1627
g69
(g70
g71
NtRp1628
(dp1629
g74
(dp1630
g82
I4
ssg83
g1624
sg76
(lp1631
g112
asbasbasbag69
(g85
g71
NtRp1632
(dp1633
g74
(dp1634
sg83
g673
sg76
(lp1635
g69
(g90
g71
NtRp1636
(dp1637
g74
(dp1638
g94
g95
ssg83
g1632
sg76
(lp1639
S'wsgi_multithread'
p1640
asbag69
(g90
g71
NtRp1641
(dp1642
g74
(dp1643
g101
g102
ssg83
g1632
sg76
(lp1644
S':'
asbag69
(g90
g71
NtRp1645
(dp1646
g74
(dp1647
sg83
g1632
sg76
(lp1648
g69
(g70
g71
NtRp1649
(dp1650
g74
(dp1651
g82
I4
ssg83
g1645
sg76
(lp1652
S'True'
p1653
asbasbasbag69
(g85
g71
NtRp1654
(dp1655
g74
(dp1656
sg83
g673
sg76
(lp1657
g69
(g90
g71
NtRp1658
(dp1659
g74
(dp1660
g94
g95
ssg83
g1654
sg76
(lp1661
S'wsgi_run_once'
p1662
asbag69
(g90
g71
NtRp1663
(dp1664
g74
(dp1665
g101
g102
ssg83
g1654
sg76
(lp1666
S':'
asbag69
(g90
g71
NtRp1667
(dp1668
g74
(dp1669
sg83
g1654
sg76
(lp1670
g69
(g70
g71
NtRp1671
(dp1672
g74
(dp1673
g82
I4
ssg83
g1667
sg76
(lp1674
g112
asbasbasbag69
(g85
g71
NtRp1675
(dp1676
g74
(dp1677
sg83
g673
sg76
(lp1678
g69
(g90
g71
NtRp1679
(dp1680
g74
(dp1681
g94
g95
ssg83
g1675
sg76
(lp1682
S'wsgi_url_scheme'
p1683
asbag69
(g90
g71
NtRp1684
(dp1685
g74
(dp1686
g101
g102
ssg83
g1675
sg76
(lp1687
S':'
asbag69
(g90
g71
NtRp1688
(dp1689
g74
(dp1690
sg83
g1675
sg76
(lp1691
g69
(g70
g71
NtRp1692
(dp1693
g74
(dp1694
g82
I4
ssg83
g1688
sg76
(lp1695
S'http'
p1696
asbasbasbag69
(g85
g71
NtRp1697
(dp1698
g74
(dp1699
sg83
g673
sg76
(lp1700
g69
(g90
g71
NtRp1701
(dp1702
g74
(dp1703
g94
g95
ssg83
g1697
sg76
(lp1704
S'wsgi_version'
p1705
asbag69
(g90
g71
NtRp1706
(dp1707
g74
(dp1708
g101
g102
ssg83
g1697
sg76
(lp1709
S':'
asbag69
(g90
g71
NtRp1710
(dp1711
g74
(dp1712
sg83
g1697
sg76
(lp1713
g69
(g70
g71
NtRp1714
(dp1715
g74
(dp1716
g82
I4
ssg83
g1710
sg76
(lp1717
g69
(g78
g71
NtRp1718
(dp1719
g74
(dp1720
g82
I3
ssg83
Nsg76
(lp1721
g69
(g85
g71
NtRp1722
(dp1723
g74
(dp1724
sg83
g1718
sg76
(lp1725
g69
(g90
g71
NtRp1726
(dp1727
g74
(dp1728
sg83
g1722
sg76
(lp1729
g69
(g70
g71
NtRp1730
(dp1731
g74
(dp1732
g82
I3
ssg83
g1726
sg76
(lp1733
S'1'
asbasbasbag69
(g85
g71
NtRp1734
(dp1735
g74
(dp1736
sg83
g1718
sg76
(lp1737
g69
(g90
g71
NtRp1738
(dp1739
g74
(dp1740
sg83
g1734
sg76
(lp1741
g69
(g70
g71
NtRp1742
(dp1743
g74
(dp1744
g82
I3
ssg83
g1738
sg76
(lp1745
S'0'
asbasbasbasbasbasbasbasbasbasbasbag69
(g85
g71
NtRp1746
(dp1747
g74
(dp1748
sg83
g79
sg76
(lp1749
g69
(g90
g71
NtRp1750
(dp1751
g74
(dp1752
g94
g95
ssg83
g1746
sg76
(lp1753
S'extension'
p1754
asbag69
(g90
g71
NtRp1755
(dp1756
g74
(dp1757
g101
g102
ssg83
g1746
sg76
(lp1758
S':'
asbag69
(g90
g71
NtRp1759
(dp1760
g74
(dp1761
sg83
g1746
sg76
(lp1762
g69
(g70
g71
NtRp1763
(dp1764
g74
(dp1765
g82
I5
ssg83
g1759
sg76
(lp1766
S'html'
p1767
asbasbasbag69
(g85
g71
NtRp1768
(dp1769
g74
(dp1770
sg83
g79
sg76
(lp1771
g69
(g90
g71
NtRp1772
(dp1773
g74
(dp1774
g94
g95
ssg83
g1768
sg76
(lp1775
S'folder'
p1776
asbag69
(g90
g71
NtRp1777
(dp1778
g74
(dp1779
g101
g102
ssg83
g1768
sg76
(lp1780
S':'
asbag69
(g90
g71
NtRp1781
(dp1782
g74
(dp1783
sg83
g1768
sg76
(lp1784
g69
(g70
g71
NtRp1785
(dp1786
g74
(dp1787
g82
I5
ssg83
g1781
sg76
(lp1788
S'C:\\Users\\Juliano\\Documents\\Visual Studio 2012\\Projects\\PFM-Web\\applications\\PFM_Web\\'
p1789
asbasbasbag69
(g85
g71
NtRp1790
(dp1791
g74
(dp1792
sg83
g79
sg76
(lp1793
g69
(g90
g71
NtRp1794
(dp1795
g74
(dp1796
g94
g95
ssg83
g1790
sg76
(lp1797
S'function'
p1798
asbag69
(g90
g71
NtRp1799
(dp1800
g74
(dp1801
g101
g102
ssg83
g1790
sg76
(lp1802
S':'
asbag69
(g90
g71
NtRp1803
(dp1804
g74
(dp1805
sg83
g1790
sg76
(lp1806
g69
(g70
g71
NtRp1807
(dp1808
g74
(dp1809
g82
I5
ssg83
g1803
sg76
(lp1810
S'index'
p1811
asbasbasbag69
(g85
g71
NtRp1812
(dp1813
g74
(dp1814
sg83
g79
sg76
(lp1815
g69
(g90
g71
NtRp1816
(dp1817
g74
(dp1818
g94
g95
ssg83
g1812
sg76
(lp1819
S'get_vars'
p1820
asbag69
(g90
g71
NtRp1821
(dp1822
g74
(dp1823
g101
g102
ssg83
g1812
sg76
(lp1824
S':'
asbag69
(g90
g71
NtRp1825
(dp1826
g74
(dp1827
sg83
g1812
sg76
(lp1828
g69
(g70
g71
NtRp1829
(dp1830
g74
(dp1831
g82
I5
ssg83
g1825
sg76
(lp1832
g69
(g78
g71
NtRp1833
(dp1834
g74
(dp1835
g82
I4
ssg83
Nsg76
(lp1836
sbasbasbasbag69
(g85
g71
NtRp1837
(dp1838
g74
(dp1839
sg83
g79
sg76
(lp1840
g69
(g90
g71
NtRp1841
(dp1842
g74
(dp1843
g94
g95
ssg83
g1837
sg76
(lp1844
S'global_settings'
p1845
asbag69
(g90
g71
NtRp1846
(dp1847
g74
(dp1848
g101
g102
ssg83
g1837
sg76
(lp1849
S':'
asbag69
(g90
g71
NtRp1850
(dp1851
g74
(dp1852
sg83
g1837
sg76
(lp1853
g69
(g70
g71
NtRp1854
(dp1855
g74
(dp1856
g82
I5
ssg83
g1850
sg76
(lp1857
g69
(g78
g71
NtRp1858
(dp1859
g74
(dp1860
g82
I4
ssg83
Nsg76
(lp1861
g69
(g85
g71
NtRp1862
(dp1863
g74
(dp1864
sg83
g1858
sg76
(lp1865
g69
(g90
g71
NtRp1866
(dp1867
g74
(dp1868
g94
g95
ssg83
g1862
sg76
(lp1869
g685
asbag69
(g90
g71
NtRp1870
(dp1871
g74
(dp1872
g101
g102
ssg83
g1862
sg76
(lp1873
S':'
asbag69
(g90
g71
NtRp1874
(dp1875
g74
(dp1876
sg83
g1862
sg76
(lp1877
g69
(g70
g71
NtRp1878
(dp1879
g74
(dp1880
g82
I4
ssg83
g1874
sg76
(lp1881
S"set(['C:\\\\Users\\\\Juliano\\\\Documents\\\\Visual Studio 2012\\\\Projects\\\\PFM-Web\\\\applications\\\\PFM_Web\\\\', 'C:\\\\Users\\\\Juliano\\\\Documents\\\\Visual Studio 2012\\\\Projects\\\\PFM-Web\\\\applications\\\\admin\\\\'])"
p1882
asbasbasbag69
(g85
g71
NtRp1883
(dp1884
g74
(dp1885
sg83
g1858
sg76
(lp1886
g69
(g90
g71
NtRp1887
(dp1888
g74
(dp1889
g94
g95
ssg83
g1883
sg76
(lp1890
g707
asbag69
(g90
g71
NtRp1891
(dp1892
g74
(dp1893
g101
g102
ssg83
g1883
sg76
(lp1894
S':'
asbag69
(g90
g71
NtRp1895
(dp1896
g74
(dp1897
sg83
g1883
sg76
(lp1898
g69
(g70
g71
NtRp1899
(dp1900
g74
(dp1901
g82
I4
ssg83
g1895
sg76
(lp1902
g720
asbasbasbag69
(g85
g71
NtRp1903
(dp1904
g74
(dp1905
sg83
g1858
sg76
(lp1906
g69
(g90
g71
NtRp1907
(dp1908
g74
(dp1909
g94
g95
ssg83
g1903
sg76
(lp1910
g729
asbag69
(g90
g71
NtRp1911
(dp1912
g74
(dp1913
g101
g102
ssg83
g1903
sg76
(lp1914
S':'
asbag69
(g90
g71
NtRp1915
(dp1916
g74
(dp1917
sg83
g1903
sg76
(lp1918
g69
(g70
g71
NtRp1919
(dp1920
g74
(dp1921
g82
I4
ssg83
g1915
sg76
(lp1922
g69
(g78
g71
NtRp1923
(dp1924
g74
(dp1925
g82
I3
ssg83
Nsg76
(lp1926
sbasbasbasbag69
(g85
g71
NtRp1927
(dp1928
g74
(dp1929
sg83
g1858
sg76
(lp1930
g69
(g90
g71
NtRp1931
(dp1932
g74
(dp1933
g94
g95
ssg83
g1927
sg76
(lp1934
g754
asbag69
(g90
g71
NtRp1935
(dp1936
g74
(dp1937
g101
g102
ssg83
g1927
sg76
(lp1938
S':'
asbag69
(g90
g71
NtRp1939
(dp1940
g74
(dp1941
sg83
g1927
sg76
(lp1942
g69
(g70
g71
NtRp1943
(dp1944
g74
(dp1945
g82
I4
ssg83
g1939
sg76
(lp1946
S"<Values at 0x33d6288: {'verbose': False, 'ip': '127.0.0.1', 'with_scheduler': False, 'ips': ['192.168.0.196', 'fe80::2d25:44dc:a58e:afb9%13', '2001:0:9d38:953c:10e6:25ea:3f57:ff3b', 'fe80::10e6:25ea:3f57:ff3b%16'], 'shutdown_timeout': 5, 'taskbar': False, 'port': 8000, 'maxthreads': None, 'softcron': False, 'server_name': 'Hexed', 'bpython': False, 'nogui': False, 'pid_filename': 'httpserver.pid', 'extcron': False, 'runcron': False, 'run_system_tests': False, 'test': None, 'folder': 'C:\\\\Users\\\\Juliano\\\\Documents\\\\Visual Studio 2012\\\\Projects\\\\PFM-Web', 'config': '', 'import_models': False, 'winservice': '', 'shell': None, 'run': '', 'log_filename': 'httpserver.log', 'debuglevel': 30, 'args': [''], 'socket_timeout': 5, 'ssl_ca_certificate': None, 'scheduler': None, 'profiler_filename': None, 'ssl_private_key': '', 'scheduler_groups': None, 'password': '<ask>', 'request_queue_size': 5, 'ssl_certificate': '', 'cronjob': False, 'numthreads': None, 'quiet': False, 'interfaces': None, 'minthreads': None, 'timeout': 10, 'plain': False, 'nobanner': False}>"
p1947
asbasbasbag69
(g85
g71
NtRp1948
(dp1949
g74
(dp1950
sg83
g1858
sg76
(lp1951
g69
(g90
g71
NtRp1952
(dp1953
g74
(dp1954
g94
g95
ssg83
g1948
sg76
(lp1955
g776
asbag69
(g90
g71
NtRp1956
(dp1957
g74
(dp1958
g101
g102
ssg83
g1948
sg76
(lp1959
S':'
asbag69
(g90
g71
NtRp1960
(dp1961
g74
(dp1962
sg83
g1948
sg76
(lp1963
g69
(g70
g71
NtRp1964
(dp1965
g74
(dp1966
g82
I4
ssg83
g1960
sg76
(lp1967
S'set([])'
p1968
asbasbasbag69
(g85
g71
NtRp1969
(dp1970
g74
(dp1971
sg83
g1858
sg76
(lp1972
g69
(g90
g71
NtRp1973
(dp1974
g74
(dp1975
g94
g95
ssg83
g1969
sg76
(lp1976
g798
asbag69
(g90
g71
NtRp1977
(dp1978
g74
(dp1979
g101
g102
ssg83
g1969
sg76
(lp1980
S':'
asbag69
(g90
g71
NtRp1981
(dp1982
g74
(dp1983
sg83
g1969
sg76
(lp1984
g69
(g70
g71
NtRp1985
(dp1986
g74
(dp1987
g82
I4
ssg83
g1981
sg76
(lp1988
g112
asbasbasbag69
(g85
g71
NtRp1989
(dp1990
g74
(dp1991
sg83
g1858
sg76
(lp1992
g69
(g90
g71
NtRp1993
(dp1994
g74
(dp1995
g94
g95
ssg83
g1989
sg76
(lp1996
g819
asbag69
(g90
g71
NtRp1997
(dp1998
g74
(dp1999
g101
g102
ssg83
g1989
sg76
(lp2000
S':'
asbag69
(g90
g71
NtRp2001
(dp2002
g74
(dp2003
sg83
g1989
sg76
(lp2004
g69
(g70
g71
NtRp2005
(dp2006
g74
(dp2007
g82
I4
ssg83
g2001
sg76
(lp2008
g832
asbasbasbag69
(g85
g71
NtRp2009
(dp2010
g74
(dp2011
sg83
g1858
sg76
(lp2012
g69
(g90
g71
NtRp2013
(dp2014
g74
(dp2015
g94
g95
ssg83
g2009
sg76
(lp2016
g1016
asbag69
(g90
g71
NtRp2017
(dp2018
g74
(dp2019
g101
g102
ssg83
g2009
sg76
(lp2020
S':'
asbag69
(g90
g71
NtRp2021
(dp2022
g74
(dp2023
sg83
g2009
sg76
(lp2024
g69
(g70
g71
NtRp2025
(dp2026
g74
(dp2027
g82
I4
ssg83
g2021
sg76
(lp2028
g112
asbasbasbag69
(g85
g71
NtRp2029
(dp2030
g74
(dp2031
sg83
g1858
sg76
(lp2032
g69
(g90
g71
NtRp2033
(dp2034
g74
(dp2035
g94
g95
ssg83
g2029
sg76
(lp2036
g1037
asbag69
(g90
g71
NtRp2037
(dp2038
g74
(dp2039
g101
g102
ssg83
g2029
sg76
(lp2040
S':'
asbag69
(g90
g71
NtRp2041
(dp2042
g74
(dp2043
sg83
g2029
sg76
(lp2044
g69
(g70
g71
NtRp2045
(dp2046
g74
(dp2047
g82
I4
ssg83
g2041
sg76
(lp2048
g112
asbasbasbag69
(g85
g71
NtRp2049
(dp2050
g74
(dp2051
sg83
g1858
sg76
(lp2052
g69
(g90
g71
NtRp2053
(dp2054
g74
(dp2055
g94
g95
ssg83
g2049
sg76
(lp2056
g1058
asbag69
(g90
g71
NtRp2057
(dp2058
g74
(dp2059
g101
g102
ssg83
g2049
sg76
(lp2060
S':'
asbag69
(g90
g71
NtRp2061
(dp2062
g74
(dp2063
sg83
g2049
sg76
(lp2064
g69
(g70
g71
NtRp2065
(dp2066
g74
(dp2067
g82
I4
ssg83
g2061
sg76
(lp2068
g69
(g78
g71
NtRp2069
(dp2070
g74
(dp2071
g82
I3
ssg83
Nsg76
(lp2072
g69
(g85
g71
NtRp2073
(dp2074
g74
(dp2075
sg83
g2069
sg76
(lp2076
g69
(g90
g71
NtRp2077
(dp2078
g74
(dp2079
sg83
g2073
sg76
(lp2080
g69
(g70
g71
NtRp2081
(dp2082
g74
(dp2083
g82
I3
ssg83
g2077
sg76
(lp2084
g1087
asbasbasbag69
(g85
g71
NtRp2085
(dp2086
g74
(dp2087
sg83
g2069
sg76
(lp2088
g69
(g90
g71
NtRp2089
(dp2090
g74
(dp2091
sg83
g2085
sg76
(lp2092
g69
(g70
g71
NtRp2093
(dp2094
g74
(dp2095
g82
I3
ssg83
g2089
sg76
(lp2096
g1100
asbasbasbag69
(g85
g71
NtRp2097
(dp2098
g74
(dp2099
sg83
g2069
sg76
(lp2100
g69
(g90
g71
NtRp2101
(dp2102
g74
(dp2103
sg83
g2097
sg76
(lp2104
g69
(g70
g71
NtRp2105
(dp2106
g74
(dp2107
g82
I3
ssg83
g2101
sg76
(lp2108
g1113
asbasbasbag69
(g85
g71
NtRp2109
(dp2110
g74
(dp2111
sg83
g2069
sg76
(lp2112
g69
(g90
g71
NtRp2113
(dp2114
g74
(dp2115
sg83
g2109
sg76
(lp2116
g69
(g70
g71
NtRp2117
(dp2118
g74
(dp2119
g82
I3
ssg83
g2113
sg76
(lp2120
g1126
asbasbasbag69
(g85
g71
NtRp2121
(dp2122
g74
(dp2123
sg83
g2069
sg76
(lp2124
g69
(g90
g71
NtRp2125
(dp2126
g74
(dp2127
sg83
g2121
sg76
(lp2128
g69
(g70
g71
NtRp2129
(dp2130
g74
(dp2131
g82
I3
ssg83
g2125
sg76
(lp2132
g1139
asbasbasbag69
(g85
g71
NtRp2133
(dp2134
g74
(dp2135
sg83
g2069
sg76
(lp2136
g69
(g90
g71
NtRp2137
(dp2138
g74
(dp2139
sg83
g2133
sg76
(lp2140
g69
(g70
g71
NtRp2141
(dp2142
g74
(dp2143
g82
I3
ssg83
g2137
sg76
(lp2144
g1152
asbasbasbag69
(g85
g71
NtRp2145
(dp2146
g74
(dp2147
sg83
g2069
sg76
(lp2148
g69
(g90
g71
NtRp2149
(dp2150
g74
(dp2151
sg83
g2145
sg76
(lp2152
g69
(g70
g71
NtRp2153
(dp2154
g74
(dp2155
g82
I3
ssg83
g2149
sg76
(lp2156
g1165
asbasbasbag69
(g85
g71
NtRp2157
(dp2158
g74
(dp2159
sg83
g2069
sg76
(lp2160
g69
(g90
g71
NtRp2161
(dp2162
g74
(dp2163
sg83
g2157
sg76
(lp2164
g69
(g70
g71
NtRp2165
(dp2166
g74
(dp2167
g82
I3
ssg83
g2161
sg76
(lp2168
g1178
asbasbasbasbasbasbasbag69
(g85
g71
NtRp2169
(dp2170
g74
(dp2171
sg83
g1858
sg76
(lp2172
g69
(g90
g71
NtRp2173
(dp2174
g74
(dp2175
g94
g95
ssg83
g2169
sg76
(lp2176
g1466
asbag69
(g90
g71
NtRp2177
(dp2178
g74
(dp2179
g101
g102
ssg83
g2169
sg76
(lp2180
S':'
asbag69
(g90
g71
NtRp2181
(dp2182
g74
(dp2183
sg83
g2169
sg76
(lp2184
g69
(g70
g71
NtRp2185
(dp2186
g74
(dp2187
g82
I4
ssg83
g2181
sg76
(lp2188
g69
(g78
g71
NtRp2189
(dp2190
g74
(dp2191
g82
I3
ssg83
Nsg76
(lp2192
g69
(g85
g71
NtRp2193
(dp2194
g74
(dp2195
sg83
g2189
sg76
(lp2196
g69
(g90
g71
NtRp2197
(dp2198
g74
(dp2199
sg83
g2193
sg76
(lp2200
g69
(g70
g71
NtRp2201
(dp2202
g74
(dp2203
g82
I3
ssg83
g2197
sg76
(lp2204
S'2'
asbasbasbag69
(g85
g71
NtRp2205
(dp2206
g74
(dp2207
sg83
g2189
sg76
(lp2208
g69
(g90
g71
NtRp2209
(dp2210
g74
(dp2211
sg83
g2205
sg76
(lp2212
g69
(g70
g71
NtRp2213
(dp2214
g74
(dp2215
g82
I3
ssg83
g2209
sg76
(lp2216
S'3'
asbasbasbag69
(g85
g71
NtRp2217
(dp2218
g74
(dp2219
sg83
g2189
sg76
(lp2220
g69
(g90
g71
NtRp2221
(dp2222
g74
(dp2223
sg83
g2217
sg76
(lp2224
g69
(g70
g71
NtRp2225
(dp2226
g74
(dp2227
g82
I3
ssg83
g2221
sg76
(lp2228
S'2'
asbasbasbag69
(g85
g71
NtRp2229
(dp2230
g74
(dp2231
sg83
g2189
sg76
(lp2232
g69
(g90
g71
NtRp2233
(dp2234
g74
(dp2235
sg83
g2229
sg76
(lp2236
g69
(g70
g71
NtRp2237
(dp2238
g74
(dp2239
g82
I3
ssg83
g2233
sg76
(lp2240
S'datetime.datetime(2012, 12, 17, 15, 3, 30)'
p2241
asbasbasbag69
(g85
g71
NtRp2242
(dp2243
g74
(dp2244
sg83
g2189
sg76
(lp2245
g69
(g90
g71
NtRp2246
(dp2247
g74
(dp2248
sg83
g2242
sg76
(lp2249
g69
(g70
g71
NtRp2250
(dp2251
g74
(dp2252
g82
I3
ssg83
g2246
sg76
(lp2253
g1544
asbasbasbasbasbasbasbasbasbasbasbag69
(g85
g71
NtRp2254
(dp2255
g74
(dp2256
sg83
g79
sg76
(lp2257
g69
(g90
g71
NtRp2258
(dp2259
g74
(dp2260
g94
g95
ssg83
g2254
sg76
(lp2261
S'is_https'
p2262
asbag69
(g90
g71
NtRp2263
(dp2264
g74
(dp2265
g101
g102
ssg83
g2254
sg76
(lp2266
S':'
asbag69
(g90
g71
NtRp2267
(dp2268
g74
(dp2269
sg83
g2254
sg76
(lp2270
g69
(g70
g71
NtRp2271
(dp2272
g74
(dp2273
g82
I5
ssg83
g2267
sg76
(lp2274
g112
asbasbasbag69
(g85
g71
NtRp2275
(dp2276
g74
(dp2277
sg83
g79
sg76
(lp2278
g69
(g90
g71
NtRp2279
(dp2280
g74
(dp2281
g94
g95
ssg83
g2275
sg76
(lp2282
S'is_local'
p2283
asbag69
(g90
g71
NtRp2284
(dp2285
g74
(dp2286
g101
g102
ssg83
g2275
sg76
(lp2287
S':'
asbag69
(g90
g71
NtRp2288
(dp2289
g74
(dp2290
sg83
g2275
sg76
(lp2291
g69
(g70
g71
NtRp2292
(dp2293
g74
(dp2294
g82
I5
ssg83
g2288
sg76
(lp2295
g1653
asbasbasbag69
(g85
g71
NtRp2296
(dp2297
g74
(dp2298
sg83
g79
sg76
(lp2299
g69
(g90
g71
NtRp2300
(dp2301
g74
(dp2302
g94
g95
ssg83
g2296
sg76
(lp2303
S'is_restful'
p2304
asbag69
(g90
g71
NtRp2305
(dp2306
g74
(dp2307
g101
g102
ssg83
g2296
sg76
(lp2308
S':'
asbag69
(g90
g71
NtRp2309
(dp2310
g74
(dp2311
sg83
g2296
sg76
(lp2312
g69
(g70
g71
NtRp2313
(dp2314
g74
(dp2315
g82
I5
ssg83
g2309
sg76
(lp2316
g112
asbasbasbag69
(g85
g71
NtRp2317
(dp2318
g74
(dp2319
sg83
g79
sg76
(lp2320
g69
(g90
g71
NtRp2321
(dp2322
g74
(dp2323
g94
g95
ssg83
g2317
sg76
(lp2324
S'now'
p2325
asbag69
(g90
g71
NtRp2326
(dp2327
g74
(dp2328
g101
g102
ssg83
g2317
sg76
(lp2329
S':'
asbag69
(g90
g71
NtRp2330
(dp2331
g74
(dp2332
sg83
g2317
sg76
(lp2333
g69
(g70
g71
NtRp2334
(dp2335
g74
(dp2336
g82
I5
ssg83
g2330
sg76
(lp2337
S'datetime.datetime(2013, 2, 23, 15, 55, 45, 744000)'
p2338
asbasbasbag69
(g85
g71
NtRp2339
(dp2340
g74
(dp2341
sg83
g79
sg76
(lp2342
g69
(g90
g71
NtRp2343
(dp2344
g74
(dp2345
g94
g95
ssg83
g2339
sg76
(lp2346
S'post_vars'
p2347
asbag69
(g90
g71
NtRp2348
(dp2349
g74
(dp2350
g101
g102
ssg83
g2339
sg76
(lp2351
S':'
asbag69
(g90
g71
NtRp2352
(dp2353
g74
(dp2354
sg83
g2339
sg76
(lp2355
g69
(g70
g71
NtRp2356
(dp2357
g74
(dp2358
g82
I5
ssg83
g2352
sg76
(lp2359
g69
(g78
g71
NtRp2360
(dp2361
g74
(dp2362
g82
I4
ssg83
Nsg76
(lp2363
sbasbasbasbag69
(g85
g71
NtRp2364
(dp2365
g74
(dp2366
sg83
g79
sg76
(lp2367
g69
(g90
g71
NtRp2368
(dp2369
g74
(dp2370
g94
g95
ssg83
g2364
sg76
(lp2371
S'raw_args'
p2372
asbag69
(g90
g71
NtRp2373
(dp2374
g74
(dp2375
g101
g102
ssg83
g2364
sg76
(lp2376
S':'
asbag69
(g90
g71
NtRp2377
(dp2378
g74
(dp2379
sg83
g2364
sg76
(lp2380
g69
(g70
g71
NtRp2381
(dp2382
g74
(dp2383
g82
I5
ssg83
g2377
sg76
(lp2384
S''
asbasbasbag69
(g85
g71
NtRp2385
(dp2386
g74
(dp2387
sg83
g79
sg76
(lp2388
g69
(g90
g71
NtRp2389
(dp2390
g74
(dp2391
g94
g95
ssg83
g2385
sg76
(lp2392
S'raw_extension'
p2393
asbag69
(g90
g71
NtRp2394
(dp2395
g74
(dp2396
g101
g102
ssg83
g2385
sg76
(lp2397
S':'
asbag69
(g90
g71
NtRp2398
(dp2399
g74
(dp2400
sg83
g2385
sg76
(lp2401
g69
(g70
g71
NtRp2402
(dp2403
g74
(dp2404
g82
I5
ssg83
g2398
sg76
(lp2405
S'None'
p2406
asbasbasbag69
(g85
g71
NtRp2407
(dp2408
g74
(dp2409
sg83
g79
sg76
(lp2410
g69
(g90
g71
NtRp2411
(dp2412
g74
(dp2413
g94
g95
ssg83
g2407
sg76
(lp2414
S'url'
p2415
asbag69
(g90
g71
NtRp2416
(dp2417
g74
(dp2418
g101
g102
ssg83
g2407
sg76
(lp2419
S':'
asbag69
(g90
g71
NtRp2420
(dp2421
g74
(dp2422
sg83
g2407
sg76
(lp2423
g69
(g70
g71
NtRp2424
(dp2425
g74
(dp2426
g82
I5
ssg83
g2420
sg76
(lp2427
S'/'
asbasbasbag69
(g85
g71
NtRp2428
(dp2429
g74
(dp2430
sg83
g79
sg76
(lp2431
g69
(g90
g71
NtRp2432
(dp2433
g74
(dp2434
g94
g95
ssg83
g2428
sg76
(lp2435
S'utcnow'
p2436
asbag69
(g90
g71
NtRp2437
(dp2438
g74
(dp2439
g101
g102
ssg83
g2428
sg76
(lp2440
S':'
asbag69
(g90
g71
NtRp2441
(dp2442
g74
(dp2443
sg83
g2428
sg76
(lp2444
g69
(g70
g71
NtRp2445
(dp2446
g74
(dp2447
g82
I5
ssg83
g2441
sg76
(lp2448
S'datetime.datetime(2013, 2, 23, 18, 55, 45, 744000)'
p2449
asbasbasbag69
(g85
g71
NtRp2450
(dp2451
g74
(dp2452
sg83
g79
sg76
(lp2453
g69
(g90
g71
NtRp2454
(dp2455
g74
(dp2456
g94
g95
ssg83
g2450
sg76
(lp2457
S'uuid'
p2458
asbag69
(g90
g71
NtRp2459
(dp2460
g74
(dp2461
g101
g102
ssg83
g2450
sg76
(lp2462
S':'
asbag69
(g90
g71
NtRp2463
(dp2464
g74
(dp2465
sg83
g2450
sg76
(lp2466
g69
(g70
g71
NtRp2467
(dp2468
g74
(dp2469
g82
I5
ssg83
g2463
sg76
(lp2470
S'PFM_Web/127.0.0.1.2013-02-23.15-55-45.9d44c7f1-0f4a-4e97-b756-fa40db4b55ac'
p2471
asbasbasbag69
(g85
g71
NtRp2472
(dp2473
g74
(dp2474
sg83
g79
sg76
(lp2475
g69
(g90
g71
NtRp2476
(dp2477
g74
(dp2478
g94
g95
ssg83
g2472
sg76
(lp2479
S'vars'
p2480
asbag69
(g90
g71
NtRp2481
(dp2482
g74
(dp2483
g101
g102
ssg83
g2472
sg76
(lp2484
S':'
asbag69
(g90
g71
NtRp2485
(dp2486
g74
(dp2487
sg83
g2472
sg76
(lp2488
g69
(g70
g71
NtRp2489
(dp2490
g74
(dp2491
g82
I5
ssg83
g2485
sg76
(lp2492
g69
(g78
g71
NtRp2493
(dp2494
g74
(dp2495
g82
I4
ssg83
Nsg76
(lp2496
sbasbasbasbag69
(g85
g71
NtRp2497
(dp2498
g74
(dp2499
sg83
g79
sg76
(lp2500
g69
(g90
g71
NtRp2501
(dp2502
g74
(dp2503
g94
g95
ssg83
g2497
sg76
(lp2504
S'wsgi'
p2505
asbag69
(g90
g71
NtRp2506
(dp2507
g74
(dp2508
g101
g102
ssg83
g2497
sg76
(lp2509
S':'
asbag69
(g90
g71
NtRp2510
(dp2511
g74
(dp2512
sg83
g2497
sg76
(lp2513
g69
(g70
g71
NtRp2514
(dp2515
g74
(dp2516
g82
I5
ssg83
g2510
sg76
(lp2517
g69
(g78
g71
NtRp2518
(dp2519
g74
(dp2520
g82
I4
ssg83
Nsg76
(lp2521
g69
(g85
g71
NtRp2522
(dp2523
g74
(dp2524
sg83
g2518
sg76
(lp2525
g69
(g90
g71
NtRp2526
(dp2527
g74
(dp2528
g94
g95
ssg83
g2522
sg76
(lp2529
S'environ'
p2530
asbag69
(g90
g71
NtRp2531
(dp2532
g74
(dp2533
g101
g102
ssg83
g2522
sg76
(lp2534
S':'
asbag69
(g90
g71
NtRp2535
(dp2536
g74
(dp2537
sg83
g2522
sg76
(lp2538
g69
(g70
g71
NtRp2539
(dp2540
g74
(dp2541
g82
I4
ssg83
g2535
sg76
(lp2542
g69
(g78
g71
NtRp2543
(dp2544
g74
(dp2545
g82
I3
ssg83
Nsg76
(lp2546
g69
(g85
g71
NtRp2547
(dp2548
g74
(dp2549
sg83
g2543
sg76
(lp2550
g69
(g90
g71
NtRp2551
(dp2552
g74
(dp2553
g94
g95
ssg83
g2547
sg76
(lp2554
S'HTTP_ACCEPT'
p2555
asbag69
(g90
g71
NtRp2556
(dp2557
g74
(dp2558
g101
g102
ssg83
g2547
sg76
(lp2559
S':'
asbag69
(g90
g71
NtRp2560
(dp2561
g74
(dp2562
sg83
g2547
sg76
(lp2563
g69
(g70
g71
NtRp2564
(dp2565
g74
(dp2566
g82
I3
ssg83
g2560
sg76
(lp2567
g854
asbasbasbag69
(g85
g71
NtRp2568
(dp2569
g74
(dp2570
sg83
g2543
sg76
(lp2571
g69
(g90
g71
NtRp2572
(dp2573
g74
(dp2574
g94
g95
ssg83
g2568
sg76
(lp2575
S'HTTP_ACCEPT_ENCODING'
p2576
asbag69
(g90
g71
NtRp2577
(dp2578
g74
(dp2579
g101
g102
ssg83
g2568
sg76
(lp2580
S':'
asbag69
(g90
g71
NtRp2581
(dp2582
g74
(dp2583
sg83
g2568
sg76
(lp2584
g69
(g70
g71
NtRp2585
(dp2586
g74
(dp2587
g82
I3
ssg83
g2581
sg76
(lp2588
g876
asbasbasbag69
(g85
g71
NtRp2589
(dp2590
g74
(dp2591
sg83
g2543
sg76
(lp2592
g69
(g90
g71
NtRp2593
(dp2594
g74
(dp2595
g94
g95
ssg83
g2589
sg76
(lp2596
S'HTTP_ACCEPT_LANGUAGE'
p2597
asbag69
(g90
g71
NtRp2598
(dp2599
g74
(dp2600
g101
g102
ssg83
g2589
sg76
(lp2601
S':'
asbag69
(g90
g71
NtRp2602
(dp2603
g74
(dp2604
sg83
g2589
sg76
(lp2605
g69
(g70
g71
NtRp2606
(dp2607
g74
(dp2608
g82
I3
ssg83
g2602
sg76
(lp2609
g898
asbasbasbag69
(g85
g71
NtRp2610
(dp2611
g74
(dp2612
sg83
g2543
sg76
(lp2613
g69
(g90
g71
NtRp2614
(dp2615
g74
(dp2616
g94
g95
ssg83
g2610
sg76
(lp2617
S'HTTP_CONNECTION'
p2618
asbag69
(g90
g71
NtRp2619
(dp2620
g74
(dp2621
g101
g102
ssg83
g2610
sg76
(lp2622
S':'
asbag69
(g90
g71
NtRp2623
(dp2624
g74
(dp2625
sg83
g2610
sg76
(lp2626
g69
(g70
g71
NtRp2627
(dp2628
g74
(dp2629
g82
I3
ssg83
g2623
sg76
(lp2630
g920
asbasbasbag69
(g85
g71
NtRp2631
(dp2632
g74
(dp2633
sg83
g2543
sg76
(lp2634
g69
(g90
g71
NtRp2635
(dp2636
g74
(dp2637
g94
g95
ssg83
g2631
sg76
(lp2638
S'HTTP_COOKIE'
p2639
asbag69
(g90
g71
NtRp2640
(dp2641
g74
(dp2642
g101
g102
ssg83
g2631
sg76
(lp2643
S':'
asbag69
(g90
g71
NtRp2644
(dp2645
g74
(dp2646
sg83
g2631
sg76
(lp2647
g69
(g70
g71
NtRp2648
(dp2649
g74
(dp2650
g82
I3
ssg83
g2644
sg76
(lp2651
g942
asbasbasbag69
(g85
g71
NtRp2652
(dp2653
g74
(dp2654
sg83
g2543
sg76
(lp2655
g69
(g90
g71
NtRp2656
(dp2657
g74
(dp2658
g94
g95
ssg83
g2652
sg76
(lp2659
S'HTTP_DNT'
p2660
asbag69
(g90
g71
NtRp2661
(dp2662
g74
(dp2663
g101
g102
ssg83
g2652
sg76
(lp2664
S':'
asbag69
(g90
g71
NtRp2665
(dp2666
g74
(dp2667
sg83
g2652
sg76
(lp2668
g69
(g70
g71
NtRp2669
(dp2670
g74
(dp2671
g82
I3
ssg83
g2665
sg76
(lp2672
S'1'
asbasbasbag69
(g85
g71
NtRp2673
(dp2674
g74
(dp2675
sg83
g2543
sg76
(lp2676
g69
(g90
g71
NtRp2677
(dp2678
g74
(dp2679
g94
g95
ssg83
g2673
sg76
(lp2680
S'HTTP_HOST'
p2681
asbag69
(g90
g71
NtRp2682
(dp2683
g74
(dp2684
g101
g102
ssg83
g2673
sg76
(lp2685
S':'
asbag69
(g90
g71
NtRp2686
(dp2687
g74
(dp2688
sg83
g2673
sg76
(lp2689
g69
(g70
g71
NtRp2690
(dp2691
g74
(dp2692
g82
I3
ssg83
g2686
sg76
(lp2693
g985
asbasbasbag69
(g85
g71
NtRp2694
(dp2695
g74
(dp2696
sg83
g2543
sg76
(lp2697
g69
(g90
g71
NtRp2698
(dp2699
g74
(dp2700
g94
g95
ssg83
g2694
sg76
(lp2701
S'HTTP_USER_AGENT'
p2702
asbag69
(g90
g71
NtRp2703
(dp2704
g74
(dp2705
g101
g102
ssg83
g2694
sg76
(lp2706
S':'
asbag69
(g90
g71
NtRp2707
(dp2708
g74
(dp2709
sg83
g2694
sg76
(lp2710
g69
(g70
g71
NtRp2711
(dp2712
g74
(dp2713
g82
I3
ssg83
g2707
sg76
(lp2714
g1007
asbasbasbag69
(g85
g71
NtRp2715
(dp2716
g74
(dp2717
sg83
g2543
sg76
(lp2718
g69
(g90
g71
NtRp2719
(dp2720
g74
(dp2721
g94
g95
ssg83
g2715
sg76
(lp2722
S'PATH_INFO'
p2723
asbag69
(g90
g71
NtRp2724
(dp2725
g74
(dp2726
g101
g102
ssg83
g2715
sg76
(lp2727
S':'
asbag69
(g90
g71
NtRp2728
(dp2729
g74
(dp2730
sg83
g2715
sg76
(lp2731
g69
(g70
g71
NtRp2732
(dp2733
g74
(dp2734
g82
I3
ssg83
g2728
sg76
(lp2735
S'/'
asbasbasbag69
(g85
g71
NtRp2736
(dp2737
g74
(dp2738
sg83
g2543
sg76
(lp2739
g69
(g90
g71
NtRp2740
(dp2741
g74
(dp2742
g94
g95
ssg83
g2736
sg76
(lp2743
S'QUERY_STRING'
p2744
asbag69
(g90
g71
NtRp2745
(dp2746
g74
(dp2747
g101
g102
ssg83
g2736
sg76
(lp2748
S':'
asbag69
(g90
g71
NtRp2749
(dp2750
g74
(dp2751
sg83
g2736
sg76
(lp2752
g69
(g70
g71
NtRp2753
(dp2754
g74
(dp2755
g82
I3
ssg83
g2749
sg76
(lp2756
S''
asbasbasbag69
(g85
g71
NtRp2757
(dp2758
g74
(dp2759
sg83
g2543
sg76
(lp2760
g69
(g90
g71
NtRp2761
(dp2762
g74
(dp2763
g94
g95
ssg83
g2757
sg76
(lp2764
S'REMOTE_ADDR'
p2765
asbag69
(g90
g71
NtRp2766
(dp2767
g74
(dp2768
g101
g102
ssg83
g2757
sg76
(lp2769
S':'
asbag69
(g90
g71
NtRp2770
(dp2771
g74
(dp2772
sg83
g2757
sg76
(lp2773
g69
(g70
g71
NtRp2774
(dp2775
g74
(dp2776
g82
I3
ssg83
g2770
sg76
(lp2777
g224
asbasbasbag69
(g85
g71
NtRp2778
(dp2779
g74
(dp2780
sg83
g2543
sg76
(lp2781
g69
(g90
g71
NtRp2782
(dp2783
g74
(dp2784
g94
g95
ssg83
g2778
sg76
(lp2785
S'REMOTE_PORT'
p2786
asbag69
(g90
g71
NtRp2787
(dp2788
g74
(dp2789
g101
g102
ssg83
g2778
sg76
(lp2790
S':'
asbag69
(g90
g71
NtRp2791
(dp2792
g74
(dp2793
sg83
g2778
sg76
(lp2794
g69
(g70
g71
NtRp2795
(dp2796
g74
(dp2797
g82
I3
ssg83
g2791
sg76
(lp2798
g1263
asbasbasbag69
(g85
g71
NtRp2799
(dp2800
g74
(dp2801
sg83
g2543
sg76
(lp2802
g69
(g90
g71
NtRp2803
(dp2804
g74
(dp2805
g94
g95
ssg83
g2799
sg76
(lp2806
S'REQUEST_METHOD'
p2807
asbag69
(g90
g71
NtRp2808
(dp2809
g74
(dp2810
g101
g102
ssg83
g2799
sg76
(lp2811
S':'
asbag69
(g90
g71
NtRp2812
(dp2813
g74
(dp2814
sg83
g2799
sg76
(lp2815
g69
(g70
g71
NtRp2816
(dp2817
g74
(dp2818
g82
I3
ssg83
g2812
sg76
(lp2819
g1285
asbasbasbag69
(g85
g71
NtRp2820
(dp2821
g74
(dp2822
sg83
g2543
sg76
(lp2823
g69
(g90
g71
NtRp2824
(dp2825
g74
(dp2826
g94
g95
ssg83
g2820
sg76
(lp2827
S'REQUEST_URI'
p2828
asbag69
(g90
g71
NtRp2829
(dp2830
g74
(dp2831
g101
g102
ssg83
g2820
sg76
(lp2832
S':'
asbag69
(g90
g71
NtRp2833
(dp2834
g74
(dp2835
sg83
g2820
sg76
(lp2836
g69
(g70
g71
NtRp2837
(dp2838
g74
(dp2839
g82
I3
ssg83
g2833
sg76
(lp2840
S'/'
asbasbasbag69
(g85
g71
NtRp2841
(dp2842
g74
(dp2843
sg83
g2543
sg76
(lp2844
g69
(g90
g71
NtRp2845
(dp2846
g74
(dp2847
g94
g95
ssg83
g2841
sg76
(lp2848
S'SCRIPT_NAME'
p2849
asbag69
(g90
g71
NtRp2850
(dp2851
g74
(dp2852
g101
g102
ssg83
g2841
sg76
(lp2853
S':'
asbag69
(g90
g71
NtRp2854
(dp2855
g74
(dp2856
sg83
g2841
sg76
(lp2857
g69
(g70
g71
NtRp2858
(dp2859
g74
(dp2860
g82
I3
ssg83
g2854
sg76
(lp2861
S''
asbasbasbag69
(g85
g71
NtRp2862
(dp2863
g74
(dp2864
sg83
g2543
sg76
(lp2865
g69
(g90
g71
NtRp2866
(dp2867
g74
(dp2868
g94
g95
ssg83
g2862
sg76
(lp2869
S'SERVER_NAME'
p2870
asbag69
(g90
g71
NtRp2871
(dp2872
g74
(dp2873
g101
g102
ssg83
g2862
sg76
(lp2874
S':'
asbag69
(g90
g71
NtRp2875
(dp2876
g74
(dp2877
sg83
g2862
sg76
(lp2878
g69
(g70
g71
NtRp2879
(dp2880
g74
(dp2881
g82
I3
ssg83
g2875
sg76
(lp2882
g1349
asbasbasbag69
(g85
g71
NtRp2883
(dp2884
g74
(dp2885
sg83
g2543
sg76
(lp2886
g69
(g90
g71
NtRp2887
(dp2888
g74
(dp2889
g94
g95
ssg83
g2883
sg76
(lp2890
S'SERVER_PORT'
p2891
asbag69
(g90
g71
NtRp2892
(dp2893
g74
(dp2894
g101
g102
ssg83
g2883
sg76
(lp2895
S':'
asbag69
(g90
g71
NtRp2896
(dp2897
g74
(dp2898
sg83
g2883
sg76
(lp2899
g69
(g70
g71
NtRp2900
(dp2901
g74
(dp2902
g82
I3
ssg83
g2896
sg76
(lp2903
g1371
asbasbasbag69
(g85
g71
NtRp2904
(dp2905
g74
(dp2906
sg83
g2543
sg76
(lp2907
g69
(g90
g71
NtRp2908
(dp2909
g74
(dp2910
g94
g95
ssg83
g2904
sg76
(lp2911
S'SERVER_PROTOCOL'
p2912
asbag69
(g90
g71
NtRp2913
(dp2914
g74
(dp2915
g101
g102
ssg83
g2904
sg76
(lp2916
S':'
asbag69
(g90
g71
NtRp2917
(dp2918
g74
(dp2919
sg83
g2904
sg76
(lp2920
g69
(g70
g71
NtRp2921
(dp2922
g74
(dp2923
g82
I3
ssg83
g2917
sg76
(lp2924
g1393
asbasbasbag69
(g85
g71
NtRp2925
(dp2926
g74
(dp2927
sg83
g2543
sg76
(lp2928
g69
(g90
g71
NtRp2929
(dp2930
g74
(dp2931
g94
g95
ssg83
g2925
sg76
(lp2932
S'SERVER_SOFTWARE'
p2933
asbag69
(g90
g71
NtRp2934
(dp2935
g74
(dp2936
g101
g102
ssg83
g2925
sg76
(lp2937
S':'
asbag69
(g90
g71
NtRp2938
(dp2939
g74
(dp2940
sg83
g2925
sg76
(lp2941
g69
(g70
g71
NtRp2942
(dp2943
g74
(dp2944
g82
I3
ssg83
g2938
sg76
(lp2945
g1415
asbasbasbag69
(g85
g71
NtRp2946
(dp2947
g74
(dp2948
sg83
g2543
sg76
(lp2949
g69
(g90
g71
NtRp2950
(dp2951
g74
(dp2952
g94
g95
ssg83
g2946
sg76
(lp2953
S'WEB2PY_ORIGINAL_URI'
p2954
asbag69
(g90
g71
NtRp2955
(dp2956
g74
(dp2957
g101
g102
ssg83
g2946
sg76
(lp2958
S':'
asbag69
(g90
g71
NtRp2959
(dp2960
g74
(dp2961
sg83
g2946
sg76
(lp2962
g69
(g70
g71
NtRp2963
(dp2964
g74
(dp2965
g82
I3
ssg83
g2959
sg76
(lp2966
S'/'
asbasbasbag69
(g85
g71
NtRp2967
(dp2968
g74
(dp2969
sg83
g2543
sg76
(lp2970
g69
(g90
g71
NtRp2971
(dp2972
g74
(dp2973
g94
g95
ssg83
g2967
sg76
(lp2974
S'wsgi.errors'
p2975
asbag69
(g90
g71
NtRp2976
(dp2977
g74
(dp2978
g101
g102
ssg83
g2967
sg76
(lp2979
S':'
asbag69
(g90
g71
NtRp2980
(dp2981
g74
(dp2982
sg83
g2967
sg76
(lp2983
g69
(g70
g71
NtRp2984
(dp2985
g74
(dp2986
g82
I3
ssg83
g2980
sg76
(lp2987
S"<open file '<stderr>', mode 'w' at 0x0000000001CB71E0>"
p2988
asbasbasbag69
(g85
g71
NtRp2989
(dp2990
g74
(dp2991
sg83
g2543
sg76
(lp2992
g69
(g90
g71
NtRp2993
(dp2994
g74
(dp2995
g94
g95
ssg83
g2989
sg76
(lp2996
S'wsgi.file_wrapper'
p2997
asbag69
(g90
g71
NtRp2998
(dp2999
g74
(dp3000
g101
g102
ssg83
g2989
sg76
(lp3001
S':'
asbag69
(g90
g71
NtRp3002
(dp3003
g74
(dp3004
sg83
g2989
sg76
(lp3005
g69
(g70
g71
NtRp3006
(dp3007
g74
(dp3008
g82
I3
ssg83
g3002
sg76
(lp3009
S'<class wsgiref.util.FileWrapper at 0x000000000335E7C8>'
p3010
asbasbasbag69
(g85
g71
NtRp3011
(dp3012
g74
(dp3013
sg83
g2543
sg76
(lp3014
g69
(g90
g71
NtRp3015
(dp3016
g74
(dp3017
g94
g95
ssg83
g3011
sg76
(lp3018
S'wsgi.input'
p3019
asbag69
(g90
g71
NtRp3020
(dp3021
g74
(dp3022
g101
g102
ssg83
g3011
sg76
(lp3023
S':'
asbag69
(g90
g71
NtRp3024
(dp3025
g74
(dp3026
sg83
g3011
sg76
(lp3027
g69
(g70
g71
NtRp3028
(dp3029
g74
(dp3030
g82
I3
ssg83
g3024
sg76
(lp3031
S'<cStringIO.StringO object at 0x0000000007EF7928>'
p3032
asbasbasbag69
(g85
g71
NtRp3033
(dp3034
g74
(dp3035
sg83
g2543
sg76
(lp3036
g69
(g90
g71
NtRp3037
(dp3038
g74
(dp3039
g94
g95
ssg83
g3033
sg76
(lp3040
S'wsgi.multiprocess'
p3041
asbag69
(g90
g71
NtRp3042
(dp3043
g74
(dp3044
g101
g102
ssg83
g3033
sg76
(lp3045
S':'
asbag69
(g90
g71
NtRp3046
(dp3047
g74
(dp3048
sg83
g3033
sg76
(lp3049
g69
(g70
g71
NtRp3050
(dp3051
g74
(dp3052
g82
I3
ssg83
g3046
sg76
(lp3053
g112
asbasbasbag69
(g85
g71
NtRp3054
(dp3055
g74
(dp3056
sg83
g2543
sg76
(lp3057
g69
(g90
g71
NtRp3058
(dp3059
g74
(dp3060
g94
g95
ssg83
g3054
sg76
(lp3061
S'wsgi.multithread'
p3062
asbag69
(g90
g71
NtRp3063
(dp3064
g74
(dp3065
g101
g102
ssg83
g3054
sg76
(lp3066
S':'
asbag69
(g90
g71
NtRp3067
(dp3068
g74
(dp3069
sg83
g3054
sg76
(lp3070
g69
(g70
g71
NtRp3071
(dp3072
g74
(dp3073
g82
I3
ssg83
g3067
sg76
(lp3074
g1653
asbasbasbag69
(g85
g71
NtRp3075
(dp3076
g74
(dp3077
sg83
g2543
sg76
(lp3078
g69
(g90
g71
NtRp3079
(dp3080
g74
(dp3081
g94
g95
ssg83
g3075
sg76
(lp3082
S'wsgi.run_once'
p3083
asbag69
(g90
g71
NtRp3084
(dp3085
g74
(dp3086
g101
g102
ssg83
g3075
sg76
(lp3087
S':'
asbag69
(g90
g71
NtRp3088
(dp3089
g74
(dp3090
sg83
g3075
sg76
(lp3091
g69
(g70
g71
NtRp3092
(dp3093
g74
(dp3094
g82
I3
ssg83
g3088
sg76
(lp3095
g112
asbasbasbag69
(g85
g71
NtRp3096
(dp3097
g74
(dp3098
sg83
g2543
sg76
(lp3099
g69
(g90
g71
NtRp3100
(dp3101
g74
(dp3102
g94
g95
ssg83
g3096
sg76
(lp3103
S'wsgi.url_scheme'
p3104
asbag69
(g90
g71
NtRp3105
(dp3106
g74
(dp3107
g101
g102
ssg83
g3096
sg76
(lp3108
S':'
asbag69
(g90
g71
NtRp3109
(dp3110
g74
(dp3111
sg83
g3096
sg76
(lp3112
g69
(g70
g71
NtRp3113
(dp3114
g74
(dp3115
g82
I3
ssg83
g3109
sg76
(lp3116
g1696
asbasbasbag69
(g85
g71
NtRp3117
(dp3118
g74
(dp3119
sg83
g2543
sg76
(lp3120
g69
(g90
g71
NtRp3121
(dp3122
g74
(dp3123
g94
g95
ssg83
g3117
sg76
(lp3124
S'wsgi.version'
p3125
asbag69
(g90
g71
NtRp3126
(dp3127
g74
(dp3128
g101
g102
ssg83
g3117
sg76
(lp3129
S':'
asbag69
(g90
g71
NtRp3130
(dp3131
g74
(dp3132
sg83
g3117
sg76
(lp3133
g69
(g70
g71
NtRp3134
(dp3135
g74
(dp3136
g82
I3
ssg83
g3130
sg76
(lp3137
S'1'
asbasbasbasbasbasbasbasbasbasbasbasbasbsS'frames'
p3138
(lp3139
(dp3140
S'file'
p3141
S'C:\\Users\\Juliano\\Documents\\Visual Studio 2012\\Projects\\PFM-Web\\gluon\\restricted.py'
p3142
sS'dump'
p3143
(dp3144
S'environment'
p3145
S"{'A': <class 'gluon.html.A'>, 'Auth': <class 'gluon.tools.Auth'>, 'B': <class 'gluon.html.B'>, 'BEAUTIFY': <class 'gluon.html.BEAUTIFY'>, 'BODY': <class 'gluon.html.BODY'>, 'BR': <class 'gluon.html.BR'>, 'BUTTON': <class 'gluon.html.BUTTON'>, 'CAT': <class 'gluon.html.CAT'>, 'CENTER': <class 'gluon.html.CENTER'>, 'CLEANUP': <class 'gluon.validators.CLEANUP'>, ...}"
p3146
sS'ccode'
p3147
S'<code object <module> at 0000000007F0DCB0, file ...-Web\\applications\\PFM_Web\\models\\db.py", line 12>'
p3148
ssS'lnum'
p3149
I212
sS'lines'
p3150
(dp3151
I207
S'    try:'
p3152
sI208
S'        if isinstance(code, types.CodeType):'
p3153
sI209
S'            ccode = code'
p3154
sI210
S'        else:'
p3155
sI211
S'            ccode = compile2(code, layer)'
p3156
sI212
S'        exec ccode in environment'
p3157
sI213
S'    except HTTP:'
p3158
sI214
S'        raise'
p3159
sI215
S'    except RestrictedError:'
p3160
sI216
S'        # do not encapsulate (obfuscate) the original RestrictedError'
p3161
ssS'call'
p3162
S"(code='# -*- coding: utf-8 -*-\\n\\n#######################...ble auditing\\n# auth.enable_record_versioning(db)\\n', environment={'A': <class 'gluon.html.A'>, 'Auth': <class 'gluon.tools.Auth'>, 'B': <class 'gluon.html.B'>, 'BEAUTIFY': <class 'gluon.html.BEAUTIFY'>, 'BODY': <class 'gluon.html.BODY'>, 'BR': <class 'gluon.html.BR'>, 'BUTTON': <class 'gluon.html.BUTTON'>, 'CAT': <class 'gluon.html.CAT'>, 'CENTER': <class 'gluon.html.CENTER'>, 'CLEANUP': <class 'gluon.validators.CLEANUP'>, ...}, layer=r'C:\\Users\\Juliano\\Documents\\Visual Studio 2012\\Projects\\PFM-Web\\applications\\PFM_Web\\models\\db.py')"
p3163
sS'func'
p3164
S'restricted'
p3165
sa(dp3166
g3141
S'C:\\Users\\Juliano\\Documents\\Visual Studio 2012\\Projects\\PFM-Web\\applications\\PFM_Web\\models\\db.py'
p3167
sg3143
(dp3168
S'builtinformat'
p3169
S'<built-in function format>'
p3170
ssg3149
I103
sg3150
(dp3171
I98
S"    Field('methodOfPayment', 'reference methodOfPayment'),"
p3172
sI99
S"    Field('value', 'double'),"
p3173
sI100
S"    Field('dueTo', 'date'),"
p3174
sI101
S"    Field('parcels', 'integer'),"
p3175
sI102
S"    Field('receipt', 'upload'),"
p3176
sI103
S"    format='%(name)s')"
p3177
sI104
S''
sI105
S''
sI106
S'## after defining tables, uncomment below to enable auditing'
p3178
sI107
S'# auth.enable_record_versioning(db)'
p3179
ssg3162
S'()'
p3180
sg3164
S'<module>'
p3181
sa(dp3182
g3141
S'C:\\Users\\Juliano\\Documents\\Visual Studio 2012\\Projects\\PFM-Web\\gluon\\dal.py'
p3183
sg3143
(dp3184
S'fields'
p3185
S'(<gluon.dal.Field object>, <gluon.dal.Field object>, <gluon.dal.Field object>, <gluon.dal.Field object>, <gluon.dal.Field object>, <gluon.dal.Field object>, <gluon.dal.Field object>, <gluon.dal.Field object>)'
p3186
sS'self'
p3187
S'<DAL uri="sqlite://storage.sqlite">'
p3188
sS'args'
p3189
S"{'format': '%(name)s'}"
p3190
sS'tablename'
p3191
S"'expense'"
p3192
sS'table'
p3193
S'undefined'
p3194
sS'self.lazy_define_table'
p3195
S'<bound method DAL.lazy_define_table of <DAL uri="sqlite://storage.sqlite">>'
p3196
ssg3149
I7186
sg3150
(dp3197
I7181
S'                    % (tablename,invalid_args))'
p3198
sI7182
S'        if self._lazy_tables and not tablename in self._LAZY_TABLES:'
p3199
sI7183
S'            self._LAZY_TABLES[tablename] = (tablename,fields,args)'
p3200
sI7184
S'            table = None'
p3201
sI7185
S'        else:'
p3202
sI7186
S'            table = self.lazy_define_table(tablename,*fields,**args)'
p3203
sI7187
S'        if not tablename in self.tables:'
p3204
sI7188
S'            self.tables.append(tablename)'
p3205
sI7189
S'        return table'
p3206
sI7190
S''
ssg3162
S'(self=<DAL uri="sqlite://storage.sqlite">, tablename=\'expense\', *fields=(<gluon.dal.Field object>, <gluon.dal.Field object>, <gluon.dal.Field object>, <gluon.dal.Field object>, <gluon.dal.Field object>, <gluon.dal.Field object>, <gluon.dal.Field object>, <gluon.dal.Field object>), **args={\'format\': \'%(name)s\'})'
p3207
sg3164
S'define_table'
p3208
sa(dp3209
g3141
S'C:\\Users\\Juliano\\Documents\\Visual Studio 2012\\Projects\\PFM-Web\\gluon\\dal.py'
p3210
sg3143
(dp3211
S'fields'
p3212
S'(<gluon.dal.Field object>, <gluon.dal.Field object>, <gluon.dal.Field object>, <gluon.dal.Field object>, <gluon.dal.Field object>, <gluon.dal.Field object>, <gluon.dal.Field object>, <gluon.dal.Field object>)'
p3213
sS'self'
p3214
S'<DAL uri="sqlite://storage.sqlite">'
p3215
sS'args'
p3216
S"{'format': '%(name)s'}"
p3217
sS'tablename'
p3218
S"'expense'"
p3219
sS'table_class'
p3220
S"<class 'gluon.dal.Table'>"
p3221
sS'table'
p3222
g3194
ssg3149
I7203
sg3150
(dp3223
I7200
S'            fields = list(fields) + list(common_fields)'
p3224
sI7201
S''
sI7202
S"        table_class = args_get('table_class',Table)"
p3225
sI7203
S'        table = table_class(self, tablename, *fields, **args)'
p3226
sI7204
S'        table._actual = True'
p3227
sI7205
S'        self[tablename] = table'
p3228
sI7206
S'        # must follow above line to handle self references'
p3229
sI7207
S'        table._create_references()'
p3230
sI7198
S'        common_fields = self._common_fields'
p3231
sI7199
S'        if common_fields:'
p3232
ssg3162
S'(self=<DAL uri="sqlite://storage.sqlite">, tablename=\'expense\', *fields=(<gluon.dal.Field object>, <gluon.dal.Field object>, <gluon.dal.Field object>, <gluon.dal.Field object>, <gluon.dal.Field object>, <gluon.dal.Field object>, <gluon.dal.Field object>, <gluon.dal.Field object>), **args={\'format\': \'%(name)s\'})'
p3233
sg3164
S'lazy_define_table'
p3234
sa(dp3235
g3141
S'C:\\Users\\Juliano\\Documents\\Visual Studio 2012\\Projects\\PFM-Web\\gluon\\dal.py'
p3236
sg3143
(dp3237
S'field_name'
p3238
S"'value'"
p3239
sS'db.check_reserved_keyword'
p3240
S'<bound method DAL.check_reserved_keyword of <DAL uri="sqlite://storage.sqlite">>'
p3241
sS'db'
p3242
S'<DAL uri="sqlite://storage.sqlite">'
p3243
ssg3149
I7609
sg3150
(dp3244
I7604
S'        lower_fieldnames = set()'
p3245
sI7605
S"        reserved = dir(Table) + ['fields']"
p3246
sI7606
S'        for field in fields:'
p3247
sI7607
S'            field_name = field.name'
p3248
sI7608
S'            if db and db.check_reserved:'
p3249
sI7609
S'                db.check_reserved_keyword(field_name)'
p3250
sI7610
S'            elif field_name in reserved:'
p3251
sI7611
S'                raise SyntaxError("field name %s not allowed" % field_name)'
p3252
sI7612
S''
sI7613
S'            if field_name.lower() in lower_fieldnames:'
p3253
ssg3162
S'(self=<Table expense (id,name,description,categories,methodOfPayment)>, db=<DAL uri="sqlite://storage.sqlite">, tablename=\'expense\', *fields=[<gluon.dal.Field object>, <gluon.dal.Field object>, <gluon.dal.Field object>, <gluon.dal.Field object>, <gluon.dal.Field object>, <gluon.dal.Field object>, <gluon.dal.Field object>, <gluon.dal.Field object>, <gluon.dal.Field object>], **args={\'format\': \'%(name)s\'})'
p3254
sg3164
g24
sa(dp3255
g3141
S'C:\\Users\\Juliano\\Documents\\Visual Studio 2012\\Projects\\PFM-Web\\gluon\\dal.py'
p3256
sg3143
(dp3257
S'backend.upper'
p3258
S'<built-in method upper of str object>'
p3259
sS'name'
p3260
S"'value'"
p3261
sS'backend'
p3262
S"'all'"
p3263
ssg3149
I6930
sg3150
(dp3264
I6925
S"        ['all']"
p3265
sI6926
S'        """'
p3266
sI6927
S'        for backend in self.check_reserved:'
p3267
sI6928
S'            if name.upper() in self.RSK[backend]:'
p3268
sI6929
S'                raise SyntaxError('
p3269
sI6930
S'                    \'invalid table/column name "%s" is a "%s" reserved SQL keyword\' % (name, backend.upper()))'
p3270
sI6931
S''
sI6932
S'    def parse_as_rest(self,patterns,args,vars,queries=None,nested_select=True):'
p3271
sI6933
S'        """'
p3272
sI6934
S'        EXAMPLE:'
p3273
ssg3162
S'(self=<DAL uri="sqlite://storage.sqlite">, name=\'value\')'
p3274
sg3164
S'check_reserved_keyword'
p3275
sasS'pyver'
p3276
S'Python 2.7.3: C:\\Python27\\python.exe'
p3277
sS'session'
p3278
g69
(g70
g71
NtRp3279
(dp3280
g74
(dp3281
sg76
(lp3282
g69
(g78
g71
NtRp3283
(dp3284
g74
(dp3285
g82
I5
ssg83
Nsg76
(lp3286
sbasbsS'etype'
p3287
S"<type 'exceptions.SyntaxError'>"
p3288
sS'date'
p3289
S'Sat Feb 23 15:55:45 2013'
p3290
sS'response'
p3291
g69
(g70
g71
NtRp3292
(dp3293
g74
(dp3294
sg76
(lp3295
g69
(g78
g71
NtRp3296
(dp3297
g74
(dp3298
g82
I5
ssg83
Nsg76
(lp3299
g69
(g85
g71
NtRp3300
(dp3301
g74
(dp3302
sg83
g3296
sg76
(lp3303
g69
(g90
g71
NtRp3304
(dp3305
g74
(dp3306
g94
g95
ssg83
g3300
sg76
(lp3307
g167
asbag69
(g90
g71
NtRp3308
(dp3309
g74
(dp3310
g101
g102
ssg83
g3300
sg76
(lp3311
S':'
asbag69
(g90
g71
NtRp3312
(dp3313
g74
(dp3314
sg83
g3300
sg76
(lp3315
g69
(g70
g71
NtRp3316
(dp3317
g74
(dp3318
g82
I5
ssg83
g3312
sg76
(lp3319
S'<cStringIO.StringO object at 0x0000000004F41928>'
p3320
asbasbasbag69
(g85
g71
NtRp3321
(dp3322
g74
(dp3323
sg83
g3296
sg76
(lp3324
g69
(g90
g71
NtRp3325
(dp3326
g74
(dp3327
g94
g95
ssg83
g3321
sg76
(lp3328
g255
asbag69
(g90
g71
NtRp3329
(dp3330
g74
(dp3331
g101
g102
ssg83
g3321
sg76
(lp3332
S':'
asbag69
(g90
g71
NtRp3333
(dp3334
g74
(dp3335
sg83
g3321
sg76
(lp3336
g69
(g70
g71
NtRp3337
(dp3338
g74
(dp3339
g82
I5
ssg83
g3333
sg76
(lp3340
g69
(g78
g71
NtRp3341
(dp3342
g74
(dp3343
g82
I4
ssg83
Nsg76
(lp3344
g69
(g85
g71
NtRp3345
(dp3346
g74
(dp3347
sg83
g3341
sg76
(lp3348
g69
(g90
g71
NtRp3349
(dp3350
g74
(dp3351
g94
g95
ssg83
g3345
sg76
(lp3352
S'session_id_pfm_web'
p3353
asbag69
(g90
g71
NtRp3354
(dp3355
g74
(dp3356
g101
g102
ssg83
g3345
sg76
(lp3357
S':'
asbag69
(g90
g71
NtRp3358
(dp3359
g74
(dp3360
sg83
g3345
sg76
(lp3361
g69
(g70
g71
NtRp3362
(dp3363
g74
(dp3364
g82
I4
ssg83
g3358
sg76
(lp3365
g487
ag69
(g78
g71
NtRp3366
(dp3367
g74
(dp3368
g82
I3
ssg83
Nsg76
(lp3369
g69
(g85
g71
NtRp3370
(dp3371
g74
(dp3372
sg83
g3366
sg76
(lp3373
g69
(g90
g71
NtRp3374
(dp3375
g74
(dp3376
g94
g95
ssg83
g3370
sg76
(lp3377
g306
asbag69
(g90
g71
NtRp3378
(dp3379
g74
(dp3380
g101
g102
ssg83
g3370
sg76
(lp3381
S':'
asbag69
(g90
g71
NtRp3382
(dp3383
g74
(dp3384
sg83
g3370
sg76
(lp3385
g69
(g70
g71
NtRp3386
(dp3387
g74
(dp3388
g82
I3
ssg83
g3382
sg76
(lp3389
S''
asbasbasbag69
(g85
g71
NtRp3390
(dp3391
g74
(dp3392
sg83
g3366
sg76
(lp3393
g69
(g90
g71
NtRp3394
(dp3395
g74
(dp3396
g94
g95
ssg83
g3390
sg76
(lp3397
g327
asbag69
(g90
g71
NtRp3398
(dp3399
g74
(dp3400
g101
g102
ssg83
g3390
sg76
(lp3401
S':'
asbag69
(g90
g71
NtRp3402
(dp3403
g74
(dp3404
sg83
g3390
sg76
(lp3405
g69
(g70
g71
NtRp3406
(dp3407
g74
(dp3408
g82
I3
ssg83
g3402
sg76
(lp3409
S''
asbasbasbag69
(g85
g71
NtRp3410
(dp3411
g74
(dp3412
sg83
g3366
sg76
(lp3413
g69
(g90
g71
NtRp3414
(dp3415
g74
(dp3416
g94
g95
ssg83
g3410
sg76
(lp3417
g348
asbag69
(g90
g71
NtRp3418
(dp3419
g74
(dp3420
g101
g102
ssg83
g3410
sg76
(lp3421
S':'
asbag69
(g90
g71
NtRp3422
(dp3423
g74
(dp3424
sg83
g3410
sg76
(lp3425
g69
(g70
g71
NtRp3426
(dp3427
g74
(dp3428
g82
I3
ssg83
g3422
sg76
(lp3429
S''
asbasbasbag69
(g85
g71
NtRp3430
(dp3431
g74
(dp3432
sg83
g3366
sg76
(lp3433
g69
(g90
g71
NtRp3434
(dp3435
g74
(dp3436
g94
g95
ssg83
g3430
sg76
(lp3437
g369
asbag69
(g90
g71
NtRp3438
(dp3439
g74
(dp3440
g101
g102
ssg83
g3430
sg76
(lp3441
S':'
asbag69
(g90
g71
NtRp3442
(dp3443
g74
(dp3444
sg83
g3430
sg76
(lp3445
g69
(g70
g71
NtRp3446
(dp3447
g74
(dp3448
g82
I3
ssg83
g3442
sg76
(lp3449
S''
asbasbasbag69
(g85
g71
NtRp3450
(dp3451
g74
(dp3452
sg83
g3366
sg76
(lp3453
g69
(g90
g71
NtRp3454
(dp3455
g74
(dp3456
g94
g95
ssg83
g3450
sg76
(lp3457
g390
asbag69
(g90
g71
NtRp3458
(dp3459
g74
(dp3460
g101
g102
ssg83
g3450
sg76
(lp3461
S':'
asbag69
(g90
g71
NtRp3462
(dp3463
g74
(dp3464
sg83
g3450
sg76
(lp3465
g69
(g70
g71
NtRp3466
(dp3467
g74
(dp3468
g82
I3
ssg83
g3462
sg76
(lp3469
S''
asbasbasbag69
(g85
g71
NtRp3470
(dp3471
g74
(dp3472
sg83
g3366
sg76
(lp3473
g69
(g90
g71
NtRp3474
(dp3475
g74
(dp3476
g94
g95
ssg83
g3470
sg76
(lp3477
g411
asbag69
(g90
g71
NtRp3478
(dp3479
g74
(dp3480
g101
g102
ssg83
g3470
sg76
(lp3481
S':'
asbag69
(g90
g71
NtRp3482
(dp3483
g74
(dp3484
sg83
g3470
sg76
(lp3485
g69
(g70
g71
NtRp3486
(dp3487
g74
(dp3488
g82
I3
ssg83
g3482
sg76
(lp3489
S'/'
asbasbasbag69
(g85
g71
NtRp3490
(dp3491
g74
(dp3492
sg83
g3366
sg76
(lp3493
g69
(g90
g71
NtRp3494
(dp3495
g74
(dp3496
g94
g95
ssg83
g3490
sg76
(lp3497
g432
asbag69
(g90
g71
NtRp3498
(dp3499
g74
(dp3500
g101
g102
ssg83
g3490
sg76
(lp3501
S':'
asbag69
(g90
g71
NtRp3502
(dp3503
g74
(dp3504
sg83
g3490
sg76
(lp3505
g69
(g70
g71
NtRp3506
(dp3507
g74
(dp3508
g82
I3
ssg83
g3502
sg76
(lp3509
S''
asbasbasbag69
(g85
g71
NtRp3510
(dp3511
g74
(dp3512
sg83
g3366
sg76
(lp3513
g69
(g90
g71
NtRp3514
(dp3515
g74
(dp3516
g94
g95
ssg83
g3510
sg76
(lp3517
g453
asbag69
(g90
g71
NtRp3518
(dp3519
g74
(dp3520
g101
g102
ssg83
g3510
sg76
(lp3521
S':'
asbag69
(g90
g71
NtRp3522
(dp3523
g74
(dp3524
sg83
g3510
sg76
(lp3525
g69
(g70
g71
NtRp3526
(dp3527
g74
(dp3528
g82
I3
ssg83
g3522
sg76
(lp3529
S''
asbasbasbasbasbasbasbasbasbasbasbag69
(g85
g71
NtRp3530
(dp3531
g74
(dp3532
sg83
g3296
sg76
(lp3533
g69
(g90
g71
NtRp3534
(dp3535
g74
(dp3536
g94
g95
ssg83
g3530
sg76
(lp3537
S'delimiters'
p3538
asbag69
(g90
g71
NtRp3539
(dp3540
g74
(dp3541
g101
g102
ssg83
g3530
sg76
(lp3542
S':'
asbag69
(g90
g71
NtRp3543
(dp3544
g74
(dp3545
sg83
g3530
sg76
(lp3546
g69
(g70
g71
NtRp3547
(dp3548
g74
(dp3549
g82
I5
ssg83
g3543
sg76
(lp3550
g69
(g78
g71
NtRp3551
(dp3552
g74
(dp3553
g82
I4
ssg83
Nsg76
(lp3554
g69
(g85
g71
NtRp3555
(dp3556
g74
(dp3557
sg83
g3551
sg76
(lp3558
g69
(g90
g71
NtRp3559
(dp3560
g74
(dp3561
sg83
g3555
sg76
(lp3562
g69
(g70
g71
NtRp3563
(dp3564
g74
(dp3565
g82
I4
ssg83
g3559
sg76
(lp3566
S'{{'
p3567
asbasbasbag69
(g85
g71
NtRp3568
(dp3569
g74
(dp3570
sg83
g3551
sg76
(lp3571
g69
(g90
g71
NtRp3572
(dp3573
g74
(dp3574
sg83
g3568
sg76
(lp3575
g69
(g70
g71
NtRp3576
(dp3577
g74
(dp3578
g82
I4
ssg83
g3572
sg76
(lp3579
S'}}'
p3580
asbasbasbasbasbasbasbag69
(g85
g71
NtRp3581
(dp3582
g74
(dp3583
sg83
g3296
sg76
(lp3584
g69
(g90
g71
NtRp3585
(dp3586
g74
(dp3587
g94
g95
ssg83
g3581
sg76
(lp3588
S'files'
p3589
asbag69
(g90
g71
NtRp3590
(dp3591
g74
(dp3592
g101
g102
ssg83
g3581
sg76
(lp3593
S':'
asbag69
(g90
g71
NtRp3594
(dp3595
g74
(dp3596
sg83
g3581
sg76
(lp3597
g69
(g70
g71
NtRp3598
(dp3599
g74
(dp3600
g82
I5
ssg83
g3594
sg76
(lp3601
g69
(g78
g71
NtRp3602
(dp3603
g74
(dp3604
g82
I4
ssg83
Nsg76
(lp3605
sbasbasbasbag69
(g85
g71
NtRp3606
(dp3607
g74
(dp3608
sg83
g3296
sg76
(lp3609
g69
(g90
g71
NtRp3610
(dp3611
g74
(dp3612
g94
g95
ssg83
g3606
sg76
(lp3613
S'flash'
p3614
asbag69
(g90
g71
NtRp3615
(dp3616
g74
(dp3617
g101
g102
ssg83
g3606
sg76
(lp3618
S':'
asbag69
(g90
g71
NtRp3619
(dp3620
g74
(dp3621
sg83
g3606
sg76
(lp3622
g69
(g70
g71
NtRp3623
(dp3624
g74
(dp3625
g82
I5
ssg83
g3619
sg76
(lp3626
S''
asbasbasbag69
(g85
g71
NtRp3627
(dp3628
g74
(dp3629
sg83
g3296
sg76
(lp3630
g69
(g90
g71
NtRp3631
(dp3632
g74
(dp3633
g94
g95
ssg83
g3627
sg76
(lp3634
S'generic_patterns'
p3635
asbag69
(g90
g71
NtRp3636
(dp3637
g74
(dp3638
g101
g102
ssg83
g3627
sg76
(lp3639
S':'
asbag69
(g90
g71
NtRp3640
(dp3641
g74
(dp3642
sg83
g3627
sg76
(lp3643
g69
(g70
g71
NtRp3644
(dp3645
g74
(dp3646
g82
I5
ssg83
g3640
sg76
(lp3647
g69
(g78
g71
NtRp3648
(dp3649
g74
(dp3650
g82
I4
ssg83
Nsg76
(lp3651
g69
(g85
g71
NtRp3652
(dp3653
g74
(dp3654
sg83
g3648
sg76
(lp3655
g69
(g90
g71
NtRp3656
(dp3657
g74
(dp3658
sg83
g3652
sg76
(lp3659
g69
(g70
g71
NtRp3660
(dp3661
g74
(dp3662
g82
I4
ssg83
g3656
sg76
(lp3663
S'*'
asbasbasbasbasbasbasbag69
(g85
g71
NtRp3664
(dp3665
g74
(dp3666
sg83
g3296
sg76
(lp3667
g69
(g90
g71
NtRp3668
(dp3669
g74
(dp3670
g94
g95
ssg83
g3664
sg76
(lp3671
S'headers'
p3672
asbag69
(g90
g71
NtRp3673
(dp3674
g74
(dp3675
g101
g102
ssg83
g3664
sg76
(lp3676
S':'
asbag69
(g90
g71
NtRp3677
(dp3678
g74
(dp3679
sg83
g3664
sg76
(lp3680
g69
(g70
g71
NtRp3681
(dp3682
g74
(dp3683
g82
I5
ssg83
g3677
sg76
(lp3684
g69
(g78
g71
NtRp3685
(dp3686
g74
(dp3687
g82
I4
ssg83
Nsg76
(lp3688
g69
(g85
g71
NtRp3689
(dp3690
g74
(dp3691
sg83
g3685
sg76
(lp3692
g69
(g90
g71
NtRp3693
(dp3694
g74
(dp3695
g94
g95
ssg83
g3689
sg76
(lp3696
S'X-Powered-By'
p3697
asbag69
(g90
g71
NtRp3698
(dp3699
g74
(dp3700
g101
g102
ssg83
g3689
sg76
(lp3701
S':'
asbag69
(g90
g71
NtRp3702
(dp3703
g74
(dp3704
sg83
g3689
sg76
(lp3705
g69
(g70
g71
NtRp3706
(dp3707
g74
(dp3708
g82
I4
ssg83
g3702
sg76
(lp3709
S'web2py'
p3710
asbasbasbasbasbasbasbag69
(g85
g71
NtRp3711
(dp3712
g74
(dp3713
sg83
g3296
sg76
(lp3714
g69
(g90
g71
NtRp3715
(dp3716
g74
(dp3717
g94
g95
ssg83
g3711
sg76
(lp3718
S'menu'
p3719
asbag69
(g90
g71
NtRp3720
(dp3721
g74
(dp3722
g101
g102
ssg83
g3711
sg76
(lp3723
S':'
asbag69
(g90
g71
NtRp3724
(dp3725
g74
(dp3726
sg83
g3711
sg76
(lp3727
g69
(g70
g71
NtRp3728
(dp3729
g74
(dp3730
g82
I5
ssg83
g3724
sg76
(lp3731
g69
(g78
g71
NtRp3732
(dp3733
g74
(dp3734
g82
I4
ssg83
Nsg76
(lp3735
sbasbasbasbag69
(g85
g71
NtRp3736
(dp3737
g74
(dp3738
sg83
g3296
sg76
(lp3739
g69
(g90
g71
NtRp3740
(dp3741
g74
(dp3742
g94
g95
ssg83
g3736
sg76
(lp3743
S'meta'
p3744
asbag69
(g90
g71
NtRp3745
(dp3746
g74
(dp3747
g101
g102
ssg83
g3736
sg76
(lp3748
S':'
asbag69
(g90
g71
NtRp3749
(dp3750
g74
(dp3751
sg83
g3736
sg76
(lp3752
g69
(g70
g71
NtRp3753
(dp3754
g74
(dp3755
g82
I5
ssg83
g3749
sg76
(lp3756
g69
(g78
g71
NtRp3757
(dp3758
g74
(dp3759
g82
I4
ssg83
Nsg76
(lp3760
sbasbasbasbag69
(g85
g71
NtRp3761
(dp3762
g74
(dp3763
sg83
g3296
sg76
(lp3764
g69
(g90
g71
NtRp3765
(dp3766
g74
(dp3767
g94
g95
ssg83
g3761
sg76
(lp3768
S'models_to_run'
p3769
asbag69
(g90
g71
NtRp3770
(dp3771
g74
(dp3772
g101
g102
ssg83
g3761
sg76
(lp3773
S':'
asbag69
(g90
g71
NtRp3774
(dp3775
g74
(dp3776
sg83
g3761
sg76
(lp3777
g69
(g70
g71
NtRp3778
(dp3779
g74
(dp3780
g82
I5
ssg83
g3774
sg76
(lp3781
g69
(g78
g71
NtRp3782
(dp3783
g74
(dp3784
g82
I4
ssg83
Nsg76
(lp3785
g69
(g85
g71
NtRp3786
(dp3787
g74
(dp3788
sg83
g3782
sg76
(lp3789
g69
(g90
g71
NtRp3790
(dp3791
g74
(dp3792
sg83
g3786
sg76
(lp3793
g69
(g70
g71
NtRp3794
(dp3795
g74
(dp3796
g82
I4
ssg83
g3790
sg76
(lp3797
S'^\\w+\\.py$'
p3798
asbasbasbag69
(g85
g71
NtRp3799
(dp3800
g74
(dp3801
sg83
g3782
sg76
(lp3802
g69
(g90
g71
NtRp3803
(dp3804
g74
(dp3805
sg83
g3799
sg76
(lp3806
g69
(g70
g71
NtRp3807
(dp3808
g74
(dp3809
g82
I4
ssg83
g3803
sg76
(lp3810
S'^default/\\w+\\.py$'
p3811
asbasbasbag69
(g85
g71
NtRp3812
(dp3813
g74
(dp3814
sg83
g3782
sg76
(lp3815
g69
(g90
g71
NtRp3816
(dp3817
g74
(dp3818
sg83
g3812
sg76
(lp3819
g69
(g70
g71
NtRp3820
(dp3821
g74
(dp3822
g82
I4
ssg83
g3816
sg76
(lp3823
S'^default/index/\\w+\\.py$'
p3824
asbasbasbasbasbasbasbag69
(g85
g71
NtRp3825
(dp3826
g74
(dp3827
sg83
g3296
sg76
(lp3828
g69
(g90
g71
NtRp3829
(dp3830
g74
(dp3831
g94
g95
ssg83
g3825
sg76
(lp3832
S'postprocessing'
p3833
asbag69
(g90
g71
NtRp3834
(dp3835
g74
(dp3836
g101
g102
ssg83
g3825
sg76
(lp3837
S':'
asbag69
(g90
g71
NtRp3838
(dp3839
g74
(dp3840
sg83
g3825
sg76
(lp3841
g69
(g70
g71
NtRp3842
(dp3843
g74
(dp3844
g82
I5
ssg83
g3838
sg76
(lp3845
g69
(g78
g71
NtRp3846
(dp3847
g74
(dp3848
g82
I4
ssg83
Nsg76
(lp3849
sbasbasbasbag69
(g85
g71
NtRp3850
(dp3851
g74
(dp3852
sg83
g3296
sg76
(lp3853
g69
(g90
g71
NtRp3854
(dp3855
g74
(dp3856
g94
g95
ssg83
g3850
sg76
(lp3857
S'session_cookie_expires'
p3858
asbag69
(g90
g71
NtRp3859
(dp3860
g74
(dp3861
g101
g102
ssg83
g3850
sg76
(lp3862
S':'
asbag69
(g90
g71
NtRp3863
(dp3864
g74
(dp3865
sg83
g3850
sg76
(lp3866
g69
(g70
g71
NtRp3867
(dp3868
g74
(dp3869
g82
I5
ssg83
g3863
sg76
(lp3870
S'None'
p3871
asbasbasbag69
(g85
g71
NtRp3872
(dp3873
g74
(dp3874
sg83
g3296
sg76
(lp3875
g69
(g90
g71
NtRp3876
(dp3877
g74
(dp3878
g94
g95
ssg83
g3872
sg76
(lp3879
S'session_data_name'
p3880
asbag69
(g90
g71
NtRp3881
(dp3882
g74
(dp3883
g101
g102
ssg83
g3872
sg76
(lp3884
S':'
asbag69
(g90
g71
NtRp3885
(dp3886
g74
(dp3887
sg83
g3872
sg76
(lp3888
g69
(g70
g71
NtRp3889
(dp3890
g74
(dp3891
g82
I5
ssg83
g3885
sg76
(lp3892
S'session_data_pfm_web'
p3893
asbasbasbag69
(g85
g71
NtRp3894
(dp3895
g74
(dp3896
sg83
g3296
sg76
(lp3897
g69
(g90
g71
NtRp3898
(dp3899
g74
(dp3900
g94
g95
ssg83
g3894
sg76
(lp3901
S'session_file'
p3902
asbag69
(g90
g71
NtRp3903
(dp3904
g74
(dp3905
g101
g102
ssg83
g3894
sg76
(lp3906
S':'
asbag69
(g90
g71
NtRp3907
(dp3908
g74
(dp3909
sg83
g3894
sg76
(lp3910
g69
(g70
g71
NtRp3911
(dp3912
g74
(dp3913
g82
I5
ssg83
g3907
sg76
(lp3914
S'None'
p3915
asbasbasbag69
(g85
g71
NtRp3916
(dp3917
g74
(dp3918
sg83
g3296
sg76
(lp3919
g69
(g90
g71
NtRp3920
(dp3921
g74
(dp3922
g94
g95
ssg83
g3916
sg76
(lp3923
S'session_filename'
p3924
asbag69
(g90
g71
NtRp3925
(dp3926
g74
(dp3927
g101
g102
ssg83
g3916
sg76
(lp3928
S':'
asbag69
(g90
g71
NtRp3929
(dp3930
g74
(dp3931
sg83
g3916
sg76
(lp3932
g69
(g70
g71
NtRp3933
(dp3934
g74
(dp3935
g82
I5
ssg83
g3929
sg76
(lp3936
S'C:\\Users\\Juliano\\Documents\\Visual Studio 2012\\Projects\\PFM-Web\\applications\\PFM_Web\\sessions\\127.0.0.1-7c0ccf12-7660-45c0-8624-7d98638ea3a7'
p3937
asbasbasbag69
(g85
g71
NtRp3938
(dp3939
g74
(dp3940
sg83
g3296
sg76
(lp3941
g69
(g90
g71
NtRp3942
(dp3943
g74
(dp3944
g94
g95
ssg83
g3938
sg76
(lp3945
S'session_id'
p3946
asbag69
(g90
g71
NtRp3947
(dp3948
g74
(dp3949
g101
g102
ssg83
g3938
sg76
(lp3950
S':'
asbag69
(g90
g71
NtRp3951
(dp3952
g74
(dp3953
sg83
g3938
sg76
(lp3954
g69
(g70
g71
NtRp3955
(dp3956
g74
(dp3957
g82
I5
ssg83
g3951
sg76
(lp3958
g487
asbasbasbag69
(g85
g71
NtRp3959
(dp3960
g74
(dp3961
sg83
g3296
sg76
(lp3962
g69
(g90
g71
NtRp3963
(dp3964
g74
(dp3965
g94
g95
ssg83
g3959
sg76
(lp3966
S'session_id_name'
p3967
asbag69
(g90
g71
NtRp3968
(dp3969
g74
(dp3970
g101
g102
ssg83
g3959
sg76
(lp3971
S':'
asbag69
(g90
g71
NtRp3972
(dp3973
g74
(dp3974
sg83
g3959
sg76
(lp3975
g69
(g70
g71
NtRp3976
(dp3977
g74
(dp3978
g82
I5
ssg83
g3972
sg76
(lp3979
g3353
asbasbasbag69
(g85
g71
NtRp3980
(dp3981
g74
(dp3982
sg83
g3296
sg76
(lp3983
g69
(g90
g71
NtRp3984
(dp3985
g74
(dp3986
g94
g95
ssg83
g3980
sg76
(lp3987
S'session_new'
p3988
asbag69
(g90
g71
NtRp3989
(dp3990
g74
(dp3991
g101
g102
ssg83
g3980
sg76
(lp3992
S':'
asbag69
(g90
g71
NtRp3993
(dp3994
g74
(dp3995
sg83
g3980
sg76
(lp3996
g69
(g70
g71
NtRp3997
(dp3998
g74
(dp3999
g82
I5
ssg83
g3993
sg76
(lp4000
g112
asbasbasbag69
(g85
g71
NtRp4001
(dp4002
g74
(dp4003
sg83
g3296
sg76
(lp4004
g69
(g90
g71
NtRp4005
(dp4006
g74
(dp4007
g94
g95
ssg83
g4001
sg76
(lp4008
S'session_storage_type'
p4009
asbag69
(g90
g71
NtRp4010
(dp4011
g74
(dp4012
g101
g102
ssg83
g4001
sg76
(lp4013
S':'
asbag69
(g90
g71
NtRp4014
(dp4015
g74
(dp4016
sg83
g4001
sg76
(lp4017
g69
(g70
g71
NtRp4018
(dp4019
g74
(dp4020
g82
I5
ssg83
g4014
sg76
(lp4021
g3141
asbasbasbag69
(g85
g71
NtRp4022
(dp4023
g74
(dp4024
sg83
g3296
sg76
(lp4025
g69
(g90
g71
NtRp4026
(dp4027
g74
(dp4028
g94
g95
ssg83
g4022
sg76
(lp4029
S'status'
p4030
asbag69
(g90
g71
NtRp4031
(dp4032
g74
(dp4033
g101
g102
ssg83
g4022
sg76
(lp4034
S':'
asbag69
(g90
g71
NtRp4035
(dp4036
g74
(dp4037
sg83
g4022
sg76
(lp4038
g69
(g70
g71
NtRp4039
(dp4040
g74
(dp4041
g82
I5
ssg83
g4035
sg76
(lp4042
S'200'
p4043
asbasbasbag69
(g85
g71
NtRp4044
(dp4045
g74
(dp4046
sg83
g3296
sg76
(lp4047
g69
(g90
g71
NtRp4048
(dp4049
g74
(dp4050
g94
g95
ssg83
g4044
sg76
(lp4051
S'view'
p4052
asbag69
(g90
g71
NtRp4053
(dp4054
g74
(dp4055
g101
g102
ssg83
g4044
sg76
(lp4056
S':'
asbag69
(g90
g71
NtRp4057
(dp4058
g74
(dp4059
sg83
g4044
sg76
(lp4060
g69
(g70
g71
NtRp4061
(dp4062
g74
(dp4063
g82
I5
ssg83
g4057
sg76
(lp4064
S'default/index.html'
p4065
asbasbasbasbasbsS'locals'
p4066
(dp4067
S'self'
p4068
S'<DAL uri="sqlite://storage.sqlite">'
p4069
sS'name'
p4070
S"'value'"
p4071
sS'backend'
p4072
S"'all'"
p4073
sssS'traceback'
p4074
S'Traceback (most recent call last):\n  File "C:\\Users\\Juliano\\Documents\\Visual Studio 2012\\Projects\\PFM-Web\\gluon\\restricted.py", line 212, in restricted\n    exec ccode in environment\n  File "C:\\Users\\Juliano\\Documents\\Visual Studio 2012\\Projects\\PFM-Web\\applications\\PFM_Web\\models\\db.py", line 103, in <module>\n    format=\'%(name)s\')\n  File "C:\\Users\\Juliano\\Documents\\Visual Studio 2012\\Projects\\PFM-Web\\gluon\\dal.py", line 7186, in define_table\n    table = self.lazy_define_table(tablename,*fields,**args)\n  File "C:\\Users\\Juliano\\Documents\\Visual Studio 2012\\Projects\\PFM-Web\\gluon\\dal.py", line 7203, in lazy_define_table\n    table = table_class(self, tablename, *fields, **args)\n  File "C:\\Users\\Juliano\\Documents\\Visual Studio 2012\\Projects\\PFM-Web\\gluon\\dal.py", line 7609, in __init__\n    db.check_reserved_keyword(field_name)\n  File "C:\\Users\\Juliano\\Documents\\Visual Studio 2012\\Projects\\PFM-Web\\gluon\\dal.py", line 6930, in check_reserved_keyword\n    \'invalid table/column name "%s" is a "%s" reserved SQL keyword\' % (name, backend.upper()))\nSyntaxError: invalid table/column name "value" is a "ALL" reserved SQL keyword\n'
p4075
s.