(dp1
S'output'
p2
S"<type 'exceptions.SyntaxError'> invalid syntax (expenses/index.html, line 84)"
p3
sS'layer'
p4
S'C:\\Users\\Juliano\\Documents\\Visual Studio 2012\\Projects\\PFM-Web\\applications\\PFM_Web\\views\\expenses/index.html'
p5
sS'code'
p6
S'left_sidebar_enabled,right_sidebar_enabled=False,(\'message\' in globals())\nresponse.write(\'\\n\', escape=False)\nresponse.write(\'<!DOCTYPE html>\\n<!-- paulirish.com/2008/conditional-stylesheets-vs-css-hacks-answer-neither/ -->\\n<!--[if lt IE 7]><html class="ie ie6 ie-lte9 ie-lte8 ie-lte7 no-js" lang="\', escape=False)\nresponse.write(T.accepted_language or \'en\')\nresponse.write(\'"> <![endif]-->\\n<!--[if IE 7]><html class="ie ie7 ie-lte9 ie-lte8 ie-lte7 no-js" lang="\', escape=False)\nresponse.write(T.accepted_language or \'en\')\nresponse.write(\'"> <![endif]-->\\n<!--[if IE 8]><html class="ie ie8 ie-lte9 ie-lte8 no-js" lang="\', escape=False)\nresponse.write(T.accepted_language or \'en\')\nresponse.write(\'"> <![endif]-->\\n<!--[if IE 9]><html class="ie9 ie-lte9 no-js" lang="\', escape=False)\nresponse.write(T.accepted_language or \'en\')\nresponse.write(\'"> <![endif]-->\\n<!--[if (gt IE 9)|!(IE)]><!--> <html class="no-js" lang="\', escape=False)\nresponse.write(T.accepted_language or \'en\')\nresponse.write(\'"> <!--<![endif]-->\\n<head>\\n  <meta charset="utf-8" />\\n  <!-- www.phpied.com/conditional-comments-block-downloads/ -->\\n  <!-- Always force latest IE rendering engine\\n       (even in intranet) & Chrome Frame\\n       Remove this if you use the .htaccess -->\\n  <!--[if IE]>\\n      <meta http-equiv="X-UA-Compatible" content="IE=edge\', escape=False)\nresponse.write(not request.is_local and \',chrome=1\' or \'\')\nresponse.write(\'">\\n      <![endif]-->\\n\\n  <title>\', escape=False)\nresponse.write(response.title or request.application)\nresponse.write(\'</title>\\n\\n  <!-- http://dev.w3.org/html5/markup/meta.name.html -->\\n  <meta name="application-name" content="\', escape=False)\nresponse.write(request.application)\nresponse.write(\'" />\\n\\n  <!-- Speaking of Google, don\\\'t forget to set your site up:\\n       http://google.com/webmasters -->\\n  <meta name="google-site-verification" content="" />\\n\\n  <!--  Mobile Viewport Fix\\n        j.mp/mobileviewport & davidbcalhoun.com/2010/viewport-metatag\\n        device-width: Occupy full width of the screen in its current orientation\\n        initial-scale = 1.0 retains dimensions instead of zooming out if page height > device height\\n        user-scalable = yes allows the user to zoom in -->\\n  <meta name="viewport" content="width=device-width, initial-scale=1.0" />\\n\\n  <link rel="shortcut icon" href="\', escape=False)\nresponse.write(URL(\'static\',\'images/favicon.ico\'))\nresponse.write(\'" type="image/x-icon">\\n  <link rel="apple-touch-icon" href="\', escape=False)\nresponse.write(URL(\'static\',\'images/favicon.png\'))\nresponse.write(\'">\\n\\n  <!-- All JavaScript at the bottom, except for Modernizr which enables\\n       HTML5 elements & feature detects -->\\n  <script src="\', escape=False)\nresponse.write(URL(\'static\',\'js/modernizr.custom.js\'))\nresponse.write(\'"></script>\\n\\n  <!-- include stylesheets -->\\n  \', escape=False)\nresponse.files.append(URL(\'static\',\'css/web2py.css\'))\nresponse.files.append(URL(\'static\',\'css/bootstrap.min.css\'))\nresponse.files.append(URL(\'static\',\'css/bootstrap-responsive.min.css\'))\nresponse.files.append(URL(\'static\',\'css/site.css\'))\nresponse.files.append(URL(\'static\',\'css/web2py_bootstrap.css\'))\nresponse.write(\'\\n\\n  \', escape=False)\nresponse.write(\'<script type="text/javascript"><!--\\n    // These variables are used by the web2py_ajax_init function in web2py_ajax.js (which is loaded below).\\n    var w2p_ajax_confirm_message = "\', escape=False)\nresponse.write(T(\'Are you sure you want to delete this object?\'))\nresponse.write(\'";\\n    var w2p_ajax_date_format = "\', escape=False)\nresponse.write(T(\'%Y-%m-%d\'))\nresponse.write(\'";\\n    var w2p_ajax_datetime_format = "\', escape=False)\nresponse.write(T(\'%Y-%m-%d %H:%M:%S\'))\nresponse.write(\'";\\n    //--></script>\\n\', escape=False)\nresponse.files.insert(0,URL(\'static\',\'js/jquery.js\'))\nresponse.files.insert(1,URL(\'static\',\'css/calendar.css\'))\nresponse.files.insert(2,URL(\'static\',\'js/calendar.js\'))\nresponse.files.insert(3,URL(\'static\',\'js/web2py.js\'))\nresponse.include_meta()\nresponse.include_files()\nresponse.write(\'\\n\', escape=False)\nresponse.write(\'\\n\\n  \', escape=False)\n# using sidebars need to know what sidebar you want to use\nleft_sidebar_enabled = globals().get(\'left_sidebar_enabled\',False)\nright_sidebar_enabled = globals().get(\'right_sidebar_enabled\',False)\nmiddle_columns = {0:\'span12\',1:\'span9\',2:\'span6\'}[\n(left_sidebar_enabled and 1 or 0)+(right_sidebar_enabled and 1 or 0)]\nresponse.write(\'\\n\\n  <link rel="stylesheet" href="http://ajax.googleapis.com/ajax/libs/jqueryui/1.8.16/themes/base/jquery-ui.css" type="text/css" media="all" />\\n  <script src="http://ajax.googleapis.com/ajax/libs/jqueryui/1.8.16/jquery-ui.min.js" type="text/javascript"></script>\\n  <noscript><link href="\', escape=False)\nresponse.write(URL(\'static\', \'css/web2py_bootstrap_nojs.css\'))\nresponse.write(\'" rel="stylesheet" type="text/css" /></noscript>\\n  \', escape=False)\nresponse.write(\'\\n</head>\\n\\n<body>\\n  <!-- Navbar ================================================== -->\\n  <div class="navbar navbar-inverse navbar-fixed-top">\\n    <div class="flash">\', escape=False)\nresponse.write(response.flash or \'\')\nresponse.write(\'</div>\\n    <div class="navbar-inner">\\n      <div class="container">\\n        <!-- the next tag is necessary for bootstrap menus, do not remove -->\\n        <button type="button" class="btn btn-navbar" data-toggle="collapse" data-target=".nav-collapse">\\n          <span class="icon-bar"></span>\\n          <span class="icon-bar"></span>\\n          <span class="icon-bar"></span>\\n        </button>\\n\\t\', escape=False)\nresponse.write(response.logo or \'\')\nresponse.write(\'\\n        <ul id="navbar" class="nav pull-right">\', escape=False)\nresponse.write(\'auth\' in globals() and auth.navbar(mode="dropdown") or \'\')\nresponse.write(\'</ul>\\n        <div class="nav-collapse">\\n          \', escape=False)\nis_mobile=request.user_agent().is_mobile\nresponse.write(\'\\n          \', escape=False)\nif response.menu:\n    response.write(\'\\n          \', escape=False)\n    response.write(MENU(response.menu, _class=\'mobile-menu nav\' if is_mobile else \'nav\',mobile=is_mobile,li_class=\'dropdown\',ul_class=\'dropdown-menu\'))\n    response.write(\'\\n          \', escape=False)\n    pass\nresponse.write(\'\\n        </div><!--/.nav-collapse -->\\n      </div>\\n    </div>\\n  </div><!--/top navbar -->\\n\\n  <div class="container">\\n    <!-- Masthead ================================================== -->\\n    <header class="mastheader row" id="header">\\n        <div class="span12">\\n            <div class="page-header">\\n                <h1>\\n                    \', escape=False)\nresponse.write(response.title or request.application)\nresponse.write(\'\\n                    <br/><small>\', escape=False)\nresponse.write(response.subtitle or \'\')\nresponse.write(\'</small>\\n                </h1>\\n            </div>\\n        </div>\\n    </header>\\n\\n    <section id="main" class="main row">\\n        \', escape=False)\nif left_sidebar_enabled:\n    response.write(\'\\n        <div class="span3 left-sidebar">\\n            \', escape=False)\n    response.write(\'\\n            <h3>Left Sidebar</h3>\\n            <p></p>\\n            \', escape=False)\n    response.write(\'\\n        </div>\\n        \', escape=False)\n    pass\nresponse.write(\'\\n\\n        <div class="\', escape=False)\nresponse.write(middle_columns)\nresponse.write(\'">\\n            \', escape=False)\nresponse.write(\'\\n            \', escape=False)\nresponse.write(\'\\n\\n\\n\\n<div class="jumbotron">\\r\\n        <h1>Marketing stuff!</h1>\\r\\n        <p class="lead">Cras justo odio, dapibus ac facilisis in, egestas eget quam. Fusce dapibus, tellus ac cursus commodo, tortor mauris condimentum nibh, ut fermentum massa justo sit amet risus.</p>\\r\\n        <a class="btn btn-large btn-success" href="#">Get started today</a>\\r\\n      </div>\\r\\n\\r\\n      <hr>\\r\\n\\r\\n      <!-- Example row of columns -->\\r\\n      <div class="row-fluid">\\r\\n        <div class="span4">\\r\\n          <h2>Heading</h2>\\r\\n          <p>Donec id elit non mi porta gravida at eget metus. Fusce dapibus, tellus ac cursus commodo, tortor mauris condimentum nibh, ut fermentum massa justo sit amet risus. Etiam porta sem malesuada magna mollis euismod. Donec sed odio dui. </p>\\r\\n          <p><a class="btn" href="#">View details &raquo;</a></p>\\r\\n        </div>\\r\\n        <div class="span4">\\r\\n          <h2>Heading</h2>\\r\\n          <p>Donec id elit non mi porta gravida at eget metus. Fusce dapibus, tellus ac cursus commodo, tortor mauris condimentum nibh, ut fermentum massa justo sit amet risus. Etiam porta sem malesuada magna mollis euismod. Donec sed odio dui. </p>\\r\\n          <p><a class="btn" href="#">View details &raquo;</a></p>\\r\\n       </div>\\r\\n        <div class="span4">\\r\\n          <h2>Heading</h2>\\r\\n          <p>Donec sed odio dui. Cras justo odio, dapibus ac facilisis in, egestas eget quam. Vestibulum id ligula porta felis euismod semper. Fusce dapibus, tellus ac cursus commodo, tortor mauris condimentum nibh, ut fermentum massa.</p>\\r\\n          <p><a class="btn" href="#">View details &raquo;</a></p>\\r\\n        </div>\\r\\n      </div>\\n\\n\', escape=False)\nelif \'content\' in globals():\n    response.write(\'\\n\', escape=False)\n    response.write(content)\n    response.write(\'\\n\', escape=False)\nelse:\n    response.write(\'\\n\', escape=False)\n    response.write(BEAUTIFY(response._vars))\n    response.write(\'\\n\', escape=False)\n    pass\nresponse.write(\'\\n\\n\', escape=False)\nresponse.write(\'\\n\', escape=False)\nresponse.write(\'\\n            \', escape=False)\nresponse.write(\'\\n        </div>\\n\\n        \', escape=False)\nif right_sidebar_enabled:\n    response.write(\'\\n        <div class="span3">\\n            \', escape=False)\n    response.write(\'\\n\', escape=False)\n    response.write(A(T("Administrative Interface"), _href=URL(\'admin\',\'default\',\'index\'), _class=\'btn\',\n    _style=\'margin-top: 1em;\'))\n    response.write(\'\\n<h6>\', escape=False)\n    response.write(T("Don\'t know what to do?"))\n    response.write(\'</h6>\\n<ul>\\n  <li>\', escape=False)\n    response.write(A(T("Online examples"), _href=URL(\'examples\',\'default\',\'index\')))\n    response.write(\'</li>\\n  <li><a href="http://web2py.com">web2py.com</a></li>\\n  <li><a href="http://web2py.com/book">\', escape=False)\n    response.write(T(\'Documentation\'))\n    response.write(\'</a></li>\\n</ul>\\n\', escape=False)\n    response.write(\'\\n        </div>\\n        \', escape=False)\n    pass\nresponse.write(\'\\n    </section><!--/main-->\\n\\n    <!-- Footer ================================================== -->\\n    <div class="row">\\n        <footer class="footer span12" id="footer">\\n            <div class="footer-content">\\n                \', escape=False)\nresponse.write(\' <!-- this is default footer -->\\n                <div class="copyright pull-left">&#169; \', escape=False)\nresponse.write(request.now.year)\nresponse.write(\' \', escape=False)\nresponse.write(T(\'Code-A-Granel, Inc.\'))\nresponse.write(\'  </div>\\n                <div id="poweredBy" class="pull-right">\\n                    \', escape=False)\nresponse.write(T(\'Powered by\'))\nresponse.write(\'\\n                    <a href="http://www.web2py.com/">web2py</a>\\n                </div>\\n                \', escape=False)\nresponse.write(\'\\n            </div>\\n        </footer>\\n    </div>\\n\\n  </div> <!-- /container -->\\n\\n  <!-- The javascript =============================================\\n       (Placed at the end of the document so the pages load faster) -->\\n  <script src="\', escape=False)\nresponse.write(URL(\'static\',\'js/bootstrap.min.js\'))\nresponse.write(\'"></script>\\n  <script src="\', escape=False)\nresponse.write(URL(\'static\',\'js/web2py_bootstrap.js\'))\nresponse.write(\'"></script>\\n  <!--[if lt IE 7 ]>\\n      <script src="\', escape=False)\nresponse.write(URL(\'static\',\'js/dd_belatedpng.js\'))\nresponse.write(\'"></script>\\n      <script> DD_belatedPNG.fix(\\\'img, .png_bg\\\'); //fix any <img> or .png_bg background-images </script>\\n      <![endif]-->\\n  \\n  \', escape=False)\nif response.google_analytics_id:\n    response.write(\'\\n  <script src="\', escape=False)\n    response.write(URL(\'static\',\'js/analytics.js\'))\n    response.write(\'"></script>\\n  <script type="text/javascript">\\n  analytics.initialize({\\n    \\\'Google Analytics\\\':{trackingId:\\\'\', escape=False)\n    response.write(response.google_analytics_id)\n    response.write("\'} \\n  });</script>\\n  ", escape=False)\n    pass\nresponse.write(\'\\n  <script src="\', escape=False)\nresponse.write(URL(\'static\',\'js/share.js\',vars=dict(static=URL(\'static\',\'images\'))))\nresponse.write(\'"></script>\\n</body>\\n</html>\\n\\n\', escape=False)'
p7
sS'snapshot'
p8
(dp9
S'exception'
p10
(dp11
S'__getslice__'
p12
S"<method-wrapper '__getslice__' of exceptions.SyntaxError object>"
p13
sS'text'
p14
S'"elif \'content\' in globals():\\n"'
p15
sS'__str__'
p16
S"<method-wrapper '__str__' of exceptions.SyntaxError object>"
p17
sS'__reduce__'
p18
S'<built-in method __reduce__ of exceptions.SyntaxError object>'
p19
sS'__dict__'
p20
S'{}'
p21
sS'__sizeof__'
p22
S'<built-in method __sizeof__ of exceptions.SyntaxError object>'
p23
sS'__init__'
p24
S"<method-wrapper '__init__' of exceptions.SyntaxError object>"
p25
sS'__setattr__'
p26
S"<method-wrapper '__setattr__' of exceptions.SyntaxError object>"
p27
sS'__reduce_ex__'
p28
S'<built-in method __reduce_ex__ of exceptions.SyntaxError object>'
p29
sS'__new__'
p30
S'<built-in method __new__ of type object>'
p31
sS'__format__'
p32
S'<built-in method __format__ of exceptions.SyntaxError object>'
p33
sS'__class__'
p34
S"<type 'exceptions.SyntaxError'>"
p35
sS'filename'
p36
S"r'C:\\Users\\Juliano\\Documents\\Visual Studio 2012\\Pr...eb\\applications\\PFM_Web\\views\\expenses/index.html'"
p37
sS'lineno'
p38
S'84'
p39
sS'msg'
p40
S"'invalid syntax'"
p41
sS'__doc__'
p42
S"'Invalid syntax.'"
p43
sS'__getitem__'
p44
S"<method-wrapper '__getitem__' of exceptions.SyntaxError object>"
p45
sS'__setstate__'
p46
S'<built-in method __setstate__ of exceptions.SyntaxError object>'
p47
sS'__getattribute__'
p48
S"<method-wrapper '__getattribute__' of exceptions.SyntaxError object>"
p49
sS'print_file_and_line'
p50
S'None'
p51
sS'args'
p52
S'(\'invalid syntax\', (r\'C:\\Users\\Juliano\\Documents\\Visual Studio 2012\\Pr...eb\\applications\\PFM_Web\\views\\expenses/index.html\', 84, 4, "elif \'content\' in globals():\\n"))'
p53
sS'__subclasshook__'
p54
S'<built-in method __subclasshook__ of type object>'
p55
sS'offset'
p56
S'4'
sS'__unicode__'
p57
S'<built-in method __unicode__ of exceptions.SyntaxError object>'
p58
sS'__delattr__'
p59
S"<method-wrapper '__delattr__' of exceptions.SyntaxError object>"
p60
sS'__repr__'
p61
S"<method-wrapper '__repr__' of exceptions.SyntaxError object>"
p62
sS'__hash__'
p63
S"<method-wrapper '__hash__' of exceptions.SyntaxError object>"
p64
ssS'evalue'
p65
S'invalid syntax (expenses/index.html, line 84)'
p66
sS'request'
p67
ccopy_reg
_reconstructor
p68
(cgluon.html
BEAUTIFY
p69
c__builtin__
object
p70
NtRp71
(dp72
S'attributes'
p73
(dp74
sS'components'
p75
(lp76
g68
(cgluon.html
TABLE
p77
g70
NtRp78
(dp79
g73
(dp80
S'level'
p81
I5
ssS'parent'
p82
Nsg75
(lp83
g68
(cgluon.html
TR
p84
g70
NtRp85
(dp86
g73
(dp87
sg82
g78
sg75
(lp88
g68
(cgluon.html
TD
p89
g70
NtRp90
(dp91
g73
(dp92
S'_style'
p93
S'font-weight:bold;vertical-align:top'
p94
ssg82
g85
sg75
(lp95
S'ajax'
p96
asbag68
(g89
g70
NtRp97
(dp98
g73
(dp99
S'_valign'
p100
S'top'
p101
ssg82
g85
sg75
(lp102
S':'
asbag68
(g89
g70
NtRp103
(dp104
g73
(dp105
sg82
g85
sg75
(lp106
g68
(g69
g70
NtRp107
(dp108
g73
(dp109
g81
I5
ssg82
g103
sg75
(lp110
S'False'
p111
asbasbasbag68
(g84
g70
NtRp112
(dp113
g73
(dp114
sg82
g78
sg75
(lp115
g68
(g89
g70
NtRp116
(dp117
g73
(dp118
g93
g94
ssg82
g112
sg75
(lp119
S'application'
p120
asbag68
(g89
g70
NtRp121
(dp122
g73
(dp123
g100
g101
ssg82
g112
sg75
(lp124
S':'
asbag68
(g89
g70
NtRp125
(dp126
g73
(dp127
sg82
g112
sg75
(lp128
g68
(g69
g70
NtRp129
(dp130
g73
(dp131
g81
I5
ssg82
g125
sg75
(lp132
S'PFM_Web'
p133
asbasbasbag68
(g84
g70
NtRp134
(dp135
g73
(dp136
sg82
g78
sg75
(lp137
g68
(g89
g70
NtRp138
(dp139
g73
(dp140
g93
g94
ssg82
g134
sg75
(lp141
g52
asbag68
(g89
g70
NtRp142
(dp143
g73
(dp144
g100
g101
ssg82
g134
sg75
(lp145
S':'
asbag68
(g89
g70
NtRp146
(dp147
g73
(dp148
sg82
g134
sg75
(lp149
g68
(g69
g70
NtRp150
(dp151
g73
(dp152
g81
I5
ssg82
g146
sg75
(lp153
g68
(g77
g70
NtRp154
(dp155
g73
(dp156
g81
I4
ssg82
Nsg75
(lp157
sbasbasbasbag68
(g84
g70
NtRp158
(dp159
g73
(dp160
sg82
g78
sg75
(lp161
g68
(g89
g70
NtRp162
(dp163
g73
(dp164
g93
g94
ssg82
g158
sg75
(lp165
S'body'
p166
asbag68
(g89
g70
NtRp167
(dp168
g73
(dp169
g100
g101
ssg82
g158
sg75
(lp170
S':'
asbag68
(g89
g70
NtRp171
(dp172
g73
(dp173
sg82
g158
sg75
(lp174
g68
(g69
g70
NtRp175
(dp176
g73
(dp177
g81
I5
ssg82
g171
sg75
(lp178
S'<cStringIO.StringO object at 0x0000000004F3A298>'
p179
asbasbasbag68
(g84
g70
NtRp180
(dp181
g73
(dp182
sg82
g78
sg75
(lp183
g68
(g89
g70
NtRp184
(dp185
g73
(dp186
g93
g94
ssg82
g180
sg75
(lp187
S'cid'
p188
asbag68
(g89
g70
NtRp189
(dp190
g73
(dp191
g100
g101
ssg82
g180
sg75
(lp192
S':'
asbag68
(g89
g70
NtRp193
(dp194
g73
(dp195
sg82
g180
sg75
(lp196
g68
(g69
g70
NtRp197
(dp198
g73
(dp199
g81
I5
ssg82
g193
sg75
(lp200
S'None'
p201
asbasbasbag68
(g84
g70
NtRp202
(dp203
g73
(dp204
sg82
g78
sg75
(lp205
g68
(g89
g70
NtRp206
(dp207
g73
(dp208
g93
g94
ssg82
g202
sg75
(lp209
S'client'
p210
asbag68
(g89
g70
NtRp211
(dp212
g73
(dp213
g100
g101
ssg82
g202
sg75
(lp214
S':'
asbag68
(g89
g70
NtRp215
(dp216
g73
(dp217
sg82
g202
sg75
(lp218
g68
(g69
g70
NtRp219
(dp220
g73
(dp221
g81
I5
ssg82
g215
sg75
(lp222
S'127.0.0.1'
p223
asbasbasbag68
(g84
g70
NtRp224
(dp225
g73
(dp226
sg82
g78
sg75
(lp227
g68
(g89
g70
NtRp228
(dp229
g73
(dp230
g93
g94
ssg82
g224
sg75
(lp231
S'controller'
p232
asbag68
(g89
g70
NtRp233
(dp234
g73
(dp235
g100
g101
ssg82
g224
sg75
(lp236
S':'
asbag68
(g89
g70
NtRp237
(dp238
g73
(dp239
sg82
g224
sg75
(lp240
g68
(g69
g70
NtRp241
(dp242
g73
(dp243
g81
I5
ssg82
g237
sg75
(lp244
S'expenses'
p245
asbasbasbag68
(g84
g70
NtRp246
(dp247
g73
(dp248
sg82
g78
sg75
(lp249
g68
(g89
g70
NtRp250
(dp251
g73
(dp252
g93
g94
ssg82
g246
sg75
(lp253
S'cookies'
p254
asbag68
(g89
g70
NtRp255
(dp256
g73
(dp257
g100
g101
ssg82
g246
sg75
(lp258
S':'
asbag68
(g89
g70
NtRp259
(dp260
g73
(dp261
sg82
g246
sg75
(lp262
g68
(g69
g70
NtRp263
(dp264
g73
(dp265
g81
I5
ssg82
g259
sg75
(lp266
g68
(g77
g70
NtRp267
(dp268
g73
(dp269
g81
I4
ssg82
Nsg75
(lp270
g68
(g84
g70
NtRp271
(dp272
g73
(dp273
sg82
g267
sg75
(lp274
g68
(g89
g70
NtRp275
(dp276
g73
(dp277
g93
g94
ssg82
g271
sg75
(lp278
S'session_id_admin'
p279
asbag68
(g89
g70
NtRp280
(dp281
g73
(dp282
g100
g101
ssg82
g271
sg75
(lp283
S':'
asbag68
(g89
g70
NtRp284
(dp285
g73
(dp286
sg82
g271
sg75
(lp287
g68
(g69
g70
NtRp288
(dp289
g73
(dp290
g81
I4
ssg82
g284
sg75
(lp291
S'127.0.0.1-e12d6916-8656-4736-b975-72200c915786'
p292
ag68
(g77
g70
NtRp293
(dp294
g73
(dp295
g81
I3
ssg82
Nsg75
(lp296
g68
(g84
g70
NtRp297
(dp298
g73
(dp299
sg82
g293
sg75
(lp300
g68
(g89
g70
NtRp301
(dp302
g73
(dp303
g93
g94
ssg82
g297
sg75
(lp304
S'comment'
p305
asbag68
(g89
g70
NtRp306
(dp307
g73
(dp308
g100
g101
ssg82
g297
sg75
(lp309
S':'
asbag68
(g89
g70
NtRp310
(dp311
g73
(dp312
sg82
g297
sg75
(lp313
g68
(g69
g70
NtRp314
(dp315
g73
(dp316
g81
I3
ssg82
g310
sg75
(lp317
S''
asbasbasbag68
(g84
g70
NtRp318
(dp319
g73
(dp320
sg82
g293
sg75
(lp321
g68
(g89
g70
NtRp322
(dp323
g73
(dp324
g93
g94
ssg82
g318
sg75
(lp325
S'domain'
p326
asbag68
(g89
g70
NtRp327
(dp328
g73
(dp329
g100
g101
ssg82
g318
sg75
(lp330
S':'
asbag68
(g89
g70
NtRp331
(dp332
g73
(dp333
sg82
g318
sg75
(lp334
g68
(g69
g70
NtRp335
(dp336
g73
(dp337
g81
I3
ssg82
g331
sg75
(lp338
S''
asbasbasbag68
(g84
g70
NtRp339
(dp340
g73
(dp341
sg82
g293
sg75
(lp342
g68
(g89
g70
NtRp343
(dp344
g73
(dp345
g93
g94
ssg82
g339
sg75
(lp346
S'expires'
p347
asbag68
(g89
g70
NtRp348
(dp349
g73
(dp350
g100
g101
ssg82
g339
sg75
(lp351
S':'
asbag68
(g89
g70
NtRp352
(dp353
g73
(dp354
sg82
g339
sg75
(lp355
g68
(g69
g70
NtRp356
(dp357
g73
(dp358
g81
I3
ssg82
g352
sg75
(lp359
S''
asbasbasbag68
(g84
g70
NtRp360
(dp361
g73
(dp362
sg82
g293
sg75
(lp363
g68
(g89
g70
NtRp364
(dp365
g73
(dp366
g93
g94
ssg82
g360
sg75
(lp367
S'httponly'
p368
asbag68
(g89
g70
NtRp369
(dp370
g73
(dp371
g100
g101
ssg82
g360
sg75
(lp372
S':'
asbag68
(g89
g70
NtRp373
(dp374
g73
(dp375
sg82
g360
sg75
(lp376
g68
(g69
g70
NtRp377
(dp378
g73
(dp379
g81
I3
ssg82
g373
sg75
(lp380
S''
asbasbasbag68
(g84
g70
NtRp381
(dp382
g73
(dp383
sg82
g293
sg75
(lp384
g68
(g89
g70
NtRp385
(dp386
g73
(dp387
g93
g94
ssg82
g381
sg75
(lp388
S'max-age'
p389
asbag68
(g89
g70
NtRp390
(dp391
g73
(dp392
g100
g101
ssg82
g381
sg75
(lp393
S':'
asbag68
(g89
g70
NtRp394
(dp395
g73
(dp396
sg82
g381
sg75
(lp397
g68
(g69
g70
NtRp398
(dp399
g73
(dp400
g81
I3
ssg82
g394
sg75
(lp401
S''
asbasbasbag68
(g84
g70
NtRp402
(dp403
g73
(dp404
sg82
g293
sg75
(lp405
g68
(g89
g70
NtRp406
(dp407
g73
(dp408
g93
g94
ssg82
g402
sg75
(lp409
S'path'
p410
asbag68
(g89
g70
NtRp411
(dp412
g73
(dp413
g100
g101
ssg82
g402
sg75
(lp414
S':'
asbag68
(g89
g70
NtRp415
(dp416
g73
(dp417
sg82
g402
sg75
(lp418
g68
(g69
g70
NtRp419
(dp420
g73
(dp421
g81
I3
ssg82
g415
sg75
(lp422
S''
asbasbasbag68
(g84
g70
NtRp423
(dp424
g73
(dp425
sg82
g293
sg75
(lp426
g68
(g89
g70
NtRp427
(dp428
g73
(dp429
g93
g94
ssg82
g423
sg75
(lp430
S'secure'
p431
asbag68
(g89
g70
NtRp432
(dp433
g73
(dp434
g100
g101
ssg82
g423
sg75
(lp435
S':'
asbag68
(g89
g70
NtRp436
(dp437
g73
(dp438
sg82
g423
sg75
(lp439
g68
(g69
g70
NtRp440
(dp441
g73
(dp442
g81
I3
ssg82
g436
sg75
(lp443
S''
asbasbasbag68
(g84
g70
NtRp444
(dp445
g73
(dp446
sg82
g293
sg75
(lp447
g68
(g89
g70
NtRp448
(dp449
g73
(dp450
g93
g94
ssg82
g444
sg75
(lp451
S'version'
p452
asbag68
(g89
g70
NtRp453
(dp454
g73
(dp455
g100
g101
ssg82
g444
sg75
(lp456
S':'
asbag68
(g89
g70
NtRp457
(dp458
g73
(dp459
sg82
g444
sg75
(lp460
g68
(g69
g70
NtRp461
(dp462
g73
(dp463
g81
I3
ssg82
g457
sg75
(lp464
S''
asbasbasbasbasbasbasbag68
(g84
g70
NtRp465
(dp466
g73
(dp467
sg82
g267
sg75
(lp468
g68
(g89
g70
NtRp469
(dp470
g73
(dp471
g93
g94
ssg82
g465
sg75
(lp472
S'session_id_pfm_web'
p473
asbag68
(g89
g70
NtRp474
(dp475
g73
(dp476
g100
g101
ssg82
g465
sg75
(lp477
S':'
asbag68
(g89
g70
NtRp478
(dp479
g73
(dp480
sg82
g465
sg75
(lp481
g68
(g69
g70
NtRp482
(dp483
g73
(dp484
g81
I4
ssg82
g478
sg75
(lp485
S'127.0.0.1-140a1922-a5d0-44eb-9a21-a4c388e16f08'
p486
ag68
(g77
g70
NtRp487
(dp488
g73
(dp489
g81
I3
ssg82
Nsg75
(lp490
g68
(g84
g70
NtRp491
(dp492
g73
(dp493
sg82
g487
sg75
(lp494
g68
(g89
g70
NtRp495
(dp496
g73
(dp497
g93
g94
ssg82
g491
sg75
(lp498
g305
asbag68
(g89
g70
NtRp499
(dp500
g73
(dp501
g100
g101
ssg82
g491
sg75
(lp502
S':'
asbag68
(g89
g70
NtRp503
(dp504
g73
(dp505
sg82
g491
sg75
(lp506
g68
(g69
g70
NtRp507
(dp508
g73
(dp509
g81
I3
ssg82
g503
sg75
(lp510
S''
asbasbasbag68
(g84
g70
NtRp511
(dp512
g73
(dp513
sg82
g487
sg75
(lp514
g68
(g89
g70
NtRp515
(dp516
g73
(dp517
g93
g94
ssg82
g511
sg75
(lp518
g326
asbag68
(g89
g70
NtRp519
(dp520
g73
(dp521
g100
g101
ssg82
g511
sg75
(lp522
S':'
asbag68
(g89
g70
NtRp523
(dp524
g73
(dp525
sg82
g511
sg75
(lp526
g68
(g69
g70
NtRp527
(dp528
g73
(dp529
g81
I3
ssg82
g523
sg75
(lp530
S''
asbasbasbag68
(g84
g70
NtRp531
(dp532
g73
(dp533
sg82
g487
sg75
(lp534
g68
(g89
g70
NtRp535
(dp536
g73
(dp537
g93
g94
ssg82
g531
sg75
(lp538
g347
asbag68
(g89
g70
NtRp539
(dp540
g73
(dp541
g100
g101
ssg82
g531
sg75
(lp542
S':'
asbag68
(g89
g70
NtRp543
(dp544
g73
(dp545
sg82
g531
sg75
(lp546
g68
(g69
g70
NtRp547
(dp548
g73
(dp549
g81
I3
ssg82
g543
sg75
(lp550
S''
asbasbasbag68
(g84
g70
NtRp551
(dp552
g73
(dp553
sg82
g487
sg75
(lp554
g68
(g89
g70
NtRp555
(dp556
g73
(dp557
g93
g94
ssg82
g551
sg75
(lp558
g368
asbag68
(g89
g70
NtRp559
(dp560
g73
(dp561
g100
g101
ssg82
g551
sg75
(lp562
S':'
asbag68
(g89
g70
NtRp563
(dp564
g73
(dp565
sg82
g551
sg75
(lp566
g68
(g69
g70
NtRp567
(dp568
g73
(dp569
g81
I3
ssg82
g563
sg75
(lp570
S''
asbasbasbag68
(g84
g70
NtRp571
(dp572
g73
(dp573
sg82
g487
sg75
(lp574
g68
(g89
g70
NtRp575
(dp576
g73
(dp577
g93
g94
ssg82
g571
sg75
(lp578
g389
asbag68
(g89
g70
NtRp579
(dp580
g73
(dp581
g100
g101
ssg82
g571
sg75
(lp582
S':'
asbag68
(g89
g70
NtRp583
(dp584
g73
(dp585
sg82
g571
sg75
(lp586
g68
(g69
g70
NtRp587
(dp588
g73
(dp589
g81
I3
ssg82
g583
sg75
(lp590
S''
asbasbasbag68
(g84
g70
NtRp591
(dp592
g73
(dp593
sg82
g487
sg75
(lp594
g68
(g89
g70
NtRp595
(dp596
g73
(dp597
g93
g94
ssg82
g591
sg75
(lp598
g410
asbag68
(g89
g70
NtRp599
(dp600
g73
(dp601
g100
g101
ssg82
g591
sg75
(lp602
S':'
asbag68
(g89
g70
NtRp603
(dp604
g73
(dp605
sg82
g591
sg75
(lp606
g68
(g69
g70
NtRp607
(dp608
g73
(dp609
g81
I3
ssg82
g603
sg75
(lp610
S''
asbasbasbag68
(g84
g70
NtRp611
(dp612
g73
(dp613
sg82
g487
sg75
(lp614
g68
(g89
g70
NtRp615
(dp616
g73
(dp617
g93
g94
ssg82
g611
sg75
(lp618
g431
asbag68
(g89
g70
NtRp619
(dp620
g73
(dp621
g100
g101
ssg82
g611
sg75
(lp622
S':'
asbag68
(g89
g70
NtRp623
(dp624
g73
(dp625
sg82
g611
sg75
(lp626
g68
(g69
g70
NtRp627
(dp628
g73
(dp629
g81
I3
ssg82
g623
sg75
(lp630
S''
asbasbasbag68
(g84
g70
NtRp631
(dp632
g73
(dp633
sg82
g487
sg75
(lp634
g68
(g89
g70
NtRp635
(dp636
g73
(dp637
g93
g94
ssg82
g631
sg75
(lp638
g452
asbag68
(g89
g70
NtRp639
(dp640
g73
(dp641
g100
g101
ssg82
g631
sg75
(lp642
S':'
asbag68
(g89
g70
NtRp643
(dp644
g73
(dp645
sg82
g631
sg75
(lp646
g68
(g69
g70
NtRp647
(dp648
g73
(dp649
g81
I3
ssg82
g643
sg75
(lp650
S''
asbasbasbasbasbasbasbasbasbasbasbag68
(g84
g70
NtRp651
(dp652
g73
(dp653
sg82
g78
sg75
(lp654
g68
(g89
g70
NtRp655
(dp656
g73
(dp657
g93
g94
ssg82
g651
sg75
(lp658
S'env'
p659
asbag68
(g89
g70
NtRp660
(dp661
g73
(dp662
g100
g101
ssg82
g651
sg75
(lp663
S':'
asbag68
(g89
g70
NtRp664
(dp665
g73
(dp666
sg82
g651
sg75
(lp667
g68
(g69
g70
NtRp668
(dp669
g73
(dp670
g81
I5
ssg82
g664
sg75
(lp671
g68
(g77
g70
NtRp672
(dp673
g73
(dp674
g81
I4
ssg82
Nsg75
(lp675
g68
(g84
g70
NtRp676
(dp677
g73
(dp678
sg82
g672
sg75
(lp679
g68
(g89
g70
NtRp680
(dp681
g73
(dp682
g93
g94
ssg82
g676
sg75
(lp683
S'app_folders'
p684
asbag68
(g89
g70
NtRp685
(dp686
g73
(dp687
g100
g101
ssg82
g676
sg75
(lp688
S':'
asbag68
(g89
g70
NtRp689
(dp690
g73
(dp691
sg82
g676
sg75
(lp692
g68
(g69
g70
NtRp693
(dp694
g73
(dp695
g81
I4
ssg82
g689
sg75
(lp696
S"set(['C:\\\\Users\\\\Juliano\\\\Documents\\\\Visual Studio 2012\\\\Projects\\\\PFM-Web\\\\applications\\\\PFM_Web\\\\', 'C:\\\\Users\\\\Juliano\\\\Documents\\\\Visual Studio 2012\\\\Projects\\\\PFM-Web\\\\applications\\\\admin\\\\'])"
p697
asbasbasbag68
(g84
g70
NtRp698
(dp699
g73
(dp700
sg82
g672
sg75
(lp701
g68
(g89
g70
NtRp702
(dp703
g73
(dp704
g93
g94
ssg82
g698
sg75
(lp705
S'applications_parent'
p706
asbag68
(g89
g70
NtRp707
(dp708
g73
(dp709
g100
g101
ssg82
g698
sg75
(lp710
S':'
asbag68
(g89
g70
NtRp711
(dp712
g73
(dp713
sg82
g698
sg75
(lp714
g68
(g69
g70
NtRp715
(dp716
g73
(dp717
g81
I4
ssg82
g711
sg75
(lp718
S'C:\\Users\\Juliano\\Documents\\Visual Studio 2012\\Projects\\PFM-Web'
p719
asbasbasbag68
(g84
g70
NtRp720
(dp721
g73
(dp722
sg82
g672
sg75
(lp723
g68
(g89
g70
NtRp724
(dp725
g73
(dp726
g93
g94
ssg82
g720
sg75
(lp727
S'cmd_args'
p728
asbag68
(g89
g70
NtRp729
(dp730
g73
(dp731
g100
g101
ssg82
g720
sg75
(lp732
S':'
asbag68
(g89
g70
NtRp733
(dp734
g73
(dp735
sg82
g720
sg75
(lp736
g68
(g69
g70
NtRp737
(dp738
g73
(dp739
g81
I4
ssg82
g733
sg75
(lp740
g68
(g77
g70
NtRp741
(dp742
g73
(dp743
g81
I3
ssg82
Nsg75
(lp744
sbasbasbasbag68
(g84
g70
NtRp745
(dp746
g73
(dp747
sg82
g672
sg75
(lp748
g68
(g89
g70
NtRp749
(dp750
g73
(dp751
g93
g94
ssg82
g745
sg75
(lp752
S'cmd_options'
p753
asbag68
(g89
g70
NtRp754
(dp755
g73
(dp756
g100
g101
ssg82
g745
sg75
(lp757
S':'
asbag68
(g89
g70
NtRp758
(dp759
g73
(dp760
sg82
g745
sg75
(lp761
g68
(g69
g70
NtRp762
(dp763
g73
(dp764
g81
I4
ssg82
g758
sg75
(lp765
S"<Values at 0x3426288: {'verbose': False, 'ip': '127.0.0.1', 'with_scheduler': False, 'ips': ['192.168.0.196', 'fe80::2d25:44dc:a58e:afb9%13', '2001:0:9d38:953c:10e6:25ea:3f57:ff3b', 'fe80::10e6:25ea:3f57:ff3b%16'], 'shutdown_timeout': 5, 'taskbar': False, 'port': 8000, 'maxthreads': None, 'softcron': False, 'server_name': 'Hexed', 'bpython': False, 'nogui': False, 'pid_filename': 'httpserver.pid', 'extcron': False, 'runcron': False, 'run_system_tests': False, 'test': None, 'folder': 'C:\\\\Users\\\\Juliano\\\\Documents\\\\Visual Studio 2012\\\\Projects\\\\PFM-Web', 'config': '', 'import_models': False, 'winservice': '', 'shell': None, 'run': '', 'log_filename': 'httpserver.log', 'debuglevel': 30, 'args': [''], 'socket_timeout': 5, 'ssl_ca_certificate': None, 'scheduler': None, 'profiler_filename': None, 'ssl_private_key': '', 'scheduler_groups': None, 'password': '<ask>', 'request_queue_size': 5, 'ssl_certificate': '', 'cronjob': False, 'numthreads': None, 'quiet': False, 'interfaces': None, 'minthreads': None, 'timeout': 10, 'plain': False, 'nobanner': False}>"
p766
asbasbasbag68
(g84
g70
NtRp767
(dp768
g73
(dp769
sg82
g672
sg75
(lp770
g68
(g89
g70
NtRp771
(dp772
g73
(dp773
g93
g94
ssg82
g767
sg75
(lp774
S'db_sessions'
p775
asbag68
(g89
g70
NtRp776
(dp777
g73
(dp778
g100
g101
ssg82
g767
sg75
(lp779
S':'
asbag68
(g89
g70
NtRp780
(dp781
g73
(dp782
sg82
g767
sg75
(lp783
g68
(g69
g70
NtRp784
(dp785
g73
(dp786
g81
I4
ssg82
g780
sg75
(lp787
S'set([])'
p788
asbasbasbag68
(g84
g70
NtRp789
(dp790
g73
(dp791
sg82
g672
sg75
(lp792
g68
(g89
g70
NtRp793
(dp794
g73
(dp795
g93
g94
ssg82
g789
sg75
(lp796
S'debugging'
p797
asbag68
(g89
g70
NtRp798
(dp799
g73
(dp800
g100
g101
ssg82
g789
sg75
(lp801
S':'
asbag68
(g89
g70
NtRp802
(dp803
g73
(dp804
sg82
g789
sg75
(lp805
g68
(g69
g70
NtRp806
(dp807
g73
(dp808
g81
I4
ssg82
g802
sg75
(lp809
g111
asbasbasbag68
(g84
g70
NtRp810
(dp811
g73
(dp812
sg82
g672
sg75
(lp813
g68
(g89
g70
NtRp814
(dp815
g73
(dp816
g93
g94
ssg82
g810
sg75
(lp817
S'gluon_parent'
p818
asbag68
(g89
g70
NtRp819
(dp820
g73
(dp821
g100
g101
ssg82
g810
sg75
(lp822
S':'
asbag68
(g89
g70
NtRp823
(dp824
g73
(dp825
sg82
g810
sg75
(lp826
g68
(g69
g70
NtRp827
(dp828
g73
(dp829
g81
I4
ssg82
g823
sg75
(lp830
S'C:\\Users\\Juliano\\Documents\\Visual Studio 2012\\Projects\\PFM-Web'
p831
asbasbasbag68
(g84
g70
NtRp832
(dp833
g73
(dp834
sg82
g672
sg75
(lp835
g68
(g89
g70
NtRp836
(dp837
g73
(dp838
g93
g94
ssg82
g832
sg75
(lp839
S'http_accept'
p840
asbag68
(g89
g70
NtRp841
(dp842
g73
(dp843
g100
g101
ssg82
g832
sg75
(lp844
S':'
asbag68
(g89
g70
NtRp845
(dp846
g73
(dp847
sg82
g832
sg75
(lp848
g68
(g69
g70
NtRp849
(dp850
g73
(dp851
g81
I4
ssg82
g845
sg75
(lp852
S'text/html, application/xhtml+xml, */*'
p853
asbasbasbag68
(g84
g70
NtRp854
(dp855
g73
(dp856
sg82
g672
sg75
(lp857
g68
(g89
g70
NtRp858
(dp859
g73
(dp860
g93
g94
ssg82
g854
sg75
(lp861
S'http_accept_encoding'
p862
asbag68
(g89
g70
NtRp863
(dp864
g73
(dp865
g100
g101
ssg82
g854
sg75
(lp866
S':'
asbag68
(g89
g70
NtRp867
(dp868
g73
(dp869
sg82
g854
sg75
(lp870
g68
(g69
g70
NtRp871
(dp872
g73
(dp873
g81
I4
ssg82
g867
sg75
(lp874
S'gzip, deflate'
p875
asbasbasbag68
(g84
g70
NtRp876
(dp877
g73
(dp878
sg82
g672
sg75
(lp879
g68
(g89
g70
NtRp880
(dp881
g73
(dp882
g93
g94
ssg82
g876
sg75
(lp883
S'http_accept_language'
p884
asbag68
(g89
g70
NtRp885
(dp886
g73
(dp887
g100
g101
ssg82
g876
sg75
(lp888
S':'
asbag68
(g89
g70
NtRp889
(dp890
g73
(dp891
sg82
g876
sg75
(lp892
g68
(g69
g70
NtRp893
(dp894
g73
(dp895
g81
I4
ssg82
g889
sg75
(lp896
S'pt-BR,pt;q=0.8,en-US;q=0.5,en;q=0.3'
p897
asbasbasbag68
(g84
g70
NtRp898
(dp899
g73
(dp900
sg82
g672
sg75
(lp901
g68
(g89
g70
NtRp902
(dp903
g73
(dp904
g93
g94
ssg82
g898
sg75
(lp905
S'http_connection'
p906
asbag68
(g89
g70
NtRp907
(dp908
g73
(dp909
g100
g101
ssg82
g898
sg75
(lp910
S':'
asbag68
(g89
g70
NtRp911
(dp912
g73
(dp913
sg82
g898
sg75
(lp914
g68
(g69
g70
NtRp915
(dp916
g73
(dp917
g81
I4
ssg82
g911
sg75
(lp918
S'Keep-Alive'
p919
asbasbasbag68
(g84
g70
NtRp920
(dp921
g73
(dp922
sg82
g672
sg75
(lp923
g68
(g89
g70
NtRp924
(dp925
g73
(dp926
g93
g94
ssg82
g920
sg75
(lp927
S'http_cookie'
p928
asbag68
(g89
g70
NtRp929
(dp930
g73
(dp931
g100
g101
ssg82
g920
sg75
(lp932
S':'
asbag68
(g89
g70
NtRp933
(dp934
g73
(dp935
sg82
g920
sg75
(lp936
g68
(g69
g70
NtRp937
(dp938
g73
(dp939
g81
I4
ssg82
g933
sg75
(lp940
S'session_id_admin=127.0.0.1-e12d6916-8656-4736-b975-72200c915786; session_id_pfm_web=127.0.0.1-140a1922-a5d0-44eb-9a21-a4c388e16f08'
p941
asbasbasbag68
(g84
g70
NtRp942
(dp943
g73
(dp944
sg82
g672
sg75
(lp945
g68
(g89
g70
NtRp946
(dp947
g73
(dp948
g93
g94
ssg82
g942
sg75
(lp949
S'http_dnt'
p950
asbag68
(g89
g70
NtRp951
(dp952
g73
(dp953
g100
g101
ssg82
g942
sg75
(lp954
S':'
asbag68
(g89
g70
NtRp955
(dp956
g73
(dp957
sg82
g942
sg75
(lp958
g68
(g69
g70
NtRp959
(dp960
g73
(dp961
g81
I4
ssg82
g955
sg75
(lp962
S'1'
asbasbasbag68
(g84
g70
NtRp963
(dp964
g73
(dp965
sg82
g672
sg75
(lp966
g68
(g89
g70
NtRp967
(dp968
g73
(dp969
g93
g94
ssg82
g963
sg75
(lp970
S'http_host'
p971
asbag68
(g89
g70
NtRp972
(dp973
g73
(dp974
g100
g101
ssg82
g963
sg75
(lp975
S':'
asbag68
(g89
g70
NtRp976
(dp977
g73
(dp978
sg82
g963
sg75
(lp979
g68
(g69
g70
NtRp980
(dp981
g73
(dp982
g81
I4
ssg82
g976
sg75
(lp983
S'127.0.0.1:8000'
p984
asbasbasbag68
(g84
g70
NtRp985
(dp986
g73
(dp987
sg82
g672
sg75
(lp988
g68
(g89
g70
NtRp989
(dp990
g73
(dp991
g93
g94
ssg82
g985
sg75
(lp992
S'http_user_agent'
p993
asbag68
(g89
g70
NtRp994
(dp995
g73
(dp996
g100
g101
ssg82
g985
sg75
(lp997
S':'
asbag68
(g89
g70
NtRp998
(dp999
g73
(dp1000
sg82
g985
sg75
(lp1001
g68
(g69
g70
NtRp1002
(dp1003
g73
(dp1004
g81
I4
ssg82
g998
sg75
(lp1005
S'Mozilla/5.0 (compatible; MSIE 10.0; Windows NT 6.2; WOW64; Trident/6.0)'
p1006
asbasbasbag68
(g84
g70
NtRp1007
(dp1008
g73
(dp1009
sg82
g672
sg75
(lp1010
g68
(g89
g70
NtRp1011
(dp1012
g73
(dp1013
g93
g94
ssg82
g1007
sg75
(lp1014
S'is_jython'
p1015
asbag68
(g89
g70
NtRp1016
(dp1017
g73
(dp1018
g100
g101
ssg82
g1007
sg75
(lp1019
S':'
asbag68
(g89
g70
NtRp1020
(dp1021
g73
(dp1022
sg82
g1007
sg75
(lp1023
g68
(g69
g70
NtRp1024
(dp1025
g73
(dp1026
g81
I4
ssg82
g1020
sg75
(lp1027
g111
asbasbasbag68
(g84
g70
NtRp1028
(dp1029
g73
(dp1030
sg82
g672
sg75
(lp1031
g68
(g89
g70
NtRp1032
(dp1033
g73
(dp1034
g93
g94
ssg82
g1028
sg75
(lp1035
S'is_pypy'
p1036
asbag68
(g89
g70
NtRp1037
(dp1038
g73
(dp1039
g100
g101
ssg82
g1028
sg75
(lp1040
S':'
asbag68
(g89
g70
NtRp1041
(dp1042
g73
(dp1043
sg82
g1028
sg75
(lp1044
g68
(g69
g70
NtRp1045
(dp1046
g73
(dp1047
g81
I4
ssg82
g1041
sg75
(lp1048
g111
asbasbasbag68
(g84
g70
NtRp1049
(dp1050
g73
(dp1051
sg82
g672
sg75
(lp1052
g68
(g89
g70
NtRp1053
(dp1054
g73
(dp1055
g93
g94
ssg82
g1049
sg75
(lp1056
S'local_hosts'
p1057
asbag68
(g89
g70
NtRp1058
(dp1059
g73
(dp1060
g100
g101
ssg82
g1049
sg75
(lp1061
S':'
asbag68
(g89
g70
NtRp1062
(dp1063
g73
(dp1064
sg82
g1049
sg75
(lp1065
g68
(g69
g70
NtRp1066
(dp1067
g73
(dp1068
g81
I4
ssg82
g1062
sg75
(lp1069
g68
(g77
g70
NtRp1070
(dp1071
g73
(dp1072
g81
I3
ssg82
Nsg75
(lp1073
g68
(g84
g70
NtRp1074
(dp1075
g73
(dp1076
sg82
g1070
sg75
(lp1077
g68
(g89
g70
NtRp1078
(dp1079
g73
(dp1080
sg82
g1074
sg75
(lp1081
g68
(g69
g70
NtRp1082
(dp1083
g73
(dp1084
g81
I3
ssg82
g1078
sg75
(lp1085
S'192.168.0.196'
p1086
asbasbasbag68
(g84
g70
NtRp1087
(dp1088
g73
(dp1089
sg82
g1070
sg75
(lp1090
g68
(g89
g70
NtRp1091
(dp1092
g73
(dp1093
sg82
g1087
sg75
(lp1094
g68
(g69
g70
NtRp1095
(dp1096
g73
(dp1097
g81
I3
ssg82
g1091
sg75
(lp1098
S'2001:0:9d38:953c:10e6:25ea:3f57:ff3b'
p1099
asbasbasbag68
(g84
g70
NtRp1100
(dp1101
g73
(dp1102
sg82
g1070
sg75
(lp1103
g68
(g89
g70
NtRp1104
(dp1105
g73
(dp1106
sg82
g1100
sg75
(lp1107
g68
(g69
g70
NtRp1108
(dp1109
g73
(dp1110
g81
I3
ssg82
g1104
sg75
(lp1111
S'::ffff:127.0.0.1'
p1112
asbasbasbag68
(g84
g70
NtRp1113
(dp1114
g73
(dp1115
sg82
g1070
sg75
(lp1116
g68
(g89
g70
NtRp1117
(dp1118
g73
(dp1119
sg82
g1113
sg75
(lp1120
g68
(g69
g70
NtRp1121
(dp1122
g73
(dp1123
g81
I3
ssg82
g1117
sg75
(lp1124
S'::1'
p1125
asbasbasbag68
(g84
g70
NtRp1126
(dp1127
g73
(dp1128
sg82
g1070
sg75
(lp1129
g68
(g89
g70
NtRp1130
(dp1131
g73
(dp1132
sg82
g1126
sg75
(lp1133
g68
(g69
g70
NtRp1134
(dp1135
g73
(dp1136
g81
I3
ssg82
g1130
sg75
(lp1137
S'fe80::10e6:25ea:3f57:ff3b%16'
p1138
asbasbasbag68
(g84
g70
NtRp1139
(dp1140
g73
(dp1141
sg82
g1070
sg75
(lp1142
g68
(g89
g70
NtRp1143
(dp1144
g73
(dp1145
sg82
g1139
sg75
(lp1146
g68
(g69
g70
NtRp1147
(dp1148
g73
(dp1149
g81
I3
ssg82
g1143
sg75
(lp1150
S'fe80::2d25:44dc:a58e:afb9%13'
p1151
asbasbasbag68
(g84
g70
NtRp1152
(dp1153
g73
(dp1154
sg82
g1070
sg75
(lp1155
g68
(g89
g70
NtRp1156
(dp1157
g73
(dp1158
sg82
g1152
sg75
(lp1159
g68
(g69
g70
NtRp1160
(dp1161
g73
(dp1162
g81
I3
ssg82
g1156
sg75
(lp1163
S'Hexed'
p1164
asbasbasbag68
(g84
g70
NtRp1165
(dp1166
g73
(dp1167
sg82
g1070
sg75
(lp1168
g68
(g89
g70
NtRp1169
(dp1170
g73
(dp1171
sg82
g1165
sg75
(lp1172
g68
(g69
g70
NtRp1173
(dp1174
g73
(dp1175
g81
I3
ssg82
g1169
sg75
(lp1176
S'127.0.0.1'
p1177
asbasbasbasbasbasbasbag68
(g84
g70
NtRp1178
(dp1179
g73
(dp1180
sg82
g672
sg75
(lp1181
g68
(g89
g70
NtRp1182
(dp1183
g73
(dp1184
g93
g94
ssg82
g1178
sg75
(lp1185
S'path_info'
p1186
asbag68
(g89
g70
NtRp1187
(dp1188
g73
(dp1189
g100
g101
ssg82
g1178
sg75
(lp1190
S':'
asbag68
(g89
g70
NtRp1191
(dp1192
g73
(dp1193
sg82
g1178
sg75
(lp1194
g68
(g69
g70
NtRp1195
(dp1196
g73
(dp1197
g81
I4
ssg82
g1191
sg75
(lp1198
S'/PFM_Web/expenses/index'
p1199
asbasbasbag68
(g84
g70
NtRp1200
(dp1201
g73
(dp1202
sg82
g672
sg75
(lp1203
g68
(g89
g70
NtRp1204
(dp1205
g73
(dp1206
g93
g94
ssg82
g1200
sg75
(lp1207
S'query_string'
p1208
asbag68
(g89
g70
NtRp1209
(dp1210
g73
(dp1211
g100
g101
ssg82
g1200
sg75
(lp1212
S':'
asbag68
(g89
g70
NtRp1213
(dp1214
g73
(dp1215
sg82
g1200
sg75
(lp1216
g68
(g69
g70
NtRp1217
(dp1218
g73
(dp1219
g81
I4
ssg82
g1213
sg75
(lp1220
S''
asbasbasbag68
(g84
g70
NtRp1221
(dp1222
g73
(dp1223
sg82
g672
sg75
(lp1224
g68
(g89
g70
NtRp1225
(dp1226
g73
(dp1227
g93
g94
ssg82
g1221
sg75
(lp1228
S'remote_addr'
p1229
asbag68
(g89
g70
NtRp1230
(dp1231
g73
(dp1232
g100
g101
ssg82
g1221
sg75
(lp1233
S':'
asbag68
(g89
g70
NtRp1234
(dp1235
g73
(dp1236
sg82
g1221
sg75
(lp1237
g68
(g69
g70
NtRp1238
(dp1239
g73
(dp1240
g81
I4
ssg82
g1234
sg75
(lp1241
g223
asbasbasbag68
(g84
g70
NtRp1242
(dp1243
g73
(dp1244
sg82
g672
sg75
(lp1245
g68
(g89
g70
NtRp1246
(dp1247
g73
(dp1248
g93
g94
ssg82
g1242
sg75
(lp1249
S'remote_port'
p1250
asbag68
(g89
g70
NtRp1251
(dp1252
g73
(dp1253
g100
g101
ssg82
g1242
sg75
(lp1254
S':'
asbag68
(g89
g70
NtRp1255
(dp1256
g73
(dp1257
sg82
g1242
sg75
(lp1258
g68
(g69
g70
NtRp1259
(dp1260
g73
(dp1261
g81
I4
ssg82
g1255
sg75
(lp1262
S'64728'
p1263
asbasbasbag68
(g84
g70
NtRp1264
(dp1265
g73
(dp1266
sg82
g672
sg75
(lp1267
g68
(g89
g70
NtRp1268
(dp1269
g73
(dp1270
g93
g94
ssg82
g1264
sg75
(lp1271
S'request_method'
p1272
asbag68
(g89
g70
NtRp1273
(dp1274
g73
(dp1275
g100
g101
ssg82
g1264
sg75
(lp1276
S':'
asbag68
(g89
g70
NtRp1277
(dp1278
g73
(dp1279
sg82
g1264
sg75
(lp1280
g68
(g69
g70
NtRp1281
(dp1282
g73
(dp1283
g81
I4
ssg82
g1277
sg75
(lp1284
S'GET'
p1285
asbasbasbag68
(g84
g70
NtRp1286
(dp1287
g73
(dp1288
sg82
g672
sg75
(lp1289
g68
(g89
g70
NtRp1290
(dp1291
g73
(dp1292
g93
g94
ssg82
g1286
sg75
(lp1293
S'request_uri'
p1294
asbag68
(g89
g70
NtRp1295
(dp1296
g73
(dp1297
g100
g101
ssg82
g1286
sg75
(lp1298
S':'
asbag68
(g89
g70
NtRp1299
(dp1300
g73
(dp1301
sg82
g1286
sg75
(lp1302
g68
(g69
g70
NtRp1303
(dp1304
g73
(dp1305
g81
I4
ssg82
g1299
sg75
(lp1306
g1199
asbasbasbag68
(g84
g70
NtRp1307
(dp1308
g73
(dp1309
sg82
g672
sg75
(lp1310
g68
(g89
g70
NtRp1311
(dp1312
g73
(dp1313
g93
g94
ssg82
g1307
sg75
(lp1314
S'script_name'
p1315
asbag68
(g89
g70
NtRp1316
(dp1317
g73
(dp1318
g100
g101
ssg82
g1307
sg75
(lp1319
S':'
asbag68
(g89
g70
NtRp1320
(dp1321
g73
(dp1322
sg82
g1307
sg75
(lp1323
g68
(g69
g70
NtRp1324
(dp1325
g73
(dp1326
g81
I4
ssg82
g1320
sg75
(lp1327
S''
asbasbasbag68
(g84
g70
NtRp1328
(dp1329
g73
(dp1330
sg82
g672
sg75
(lp1331
g68
(g89
g70
NtRp1332
(dp1333
g73
(dp1334
g93
g94
ssg82
g1328
sg75
(lp1335
S'server_name'
p1336
asbag68
(g89
g70
NtRp1337
(dp1338
g73
(dp1339
g100
g101
ssg82
g1328
sg75
(lp1340
S':'
asbag68
(g89
g70
NtRp1341
(dp1342
g73
(dp1343
sg82
g1328
sg75
(lp1344
g68
(g69
g70
NtRp1345
(dp1346
g73
(dp1347
g81
I4
ssg82
g1341
sg75
(lp1348
S'Hexed'
p1349
asbasbasbag68
(g84
g70
NtRp1350
(dp1351
g73
(dp1352
sg82
g672
sg75
(lp1353
g68
(g89
g70
NtRp1354
(dp1355
g73
(dp1356
g93
g94
ssg82
g1350
sg75
(lp1357
S'server_port'
p1358
asbag68
(g89
g70
NtRp1359
(dp1360
g73
(dp1361
g100
g101
ssg82
g1350
sg75
(lp1362
S':'
asbag68
(g89
g70
NtRp1363
(dp1364
g73
(dp1365
sg82
g1350
sg75
(lp1366
g68
(g69
g70
NtRp1367
(dp1368
g73
(dp1369
g81
I4
ssg82
g1363
sg75
(lp1370
S'8000'
p1371
asbasbasbag68
(g84
g70
NtRp1372
(dp1373
g73
(dp1374
sg82
g672
sg75
(lp1375
g68
(g89
g70
NtRp1376
(dp1377
g73
(dp1378
g93
g94
ssg82
g1372
sg75
(lp1379
S'server_protocol'
p1380
asbag68
(g89
g70
NtRp1381
(dp1382
g73
(dp1383
g100
g101
ssg82
g1372
sg75
(lp1384
S':'
asbag68
(g89
g70
NtRp1385
(dp1386
g73
(dp1387
sg82
g1372
sg75
(lp1388
g68
(g69
g70
NtRp1389
(dp1390
g73
(dp1391
g81
I4
ssg82
g1385
sg75
(lp1392
S'HTTP/1.1'
p1393
asbasbasbag68
(g84
g70
NtRp1394
(dp1395
g73
(dp1396
sg82
g672
sg75
(lp1397
g68
(g89
g70
NtRp1398
(dp1399
g73
(dp1400
g93
g94
ssg82
g1394
sg75
(lp1401
S'server_software'
p1402
asbag68
(g89
g70
NtRp1403
(dp1404
g73
(dp1405
g100
g101
ssg82
g1394
sg75
(lp1406
S':'
asbag68
(g89
g70
NtRp1407
(dp1408
g73
(dp1409
sg82
g1394
sg75
(lp1410
g68
(g69
g70
NtRp1411
(dp1412
g73
(dp1413
g81
I4
ssg82
g1407
sg75
(lp1414
S'Rocket 1.2.6'
p1415
asbasbasbag68
(g84
g70
NtRp1416
(dp1417
g73
(dp1418
sg82
g672
sg75
(lp1419
g68
(g89
g70
NtRp1420
(dp1421
g73
(dp1422
g93
g94
ssg82
g1416
sg75
(lp1423
S'web2py_original_uri'
p1424
asbag68
(g89
g70
NtRp1425
(dp1426
g73
(dp1427
g100
g101
ssg82
g1416
sg75
(lp1428
S':'
asbag68
(g89
g70
NtRp1429
(dp1430
g73
(dp1431
sg82
g1416
sg75
(lp1432
g68
(g69
g70
NtRp1433
(dp1434
g73
(dp1435
g81
I4
ssg82
g1429
sg75
(lp1436
S'/PFM_Web/expenses/index'
p1437
asbasbasbag68
(g84
g70
NtRp1438
(dp1439
g73
(dp1440
sg82
g672
sg75
(lp1441
g68
(g89
g70
NtRp1442
(dp1443
g73
(dp1444
g93
g94
ssg82
g1438
sg75
(lp1445
S'web2py_path'
p1446
asbag68
(g89
g70
NtRp1447
(dp1448
g73
(dp1449
g100
g101
ssg82
g1438
sg75
(lp1450
S':'
asbag68
(g89
g70
NtRp1451
(dp1452
g73
(dp1453
sg82
g1438
sg75
(lp1454
g68
(g69
g70
NtRp1455
(dp1456
g73
(dp1457
g81
I4
ssg82
g1451
sg75
(lp1458
g719
asbasbasbag68
(g84
g70
NtRp1459
(dp1460
g73
(dp1461
sg82
g672
sg75
(lp1462
g68
(g89
g70
NtRp1463
(dp1464
g73
(dp1465
g93
g94
ssg82
g1459
sg75
(lp1466
S'web2py_version'
p1467
asbag68
(g89
g70
NtRp1468
(dp1469
g73
(dp1470
g100
g101
ssg82
g1459
sg75
(lp1471
S':'
asbag68
(g89
g70
NtRp1472
(dp1473
g73
(dp1474
sg82
g1459
sg75
(lp1475
g68
(g69
g70
NtRp1476
(dp1477
g73
(dp1478
g81
I4
ssg82
g1472
sg75
(lp1479
g68
(g77
g70
NtRp1480
(dp1481
g73
(dp1482
g81
I3
ssg82
Nsg75
(lp1483
g68
(g84
g70
NtRp1484
(dp1485
g73
(dp1486
sg82
g1480
sg75
(lp1487
g68
(g89
g70
NtRp1488
(dp1489
g73
(dp1490
sg82
g1484
sg75
(lp1491
g68
(g69
g70
NtRp1492
(dp1493
g73
(dp1494
g81
I3
ssg82
g1488
sg75
(lp1495
S'2'
asbasbasbag68
(g84
g70
NtRp1496
(dp1497
g73
(dp1498
sg82
g1480
sg75
(lp1499
g68
(g89
g70
NtRp1500
(dp1501
g73
(dp1502
sg82
g1496
sg75
(lp1503
g68
(g69
g70
NtRp1504
(dp1505
g73
(dp1506
g81
I3
ssg82
g1500
sg75
(lp1507
S'3'
asbasbasbag68
(g84
g70
NtRp1508
(dp1509
g73
(dp1510
sg82
g1480
sg75
(lp1511
g68
(g89
g70
NtRp1512
(dp1513
g73
(dp1514
sg82
g1508
sg75
(lp1515
g68
(g69
g70
NtRp1516
(dp1517
g73
(dp1518
g81
I3
ssg82
g1512
sg75
(lp1519
S'2'
asbasbasbag68
(g84
g70
NtRp1520
(dp1521
g73
(dp1522
sg82
g1480
sg75
(lp1523
g68
(g89
g70
NtRp1524
(dp1525
g73
(dp1526
sg82
g1520
sg75
(lp1527
g68
(g69
g70
NtRp1528
(dp1529
g73
(dp1530
g81
I3
ssg82
g1524
sg75
(lp1531
S'datetime.datetime(2012, 12, 17, 15, 3, 30)'
p1532
asbasbasbag68
(g84
g70
NtRp1533
(dp1534
g73
(dp1535
sg82
g1480
sg75
(lp1536
g68
(g89
g70
NtRp1537
(dp1538
g73
(dp1539
sg82
g1533
sg75
(lp1540
g68
(g69
g70
NtRp1541
(dp1542
g73
(dp1543
g81
I3
ssg82
g1537
sg75
(lp1544
S'stable'
p1545
asbasbasbasbasbasbasbag68
(g84
g70
NtRp1546
(dp1547
g73
(dp1548
sg82
g672
sg75
(lp1549
g68
(g89
g70
NtRp1550
(dp1551
g73
(dp1552
g93
g94
ssg82
g1546
sg75
(lp1553
S'wsgi_errors'
p1554
asbag68
(g89
g70
NtRp1555
(dp1556
g73
(dp1557
g100
g101
ssg82
g1546
sg75
(lp1558
S':'
asbag68
(g89
g70
NtRp1559
(dp1560
g73
(dp1561
sg82
g1546
sg75
(lp1562
g68
(g69
g70
NtRp1563
(dp1564
g73
(dp1565
g81
I4
ssg82
g1559
sg75
(lp1566
S"<open file '<stderr>', mode 'w' at 0x0000000001D871E0>"
p1567
asbasbasbag68
(g84
g70
NtRp1568
(dp1569
g73
(dp1570
sg82
g672
sg75
(lp1571
g68
(g89
g70
NtRp1572
(dp1573
g73
(dp1574
g93
g94
ssg82
g1568
sg75
(lp1575
S'wsgi_file_wrapper'
p1576
asbag68
(g89
g70
NtRp1577
(dp1578
g73
(dp1579
g100
g101
ssg82
g1568
sg75
(lp1580
S':'
asbag68
(g89
g70
NtRp1581
(dp1582
g73
(dp1583
sg82
g1568
sg75
(lp1584
g68
(g69
g70
NtRp1585
(dp1586
g73
(dp1587
g81
I4
ssg82
g1581
sg75
(lp1588
S'<class wsgiref.util.FileWrapper at 0x00000000033AE7C8>'
p1589
asbasbasbag68
(g84
g70
NtRp1590
(dp1591
g73
(dp1592
sg82
g672
sg75
(lp1593
g68
(g89
g70
NtRp1594
(dp1595
g73
(dp1596
g93
g94
ssg82
g1590
sg75
(lp1597
S'wsgi_input'
p1598
asbag68
(g89
g70
NtRp1599
(dp1600
g73
(dp1601
g100
g101
ssg82
g1590
sg75
(lp1602
S':'
asbag68
(g89
g70
NtRp1603
(dp1604
g73
(dp1605
sg82
g1590
sg75
(lp1606
g68
(g69
g70
NtRp1607
(dp1608
g73
(dp1609
g81
I4
ssg82
g1603
sg75
(lp1610
S'<socket._fileobject object at 0x0000000008587D68>'
p1611
asbasbasbag68
(g84
g70
NtRp1612
(dp1613
g73
(dp1614
sg82
g672
sg75
(lp1615
g68
(g89
g70
NtRp1616
(dp1617
g73
(dp1618
g93
g94
ssg82
g1612
sg75
(lp1619
S'wsgi_multiprocess'
p1620
asbag68
(g89
g70
NtRp1621
(dp1622
g73
(dp1623
g100
g101
ssg82
g1612
sg75
(lp1624
S':'
asbag68
(g89
g70
NtRp1625
(dp1626
g73
(dp1627
sg82
g1612
sg75
(lp1628
g68
(g69
g70
NtRp1629
(dp1630
g73
(dp1631
g81
I4
ssg82
g1625
sg75
(lp1632
g111
asbasbasbag68
(g84
g70
NtRp1633
(dp1634
g73
(dp1635
sg82
g672
sg75
(lp1636
g68
(g89
g70
NtRp1637
(dp1638
g73
(dp1639
g93
g94
ssg82
g1633
sg75
(lp1640
S'wsgi_multithread'
p1641
asbag68
(g89
g70
NtRp1642
(dp1643
g73
(dp1644
g100
g101
ssg82
g1633
sg75
(lp1645
S':'
asbag68
(g89
g70
NtRp1646
(dp1647
g73
(dp1648
sg82
g1633
sg75
(lp1649
g68
(g69
g70
NtRp1650
(dp1651
g73
(dp1652
g81
I4
ssg82
g1646
sg75
(lp1653
S'True'
p1654
asbasbasbag68
(g84
g70
NtRp1655
(dp1656
g73
(dp1657
sg82
g672
sg75
(lp1658
g68
(g89
g70
NtRp1659
(dp1660
g73
(dp1661
g93
g94
ssg82
g1655
sg75
(lp1662
S'wsgi_run_once'
p1663
asbag68
(g89
g70
NtRp1664
(dp1665
g73
(dp1666
g100
g101
ssg82
g1655
sg75
(lp1667
S':'
asbag68
(g89
g70
NtRp1668
(dp1669
g73
(dp1670
sg82
g1655
sg75
(lp1671
g68
(g69
g70
NtRp1672
(dp1673
g73
(dp1674
g81
I4
ssg82
g1668
sg75
(lp1675
g111
asbasbasbag68
(g84
g70
NtRp1676
(dp1677
g73
(dp1678
sg82
g672
sg75
(lp1679
g68
(g89
g70
NtRp1680
(dp1681
g73
(dp1682
g93
g94
ssg82
g1676
sg75
(lp1683
S'wsgi_url_scheme'
p1684
asbag68
(g89
g70
NtRp1685
(dp1686
g73
(dp1687
g100
g101
ssg82
g1676
sg75
(lp1688
S':'
asbag68
(g89
g70
NtRp1689
(dp1690
g73
(dp1691
sg82
g1676
sg75
(lp1692
g68
(g69
g70
NtRp1693
(dp1694
g73
(dp1695
g81
I4
ssg82
g1689
sg75
(lp1696
S'http'
p1697
asbasbasbag68
(g84
g70
NtRp1698
(dp1699
g73
(dp1700
sg82
g672
sg75
(lp1701
g68
(g89
g70
NtRp1702
(dp1703
g73
(dp1704
g93
g94
ssg82
g1698
sg75
(lp1705
S'wsgi_version'
p1706
asbag68
(g89
g70
NtRp1707
(dp1708
g73
(dp1709
g100
g101
ssg82
g1698
sg75
(lp1710
S':'
asbag68
(g89
g70
NtRp1711
(dp1712
g73
(dp1713
sg82
g1698
sg75
(lp1714
g68
(g69
g70
NtRp1715
(dp1716
g73
(dp1717
g81
I4
ssg82
g1711
sg75
(lp1718
g68
(g77
g70
NtRp1719
(dp1720
g73
(dp1721
g81
I3
ssg82
Nsg75
(lp1722
g68
(g84
g70
NtRp1723
(dp1724
g73
(dp1725
sg82
g1719
sg75
(lp1726
g68
(g89
g70
NtRp1727
(dp1728
g73
(dp1729
sg82
g1723
sg75
(lp1730
g68
(g69
g70
NtRp1731
(dp1732
g73
(dp1733
g81
I3
ssg82
g1727
sg75
(lp1734
S'1'
asbasbasbag68
(g84
g70
NtRp1735
(dp1736
g73
(dp1737
sg82
g1719
sg75
(lp1738
g68
(g89
g70
NtRp1739
(dp1740
g73
(dp1741
sg82
g1735
sg75
(lp1742
g68
(g69
g70
NtRp1743
(dp1744
g73
(dp1745
g81
I3
ssg82
g1739
sg75
(lp1746
S'0'
asbasbasbasbasbasbasbasbasbasbasbag68
(g84
g70
NtRp1747
(dp1748
g73
(dp1749
sg82
g78
sg75
(lp1750
g68
(g89
g70
NtRp1751
(dp1752
g73
(dp1753
g93
g94
ssg82
g1747
sg75
(lp1754
S'extension'
p1755
asbag68
(g89
g70
NtRp1756
(dp1757
g73
(dp1758
g100
g101
ssg82
g1747
sg75
(lp1759
S':'
asbag68
(g89
g70
NtRp1760
(dp1761
g73
(dp1762
sg82
g1747
sg75
(lp1763
g68
(g69
g70
NtRp1764
(dp1765
g73
(dp1766
g81
I5
ssg82
g1760
sg75
(lp1767
S'html'
p1768
asbasbasbag68
(g84
g70
NtRp1769
(dp1770
g73
(dp1771
sg82
g78
sg75
(lp1772
g68
(g89
g70
NtRp1773
(dp1774
g73
(dp1775
g93
g94
ssg82
g1769
sg75
(lp1776
S'folder'
p1777
asbag68
(g89
g70
NtRp1778
(dp1779
g73
(dp1780
g100
g101
ssg82
g1769
sg75
(lp1781
S':'
asbag68
(g89
g70
NtRp1782
(dp1783
g73
(dp1784
sg82
g1769
sg75
(lp1785
g68
(g69
g70
NtRp1786
(dp1787
g73
(dp1788
g81
I5
ssg82
g1782
sg75
(lp1789
S'C:\\Users\\Juliano\\Documents\\Visual Studio 2012\\Projects\\PFM-Web\\applications\\PFM_Web\\'
p1790
asbasbasbag68
(g84
g70
NtRp1791
(dp1792
g73
(dp1793
sg82
g78
sg75
(lp1794
g68
(g89
g70
NtRp1795
(dp1796
g73
(dp1797
g93
g94
ssg82
g1791
sg75
(lp1798
S'function'
p1799
asbag68
(g89
g70
NtRp1800
(dp1801
g73
(dp1802
g100
g101
ssg82
g1791
sg75
(lp1803
S':'
asbag68
(g89
g70
NtRp1804
(dp1805
g73
(dp1806
sg82
g1791
sg75
(lp1807
g68
(g69
g70
NtRp1808
(dp1809
g73
(dp1810
g81
I5
ssg82
g1804
sg75
(lp1811
S'index'
p1812
asbasbasbag68
(g84
g70
NtRp1813
(dp1814
g73
(dp1815
sg82
g78
sg75
(lp1816
g68
(g89
g70
NtRp1817
(dp1818
g73
(dp1819
g93
g94
ssg82
g1813
sg75
(lp1820
S'get_vars'
p1821
asbag68
(g89
g70
NtRp1822
(dp1823
g73
(dp1824
g100
g101
ssg82
g1813
sg75
(lp1825
S':'
asbag68
(g89
g70
NtRp1826
(dp1827
g73
(dp1828
sg82
g1813
sg75
(lp1829
g68
(g69
g70
NtRp1830
(dp1831
g73
(dp1832
g81
I5
ssg82
g1826
sg75
(lp1833
g68
(g77
g70
NtRp1834
(dp1835
g73
(dp1836
g81
I4
ssg82
Nsg75
(lp1837
sbasbasbasbag68
(g84
g70
NtRp1838
(dp1839
g73
(dp1840
sg82
g78
sg75
(lp1841
g68
(g89
g70
NtRp1842
(dp1843
g73
(dp1844
g93
g94
ssg82
g1838
sg75
(lp1845
S'global_settings'
p1846
asbag68
(g89
g70
NtRp1847
(dp1848
g73
(dp1849
g100
g101
ssg82
g1838
sg75
(lp1850
S':'
asbag68
(g89
g70
NtRp1851
(dp1852
g73
(dp1853
sg82
g1838
sg75
(lp1854
g68
(g69
g70
NtRp1855
(dp1856
g73
(dp1857
g81
I5
ssg82
g1851
sg75
(lp1858
g68
(g77
g70
NtRp1859
(dp1860
g73
(dp1861
g81
I4
ssg82
Nsg75
(lp1862
g68
(g84
g70
NtRp1863
(dp1864
g73
(dp1865
sg82
g1859
sg75
(lp1866
g68
(g89
g70
NtRp1867
(dp1868
g73
(dp1869
g93
g94
ssg82
g1863
sg75
(lp1870
g684
asbag68
(g89
g70
NtRp1871
(dp1872
g73
(dp1873
g100
g101
ssg82
g1863
sg75
(lp1874
S':'
asbag68
(g89
g70
NtRp1875
(dp1876
g73
(dp1877
sg82
g1863
sg75
(lp1878
g68
(g69
g70
NtRp1879
(dp1880
g73
(dp1881
g81
I4
ssg82
g1875
sg75
(lp1882
S"set(['C:\\\\Users\\\\Juliano\\\\Documents\\\\Visual Studio 2012\\\\Projects\\\\PFM-Web\\\\applications\\\\PFM_Web\\\\', 'C:\\\\Users\\\\Juliano\\\\Documents\\\\Visual Studio 2012\\\\Projects\\\\PFM-Web\\\\applications\\\\admin\\\\'])"
p1883
asbasbasbag68
(g84
g70
NtRp1884
(dp1885
g73
(dp1886
sg82
g1859
sg75
(lp1887
g68
(g89
g70
NtRp1888
(dp1889
g73
(dp1890
g93
g94
ssg82
g1884
sg75
(lp1891
g706
asbag68
(g89
g70
NtRp1892
(dp1893
g73
(dp1894
g100
g101
ssg82
g1884
sg75
(lp1895
S':'
asbag68
(g89
g70
NtRp1896
(dp1897
g73
(dp1898
sg82
g1884
sg75
(lp1899
g68
(g69
g70
NtRp1900
(dp1901
g73
(dp1902
g81
I4
ssg82
g1896
sg75
(lp1903
g719
asbasbasbag68
(g84
g70
NtRp1904
(dp1905
g73
(dp1906
sg82
g1859
sg75
(lp1907
g68
(g89
g70
NtRp1908
(dp1909
g73
(dp1910
g93
g94
ssg82
g1904
sg75
(lp1911
g728
asbag68
(g89
g70
NtRp1912
(dp1913
g73
(dp1914
g100
g101
ssg82
g1904
sg75
(lp1915
S':'
asbag68
(g89
g70
NtRp1916
(dp1917
g73
(dp1918
sg82
g1904
sg75
(lp1919
g68
(g69
g70
NtRp1920
(dp1921
g73
(dp1922
g81
I4
ssg82
g1916
sg75
(lp1923
g68
(g77
g70
NtRp1924
(dp1925
g73
(dp1926
g81
I3
ssg82
Nsg75
(lp1927
sbasbasbasbag68
(g84
g70
NtRp1928
(dp1929
g73
(dp1930
sg82
g1859
sg75
(lp1931
g68
(g89
g70
NtRp1932
(dp1933
g73
(dp1934
g93
g94
ssg82
g1928
sg75
(lp1935
g753
asbag68
(g89
g70
NtRp1936
(dp1937
g73
(dp1938
g100
g101
ssg82
g1928
sg75
(lp1939
S':'
asbag68
(g89
g70
NtRp1940
(dp1941
g73
(dp1942
sg82
g1928
sg75
(lp1943
g68
(g69
g70
NtRp1944
(dp1945
g73
(dp1946
g81
I4
ssg82
g1940
sg75
(lp1947
S"<Values at 0x3426288: {'verbose': False, 'ip': '127.0.0.1', 'with_scheduler': False, 'ips': ['192.168.0.196', 'fe80::2d25:44dc:a58e:afb9%13', '2001:0:9d38:953c:10e6:25ea:3f57:ff3b', 'fe80::10e6:25ea:3f57:ff3b%16'], 'shutdown_timeout': 5, 'taskbar': False, 'port': 8000, 'maxthreads': None, 'softcron': False, 'server_name': 'Hexed', 'bpython': False, 'nogui': False, 'pid_filename': 'httpserver.pid', 'extcron': False, 'runcron': False, 'run_system_tests': False, 'test': None, 'folder': 'C:\\\\Users\\\\Juliano\\\\Documents\\\\Visual Studio 2012\\\\Projects\\\\PFM-Web', 'config': '', 'import_models': False, 'winservice': '', 'shell': None, 'run': '', 'log_filename': 'httpserver.log', 'debuglevel': 30, 'args': [''], 'socket_timeout': 5, 'ssl_ca_certificate': None, 'scheduler': None, 'profiler_filename': None, 'ssl_private_key': '', 'scheduler_groups': None, 'password': '<ask>', 'request_queue_size': 5, 'ssl_certificate': '', 'cronjob': False, 'numthreads': None, 'quiet': False, 'interfaces': None, 'minthreads': None, 'timeout': 10, 'plain': False, 'nobanner': False}>"
p1948
asbasbasbag68
(g84
g70
NtRp1949
(dp1950
g73
(dp1951
sg82
g1859
sg75
(lp1952
g68
(g89
g70
NtRp1953
(dp1954
g73
(dp1955
g93
g94
ssg82
g1949
sg75
(lp1956
g775
asbag68
(g89
g70
NtRp1957
(dp1958
g73
(dp1959
g100
g101
ssg82
g1949
sg75
(lp1960
S':'
asbag68
(g89
g70
NtRp1961
(dp1962
g73
(dp1963
sg82
g1949
sg75
(lp1964
g68
(g69
g70
NtRp1965
(dp1966
g73
(dp1967
g81
I4
ssg82
g1961
sg75
(lp1968
S'set([])'
p1969
asbasbasbag68
(g84
g70
NtRp1970
(dp1971
g73
(dp1972
sg82
g1859
sg75
(lp1973
g68
(g89
g70
NtRp1974
(dp1975
g73
(dp1976
g93
g94
ssg82
g1970
sg75
(lp1977
g797
asbag68
(g89
g70
NtRp1978
(dp1979
g73
(dp1980
g100
g101
ssg82
g1970
sg75
(lp1981
S':'
asbag68
(g89
g70
NtRp1982
(dp1983
g73
(dp1984
sg82
g1970
sg75
(lp1985
g68
(g69
g70
NtRp1986
(dp1987
g73
(dp1988
g81
I4
ssg82
g1982
sg75
(lp1989
g111
asbasbasbag68
(g84
g70
NtRp1990
(dp1991
g73
(dp1992
sg82
g1859
sg75
(lp1993
g68
(g89
g70
NtRp1994
(dp1995
g73
(dp1996
g93
g94
ssg82
g1990
sg75
(lp1997
g818
asbag68
(g89
g70
NtRp1998
(dp1999
g73
(dp2000
g100
g101
ssg82
g1990
sg75
(lp2001
S':'
asbag68
(g89
g70
NtRp2002
(dp2003
g73
(dp2004
sg82
g1990
sg75
(lp2005
g68
(g69
g70
NtRp2006
(dp2007
g73
(dp2008
g81
I4
ssg82
g2002
sg75
(lp2009
g831
asbasbasbag68
(g84
g70
NtRp2010
(dp2011
g73
(dp2012
sg82
g1859
sg75
(lp2013
g68
(g89
g70
NtRp2014
(dp2015
g73
(dp2016
g93
g94
ssg82
g2010
sg75
(lp2017
g1015
asbag68
(g89
g70
NtRp2018
(dp2019
g73
(dp2020
g100
g101
ssg82
g2010
sg75
(lp2021
S':'
asbag68
(g89
g70
NtRp2022
(dp2023
g73
(dp2024
sg82
g2010
sg75
(lp2025
g68
(g69
g70
NtRp2026
(dp2027
g73
(dp2028
g81
I4
ssg82
g2022
sg75
(lp2029
g111
asbasbasbag68
(g84
g70
NtRp2030
(dp2031
g73
(dp2032
sg82
g1859
sg75
(lp2033
g68
(g89
g70
NtRp2034
(dp2035
g73
(dp2036
g93
g94
ssg82
g2030
sg75
(lp2037
g1036
asbag68
(g89
g70
NtRp2038
(dp2039
g73
(dp2040
g100
g101
ssg82
g2030
sg75
(lp2041
S':'
asbag68
(g89
g70
NtRp2042
(dp2043
g73
(dp2044
sg82
g2030
sg75
(lp2045
g68
(g69
g70
NtRp2046
(dp2047
g73
(dp2048
g81
I4
ssg82
g2042
sg75
(lp2049
g111
asbasbasbag68
(g84
g70
NtRp2050
(dp2051
g73
(dp2052
sg82
g1859
sg75
(lp2053
g68
(g89
g70
NtRp2054
(dp2055
g73
(dp2056
g93
g94
ssg82
g2050
sg75
(lp2057
g1057
asbag68
(g89
g70
NtRp2058
(dp2059
g73
(dp2060
g100
g101
ssg82
g2050
sg75
(lp2061
S':'
asbag68
(g89
g70
NtRp2062
(dp2063
g73
(dp2064
sg82
g2050
sg75
(lp2065
g68
(g69
g70
NtRp2066
(dp2067
g73
(dp2068
g81
I4
ssg82
g2062
sg75
(lp2069
g68
(g77
g70
NtRp2070
(dp2071
g73
(dp2072
g81
I3
ssg82
Nsg75
(lp2073
g68
(g84
g70
NtRp2074
(dp2075
g73
(dp2076
sg82
g2070
sg75
(lp2077
g68
(g89
g70
NtRp2078
(dp2079
g73
(dp2080
sg82
g2074
sg75
(lp2081
g68
(g69
g70
NtRp2082
(dp2083
g73
(dp2084
g81
I3
ssg82
g2078
sg75
(lp2085
g1086
asbasbasbag68
(g84
g70
NtRp2086
(dp2087
g73
(dp2088
sg82
g2070
sg75
(lp2089
g68
(g89
g70
NtRp2090
(dp2091
g73
(dp2092
sg82
g2086
sg75
(lp2093
g68
(g69
g70
NtRp2094
(dp2095
g73
(dp2096
g81
I3
ssg82
g2090
sg75
(lp2097
g1099
asbasbasbag68
(g84
g70
NtRp2098
(dp2099
g73
(dp2100
sg82
g2070
sg75
(lp2101
g68
(g89
g70
NtRp2102
(dp2103
g73
(dp2104
sg82
g2098
sg75
(lp2105
g68
(g69
g70
NtRp2106
(dp2107
g73
(dp2108
g81
I3
ssg82
g2102
sg75
(lp2109
g1112
asbasbasbag68
(g84
g70
NtRp2110
(dp2111
g73
(dp2112
sg82
g2070
sg75
(lp2113
g68
(g89
g70
NtRp2114
(dp2115
g73
(dp2116
sg82
g2110
sg75
(lp2117
g68
(g69
g70
NtRp2118
(dp2119
g73
(dp2120
g81
I3
ssg82
g2114
sg75
(lp2121
g1125
asbasbasbag68
(g84
g70
NtRp2122
(dp2123
g73
(dp2124
sg82
g2070
sg75
(lp2125
g68
(g89
g70
NtRp2126
(dp2127
g73
(dp2128
sg82
g2122
sg75
(lp2129
g68
(g69
g70
NtRp2130
(dp2131
g73
(dp2132
g81
I3
ssg82
g2126
sg75
(lp2133
g1138
asbasbasbag68
(g84
g70
NtRp2134
(dp2135
g73
(dp2136
sg82
g2070
sg75
(lp2137
g68
(g89
g70
NtRp2138
(dp2139
g73
(dp2140
sg82
g2134
sg75
(lp2141
g68
(g69
g70
NtRp2142
(dp2143
g73
(dp2144
g81
I3
ssg82
g2138
sg75
(lp2145
g1151
asbasbasbag68
(g84
g70
NtRp2146
(dp2147
g73
(dp2148
sg82
g2070
sg75
(lp2149
g68
(g89
g70
NtRp2150
(dp2151
g73
(dp2152
sg82
g2146
sg75
(lp2153
g68
(g69
g70
NtRp2154
(dp2155
g73
(dp2156
g81
I3
ssg82
g2150
sg75
(lp2157
g1164
asbasbasbag68
(g84
g70
NtRp2158
(dp2159
g73
(dp2160
sg82
g2070
sg75
(lp2161
g68
(g89
g70
NtRp2162
(dp2163
g73
(dp2164
sg82
g2158
sg75
(lp2165
g68
(g69
g70
NtRp2166
(dp2167
g73
(dp2168
g81
I3
ssg82
g2162
sg75
(lp2169
g1177
asbasbasbasbasbasbasbag68
(g84
g70
NtRp2170
(dp2171
g73
(dp2172
sg82
g1859
sg75
(lp2173
g68
(g89
g70
NtRp2174
(dp2175
g73
(dp2176
g93
g94
ssg82
g2170
sg75
(lp2177
g1467
asbag68
(g89
g70
NtRp2178
(dp2179
g73
(dp2180
g100
g101
ssg82
g2170
sg75
(lp2181
S':'
asbag68
(g89
g70
NtRp2182
(dp2183
g73
(dp2184
sg82
g2170
sg75
(lp2185
g68
(g69
g70
NtRp2186
(dp2187
g73
(dp2188
g81
I4
ssg82
g2182
sg75
(lp2189
g68
(g77
g70
NtRp2190
(dp2191
g73
(dp2192
g81
I3
ssg82
Nsg75
(lp2193
g68
(g84
g70
NtRp2194
(dp2195
g73
(dp2196
sg82
g2190
sg75
(lp2197
g68
(g89
g70
NtRp2198
(dp2199
g73
(dp2200
sg82
g2194
sg75
(lp2201
g68
(g69
g70
NtRp2202
(dp2203
g73
(dp2204
g81
I3
ssg82
g2198
sg75
(lp2205
S'2'
asbasbasbag68
(g84
g70
NtRp2206
(dp2207
g73
(dp2208
sg82
g2190
sg75
(lp2209
g68
(g89
g70
NtRp2210
(dp2211
g73
(dp2212
sg82
g2206
sg75
(lp2213
g68
(g69
g70
NtRp2214
(dp2215
g73
(dp2216
g81
I3
ssg82
g2210
sg75
(lp2217
S'3'
asbasbasbag68
(g84
g70
NtRp2218
(dp2219
g73
(dp2220
sg82
g2190
sg75
(lp2221
g68
(g89
g70
NtRp2222
(dp2223
g73
(dp2224
sg82
g2218
sg75
(lp2225
g68
(g69
g70
NtRp2226
(dp2227
g73
(dp2228
g81
I3
ssg82
g2222
sg75
(lp2229
S'2'
asbasbasbag68
(g84
g70
NtRp2230
(dp2231
g73
(dp2232
sg82
g2190
sg75
(lp2233
g68
(g89
g70
NtRp2234
(dp2235
g73
(dp2236
sg82
g2230
sg75
(lp2237
g68
(g69
g70
NtRp2238
(dp2239
g73
(dp2240
g81
I3
ssg82
g2234
sg75
(lp2241
S'datetime.datetime(2012, 12, 17, 15, 3, 30)'
p2242
asbasbasbag68
(g84
g70
NtRp2243
(dp2244
g73
(dp2245
sg82
g2190
sg75
(lp2246
g68
(g89
g70
NtRp2247
(dp2248
g73
(dp2249
sg82
g2243
sg75
(lp2250
g68
(g69
g70
NtRp2251
(dp2252
g73
(dp2253
g81
I3
ssg82
g2247
sg75
(lp2254
g1545
asbasbasbasbasbasbasbasbasbasbasbag68
(g84
g70
NtRp2255
(dp2256
g73
(dp2257
sg82
g78
sg75
(lp2258
g68
(g89
g70
NtRp2259
(dp2260
g73
(dp2261
g93
g94
ssg82
g2255
sg75
(lp2262
S'is_https'
p2263
asbag68
(g89
g70
NtRp2264
(dp2265
g73
(dp2266
g100
g101
ssg82
g2255
sg75
(lp2267
S':'
asbag68
(g89
g70
NtRp2268
(dp2269
g73
(dp2270
sg82
g2255
sg75
(lp2271
g68
(g69
g70
NtRp2272
(dp2273
g73
(dp2274
g81
I5
ssg82
g2268
sg75
(lp2275
g111
asbasbasbag68
(g84
g70
NtRp2276
(dp2277
g73
(dp2278
sg82
g78
sg75
(lp2279
g68
(g89
g70
NtRp2280
(dp2281
g73
(dp2282
g93
g94
ssg82
g2276
sg75
(lp2283
S'is_local'
p2284
asbag68
(g89
g70
NtRp2285
(dp2286
g73
(dp2287
g100
g101
ssg82
g2276
sg75
(lp2288
S':'
asbag68
(g89
g70
NtRp2289
(dp2290
g73
(dp2291
sg82
g2276
sg75
(lp2292
g68
(g69
g70
NtRp2293
(dp2294
g73
(dp2295
g81
I5
ssg82
g2289
sg75
(lp2296
g1654
asbasbasbag68
(g84
g70
NtRp2297
(dp2298
g73
(dp2299
sg82
g78
sg75
(lp2300
g68
(g89
g70
NtRp2301
(dp2302
g73
(dp2303
g93
g94
ssg82
g2297
sg75
(lp2304
S'is_restful'
p2305
asbag68
(g89
g70
NtRp2306
(dp2307
g73
(dp2308
g100
g101
ssg82
g2297
sg75
(lp2309
S':'
asbag68
(g89
g70
NtRp2310
(dp2311
g73
(dp2312
sg82
g2297
sg75
(lp2313
g68
(g69
g70
NtRp2314
(dp2315
g73
(dp2316
g81
I5
ssg82
g2310
sg75
(lp2317
g111
asbasbasbag68
(g84
g70
NtRp2318
(dp2319
g73
(dp2320
sg82
g78
sg75
(lp2321
g68
(g89
g70
NtRp2322
(dp2323
g73
(dp2324
g93
g94
ssg82
g2318
sg75
(lp2325
S'now'
p2326
asbag68
(g89
g70
NtRp2327
(dp2328
g73
(dp2329
g100
g101
ssg82
g2318
sg75
(lp2330
S':'
asbag68
(g89
g70
NtRp2331
(dp2332
g73
(dp2333
sg82
g2318
sg75
(lp2334
g68
(g69
g70
NtRp2335
(dp2336
g73
(dp2337
g81
I5
ssg82
g2331
sg75
(lp2338
S'datetime.datetime(2013, 2, 23, 16, 57, 36, 10000)'
p2339
asbasbasbag68
(g84
g70
NtRp2340
(dp2341
g73
(dp2342
sg82
g78
sg75
(lp2343
g68
(g89
g70
NtRp2344
(dp2345
g73
(dp2346
g93
g94
ssg82
g2340
sg75
(lp2347
S'post_vars'
p2348
asbag68
(g89
g70
NtRp2349
(dp2350
g73
(dp2351
g100
g101
ssg82
g2340
sg75
(lp2352
S':'
asbag68
(g89
g70
NtRp2353
(dp2354
g73
(dp2355
sg82
g2340
sg75
(lp2356
g68
(g69
g70
NtRp2357
(dp2358
g73
(dp2359
g81
I5
ssg82
g2353
sg75
(lp2360
g68
(g77
g70
NtRp2361
(dp2362
g73
(dp2363
g81
I4
ssg82
Nsg75
(lp2364
sbasbasbasbag68
(g84
g70
NtRp2365
(dp2366
g73
(dp2367
sg82
g78
sg75
(lp2368
g68
(g89
g70
NtRp2369
(dp2370
g73
(dp2371
g93
g94
ssg82
g2365
sg75
(lp2372
S'raw_args'
p2373
asbag68
(g89
g70
NtRp2374
(dp2375
g73
(dp2376
g100
g101
ssg82
g2365
sg75
(lp2377
S':'
asbag68
(g89
g70
NtRp2378
(dp2379
g73
(dp2380
sg82
g2365
sg75
(lp2381
g68
(g69
g70
NtRp2382
(dp2383
g73
(dp2384
g81
I5
ssg82
g2378
sg75
(lp2385
S''
asbasbasbag68
(g84
g70
NtRp2386
(dp2387
g73
(dp2388
sg82
g78
sg75
(lp2389
g68
(g89
g70
NtRp2390
(dp2391
g73
(dp2392
g93
g94
ssg82
g2386
sg75
(lp2393
S'raw_extension'
p2394
asbag68
(g89
g70
NtRp2395
(dp2396
g73
(dp2397
g100
g101
ssg82
g2386
sg75
(lp2398
S':'
asbag68
(g89
g70
NtRp2399
(dp2400
g73
(dp2401
sg82
g2386
sg75
(lp2402
g68
(g69
g70
NtRp2403
(dp2404
g73
(dp2405
g81
I5
ssg82
g2399
sg75
(lp2406
S'None'
p2407
asbasbasbag68
(g84
g70
NtRp2408
(dp2409
g73
(dp2410
sg82
g78
sg75
(lp2411
g68
(g89
g70
NtRp2412
(dp2413
g73
(dp2414
g93
g94
ssg82
g2408
sg75
(lp2415
S'url'
p2416
asbag68
(g89
g70
NtRp2417
(dp2418
g73
(dp2419
g100
g101
ssg82
g2408
sg75
(lp2420
S':'
asbag68
(g89
g70
NtRp2421
(dp2422
g73
(dp2423
sg82
g2408
sg75
(lp2424
g68
(g69
g70
NtRp2425
(dp2426
g73
(dp2427
g81
I5
ssg82
g2421
sg75
(lp2428
g1199
asbasbasbag68
(g84
g70
NtRp2429
(dp2430
g73
(dp2431
sg82
g78
sg75
(lp2432
g68
(g89
g70
NtRp2433
(dp2434
g73
(dp2435
g93
g94
ssg82
g2429
sg75
(lp2436
S'utcnow'
p2437
asbag68
(g89
g70
NtRp2438
(dp2439
g73
(dp2440
g100
g101
ssg82
g2429
sg75
(lp2441
S':'
asbag68
(g89
g70
NtRp2442
(dp2443
g73
(dp2444
sg82
g2429
sg75
(lp2445
g68
(g69
g70
NtRp2446
(dp2447
g73
(dp2448
g81
I5
ssg82
g2442
sg75
(lp2449
S'datetime.datetime(2013, 2, 23, 19, 57, 36, 10000)'
p2450
asbasbasbag68
(g84
g70
NtRp2451
(dp2452
g73
(dp2453
sg82
g78
sg75
(lp2454
g68
(g89
g70
NtRp2455
(dp2456
g73
(dp2457
g93
g94
ssg82
g2451
sg75
(lp2458
S'uuid'
p2459
asbag68
(g89
g70
NtRp2460
(dp2461
g73
(dp2462
g100
g101
ssg82
g2451
sg75
(lp2463
S':'
asbag68
(g89
g70
NtRp2464
(dp2465
g73
(dp2466
sg82
g2451
sg75
(lp2467
g68
(g69
g70
NtRp2468
(dp2469
g73
(dp2470
g81
I5
ssg82
g2464
sg75
(lp2471
S'PFM_Web/127.0.0.1.2013-02-23.16-57-36.6315d1f1-1331-45ce-b387-796e8d2222b0'
p2472
asbasbasbag68
(g84
g70
NtRp2473
(dp2474
g73
(dp2475
sg82
g78
sg75
(lp2476
g68
(g89
g70
NtRp2477
(dp2478
g73
(dp2479
g93
g94
ssg82
g2473
sg75
(lp2480
S'vars'
p2481
asbag68
(g89
g70
NtRp2482
(dp2483
g73
(dp2484
g100
g101
ssg82
g2473
sg75
(lp2485
S':'
asbag68
(g89
g70
NtRp2486
(dp2487
g73
(dp2488
sg82
g2473
sg75
(lp2489
g68
(g69
g70
NtRp2490
(dp2491
g73
(dp2492
g81
I5
ssg82
g2486
sg75
(lp2493
g68
(g77
g70
NtRp2494
(dp2495
g73
(dp2496
g81
I4
ssg82
Nsg75
(lp2497
sbasbasbasbag68
(g84
g70
NtRp2498
(dp2499
g73
(dp2500
sg82
g78
sg75
(lp2501
g68
(g89
g70
NtRp2502
(dp2503
g73
(dp2504
g93
g94
ssg82
g2498
sg75
(lp2505
S'wsgi'
p2506
asbag68
(g89
g70
NtRp2507
(dp2508
g73
(dp2509
g100
g101
ssg82
g2498
sg75
(lp2510
S':'
asbag68
(g89
g70
NtRp2511
(dp2512
g73
(dp2513
sg82
g2498
sg75
(lp2514
g68
(g69
g70
NtRp2515
(dp2516
g73
(dp2517
g81
I5
ssg82
g2511
sg75
(lp2518
g68
(g77
g70
NtRp2519
(dp2520
g73
(dp2521
g81
I4
ssg82
Nsg75
(lp2522
g68
(g84
g70
NtRp2523
(dp2524
g73
(dp2525
sg82
g2519
sg75
(lp2526
g68
(g89
g70
NtRp2527
(dp2528
g73
(dp2529
g93
g94
ssg82
g2523
sg75
(lp2530
S'environ'
p2531
asbag68
(g89
g70
NtRp2532
(dp2533
g73
(dp2534
g100
g101
ssg82
g2523
sg75
(lp2535
S':'
asbag68
(g89
g70
NtRp2536
(dp2537
g73
(dp2538
sg82
g2523
sg75
(lp2539
g68
(g69
g70
NtRp2540
(dp2541
g73
(dp2542
g81
I4
ssg82
g2536
sg75
(lp2543
g68
(g77
g70
NtRp2544
(dp2545
g73
(dp2546
g81
I3
ssg82
Nsg75
(lp2547
g68
(g84
g70
NtRp2548
(dp2549
g73
(dp2550
sg82
g2544
sg75
(lp2551
g68
(g89
g70
NtRp2552
(dp2553
g73
(dp2554
g93
g94
ssg82
g2548
sg75
(lp2555
S'HTTP_ACCEPT'
p2556
asbag68
(g89
g70
NtRp2557
(dp2558
g73
(dp2559
g100
g101
ssg82
g2548
sg75
(lp2560
S':'
asbag68
(g89
g70
NtRp2561
(dp2562
g73
(dp2563
sg82
g2548
sg75
(lp2564
g68
(g69
g70
NtRp2565
(dp2566
g73
(dp2567
g81
I3
ssg82
g2561
sg75
(lp2568
g853
asbasbasbag68
(g84
g70
NtRp2569
(dp2570
g73
(dp2571
sg82
g2544
sg75
(lp2572
g68
(g89
g70
NtRp2573
(dp2574
g73
(dp2575
g93
g94
ssg82
g2569
sg75
(lp2576
S'HTTP_ACCEPT_ENCODING'
p2577
asbag68
(g89
g70
NtRp2578
(dp2579
g73
(dp2580
g100
g101
ssg82
g2569
sg75
(lp2581
S':'
asbag68
(g89
g70
NtRp2582
(dp2583
g73
(dp2584
sg82
g2569
sg75
(lp2585
g68
(g69
g70
NtRp2586
(dp2587
g73
(dp2588
g81
I3
ssg82
g2582
sg75
(lp2589
g875
asbasbasbag68
(g84
g70
NtRp2590
(dp2591
g73
(dp2592
sg82
g2544
sg75
(lp2593
g68
(g89
g70
NtRp2594
(dp2595
g73
(dp2596
g93
g94
ssg82
g2590
sg75
(lp2597
S'HTTP_ACCEPT_LANGUAGE'
p2598
asbag68
(g89
g70
NtRp2599
(dp2600
g73
(dp2601
g100
g101
ssg82
g2590
sg75
(lp2602
S':'
asbag68
(g89
g70
NtRp2603
(dp2604
g73
(dp2605
sg82
g2590
sg75
(lp2606
g68
(g69
g70
NtRp2607
(dp2608
g73
(dp2609
g81
I3
ssg82
g2603
sg75
(lp2610
g897
asbasbasbag68
(g84
g70
NtRp2611
(dp2612
g73
(dp2613
sg82
g2544
sg75
(lp2614
g68
(g89
g70
NtRp2615
(dp2616
g73
(dp2617
g93
g94
ssg82
g2611
sg75
(lp2618
S'HTTP_CONNECTION'
p2619
asbag68
(g89
g70
NtRp2620
(dp2621
g73
(dp2622
g100
g101
ssg82
g2611
sg75
(lp2623
S':'
asbag68
(g89
g70
NtRp2624
(dp2625
g73
(dp2626
sg82
g2611
sg75
(lp2627
g68
(g69
g70
NtRp2628
(dp2629
g73
(dp2630
g81
I3
ssg82
g2624
sg75
(lp2631
g919
asbasbasbag68
(g84
g70
NtRp2632
(dp2633
g73
(dp2634
sg82
g2544
sg75
(lp2635
g68
(g89
g70
NtRp2636
(dp2637
g73
(dp2638
g93
g94
ssg82
g2632
sg75
(lp2639
S'HTTP_COOKIE'
p2640
asbag68
(g89
g70
NtRp2641
(dp2642
g73
(dp2643
g100
g101
ssg82
g2632
sg75
(lp2644
S':'
asbag68
(g89
g70
NtRp2645
(dp2646
g73
(dp2647
sg82
g2632
sg75
(lp2648
g68
(g69
g70
NtRp2649
(dp2650
g73
(dp2651
g81
I3
ssg82
g2645
sg75
(lp2652
g941
asbasbasbag68
(g84
g70
NtRp2653
(dp2654
g73
(dp2655
sg82
g2544
sg75
(lp2656
g68
(g89
g70
NtRp2657
(dp2658
g73
(dp2659
g93
g94
ssg82
g2653
sg75
(lp2660
S'HTTP_DNT'
p2661
asbag68
(g89
g70
NtRp2662
(dp2663
g73
(dp2664
g100
g101
ssg82
g2653
sg75
(lp2665
S':'
asbag68
(g89
g70
NtRp2666
(dp2667
g73
(dp2668
sg82
g2653
sg75
(lp2669
g68
(g69
g70
NtRp2670
(dp2671
g73
(dp2672
g81
I3
ssg82
g2666
sg75
(lp2673
S'1'
asbasbasbag68
(g84
g70
NtRp2674
(dp2675
g73
(dp2676
sg82
g2544
sg75
(lp2677
g68
(g89
g70
NtRp2678
(dp2679
g73
(dp2680
g93
g94
ssg82
g2674
sg75
(lp2681
S'HTTP_HOST'
p2682
asbag68
(g89
g70
NtRp2683
(dp2684
g73
(dp2685
g100
g101
ssg82
g2674
sg75
(lp2686
S':'
asbag68
(g89
g70
NtRp2687
(dp2688
g73
(dp2689
sg82
g2674
sg75
(lp2690
g68
(g69
g70
NtRp2691
(dp2692
g73
(dp2693
g81
I3
ssg82
g2687
sg75
(lp2694
g984
asbasbasbag68
(g84
g70
NtRp2695
(dp2696
g73
(dp2697
sg82
g2544
sg75
(lp2698
g68
(g89
g70
NtRp2699
(dp2700
g73
(dp2701
g93
g94
ssg82
g2695
sg75
(lp2702
S'HTTP_USER_AGENT'
p2703
asbag68
(g89
g70
NtRp2704
(dp2705
g73
(dp2706
g100
g101
ssg82
g2695
sg75
(lp2707
S':'
asbag68
(g89
g70
NtRp2708
(dp2709
g73
(dp2710
sg82
g2695
sg75
(lp2711
g68
(g69
g70
NtRp2712
(dp2713
g73
(dp2714
g81
I3
ssg82
g2708
sg75
(lp2715
g1006
asbasbasbag68
(g84
g70
NtRp2716
(dp2717
g73
(dp2718
sg82
g2544
sg75
(lp2719
g68
(g89
g70
NtRp2720
(dp2721
g73
(dp2722
g93
g94
ssg82
g2716
sg75
(lp2723
S'PATH_INFO'
p2724
asbag68
(g89
g70
NtRp2725
(dp2726
g73
(dp2727
g100
g101
ssg82
g2716
sg75
(lp2728
S':'
asbag68
(g89
g70
NtRp2729
(dp2730
g73
(dp2731
sg82
g2716
sg75
(lp2732
g68
(g69
g70
NtRp2733
(dp2734
g73
(dp2735
g81
I3
ssg82
g2729
sg75
(lp2736
g1199
asbasbasbag68
(g84
g70
NtRp2737
(dp2738
g73
(dp2739
sg82
g2544
sg75
(lp2740
g68
(g89
g70
NtRp2741
(dp2742
g73
(dp2743
g93
g94
ssg82
g2737
sg75
(lp2744
S'QUERY_STRING'
p2745
asbag68
(g89
g70
NtRp2746
(dp2747
g73
(dp2748
g100
g101
ssg82
g2737
sg75
(lp2749
S':'
asbag68
(g89
g70
NtRp2750
(dp2751
g73
(dp2752
sg82
g2737
sg75
(lp2753
g68
(g69
g70
NtRp2754
(dp2755
g73
(dp2756
g81
I3
ssg82
g2750
sg75
(lp2757
S''
asbasbasbag68
(g84
g70
NtRp2758
(dp2759
g73
(dp2760
sg82
g2544
sg75
(lp2761
g68
(g89
g70
NtRp2762
(dp2763
g73
(dp2764
g93
g94
ssg82
g2758
sg75
(lp2765
S'REMOTE_ADDR'
p2766
asbag68
(g89
g70
NtRp2767
(dp2768
g73
(dp2769
g100
g101
ssg82
g2758
sg75
(lp2770
S':'
asbag68
(g89
g70
NtRp2771
(dp2772
g73
(dp2773
sg82
g2758
sg75
(lp2774
g68
(g69
g70
NtRp2775
(dp2776
g73
(dp2777
g81
I3
ssg82
g2771
sg75
(lp2778
g223
asbasbasbag68
(g84
g70
NtRp2779
(dp2780
g73
(dp2781
sg82
g2544
sg75
(lp2782
g68
(g89
g70
NtRp2783
(dp2784
g73
(dp2785
g93
g94
ssg82
g2779
sg75
(lp2786
S'REMOTE_PORT'
p2787
asbag68
(g89
g70
NtRp2788
(dp2789
g73
(dp2790
g100
g101
ssg82
g2779
sg75
(lp2791
S':'
asbag68
(g89
g70
NtRp2792
(dp2793
g73
(dp2794
sg82
g2779
sg75
(lp2795
g68
(g69
g70
NtRp2796
(dp2797
g73
(dp2798
g81
I3
ssg82
g2792
sg75
(lp2799
g1263
asbasbasbag68
(g84
g70
NtRp2800
(dp2801
g73
(dp2802
sg82
g2544
sg75
(lp2803
g68
(g89
g70
NtRp2804
(dp2805
g73
(dp2806
g93
g94
ssg82
g2800
sg75
(lp2807
S'REQUEST_METHOD'
p2808
asbag68
(g89
g70
NtRp2809
(dp2810
g73
(dp2811
g100
g101
ssg82
g2800
sg75
(lp2812
S':'
asbag68
(g89
g70
NtRp2813
(dp2814
g73
(dp2815
sg82
g2800
sg75
(lp2816
g68
(g69
g70
NtRp2817
(dp2818
g73
(dp2819
g81
I3
ssg82
g2813
sg75
(lp2820
g1285
asbasbasbag68
(g84
g70
NtRp2821
(dp2822
g73
(dp2823
sg82
g2544
sg75
(lp2824
g68
(g89
g70
NtRp2825
(dp2826
g73
(dp2827
g93
g94
ssg82
g2821
sg75
(lp2828
S'REQUEST_URI'
p2829
asbag68
(g89
g70
NtRp2830
(dp2831
g73
(dp2832
g100
g101
ssg82
g2821
sg75
(lp2833
S':'
asbag68
(g89
g70
NtRp2834
(dp2835
g73
(dp2836
sg82
g2821
sg75
(lp2837
g68
(g69
g70
NtRp2838
(dp2839
g73
(dp2840
g81
I3
ssg82
g2834
sg75
(lp2841
g1199
asbasbasbag68
(g84
g70
NtRp2842
(dp2843
g73
(dp2844
sg82
g2544
sg75
(lp2845
g68
(g89
g70
NtRp2846
(dp2847
g73
(dp2848
g93
g94
ssg82
g2842
sg75
(lp2849
S'SCRIPT_NAME'
p2850
asbag68
(g89
g70
NtRp2851
(dp2852
g73
(dp2853
g100
g101
ssg82
g2842
sg75
(lp2854
S':'
asbag68
(g89
g70
NtRp2855
(dp2856
g73
(dp2857
sg82
g2842
sg75
(lp2858
g68
(g69
g70
NtRp2859
(dp2860
g73
(dp2861
g81
I3
ssg82
g2855
sg75
(lp2862
S''
asbasbasbag68
(g84
g70
NtRp2863
(dp2864
g73
(dp2865
sg82
g2544
sg75
(lp2866
g68
(g89
g70
NtRp2867
(dp2868
g73
(dp2869
g93
g94
ssg82
g2863
sg75
(lp2870
S'SERVER_NAME'
p2871
asbag68
(g89
g70
NtRp2872
(dp2873
g73
(dp2874
g100
g101
ssg82
g2863
sg75
(lp2875
S':'
asbag68
(g89
g70
NtRp2876
(dp2877
g73
(dp2878
sg82
g2863
sg75
(lp2879
g68
(g69
g70
NtRp2880
(dp2881
g73
(dp2882
g81
I3
ssg82
g2876
sg75
(lp2883
g1349
asbasbasbag68
(g84
g70
NtRp2884
(dp2885
g73
(dp2886
sg82
g2544
sg75
(lp2887
g68
(g89
g70
NtRp2888
(dp2889
g73
(dp2890
g93
g94
ssg82
g2884
sg75
(lp2891
S'SERVER_PORT'
p2892
asbag68
(g89
g70
NtRp2893
(dp2894
g73
(dp2895
g100
g101
ssg82
g2884
sg75
(lp2896
S':'
asbag68
(g89
g70
NtRp2897
(dp2898
g73
(dp2899
sg82
g2884
sg75
(lp2900
g68
(g69
g70
NtRp2901
(dp2902
g73
(dp2903
g81
I3
ssg82
g2897
sg75
(lp2904
g1371
asbasbasbag68
(g84
g70
NtRp2905
(dp2906
g73
(dp2907
sg82
g2544
sg75
(lp2908
g68
(g89
g70
NtRp2909
(dp2910
g73
(dp2911
g93
g94
ssg82
g2905
sg75
(lp2912
S'SERVER_PROTOCOL'
p2913
asbag68
(g89
g70
NtRp2914
(dp2915
g73
(dp2916
g100
g101
ssg82
g2905
sg75
(lp2917
S':'
asbag68
(g89
g70
NtRp2918
(dp2919
g73
(dp2920
sg82
g2905
sg75
(lp2921
g68
(g69
g70
NtRp2922
(dp2923
g73
(dp2924
g81
I3
ssg82
g2918
sg75
(lp2925
g1393
asbasbasbag68
(g84
g70
NtRp2926
(dp2927
g73
(dp2928
sg82
g2544
sg75
(lp2929
g68
(g89
g70
NtRp2930
(dp2931
g73
(dp2932
g93
g94
ssg82
g2926
sg75
(lp2933
S'SERVER_SOFTWARE'
p2934
asbag68
(g89
g70
NtRp2935
(dp2936
g73
(dp2937
g100
g101
ssg82
g2926
sg75
(lp2938
S':'
asbag68
(g89
g70
NtRp2939
(dp2940
g73
(dp2941
sg82
g2926
sg75
(lp2942
g68
(g69
g70
NtRp2943
(dp2944
g73
(dp2945
g81
I3
ssg82
g2939
sg75
(lp2946
g1415
asbasbasbag68
(g84
g70
NtRp2947
(dp2948
g73
(dp2949
sg82
g2544
sg75
(lp2950
g68
(g89
g70
NtRp2951
(dp2952
g73
(dp2953
g93
g94
ssg82
g2947
sg75
(lp2954
S'WEB2PY_ORIGINAL_URI'
p2955
asbag68
(g89
g70
NtRp2956
(dp2957
g73
(dp2958
g100
g101
ssg82
g2947
sg75
(lp2959
S':'
asbag68
(g89
g70
NtRp2960
(dp2961
g73
(dp2962
sg82
g2947
sg75
(lp2963
g68
(g69
g70
NtRp2964
(dp2965
g73
(dp2966
g81
I3
ssg82
g2960
sg75
(lp2967
g1437
asbasbasbag68
(g84
g70
NtRp2968
(dp2969
g73
(dp2970
sg82
g2544
sg75
(lp2971
g68
(g89
g70
NtRp2972
(dp2973
g73
(dp2974
g93
g94
ssg82
g2968
sg75
(lp2975
S'wsgi.errors'
p2976
asbag68
(g89
g70
NtRp2977
(dp2978
g73
(dp2979
g100
g101
ssg82
g2968
sg75
(lp2980
S':'
asbag68
(g89
g70
NtRp2981
(dp2982
g73
(dp2983
sg82
g2968
sg75
(lp2984
g68
(g69
g70
NtRp2985
(dp2986
g73
(dp2987
g81
I3
ssg82
g2981
sg75
(lp2988
S"<open file '<stderr>', mode 'w' at 0x0000000001D871E0>"
p2989
asbasbasbag68
(g84
g70
NtRp2990
(dp2991
g73
(dp2992
sg82
g2544
sg75
(lp2993
g68
(g89
g70
NtRp2994
(dp2995
g73
(dp2996
g93
g94
ssg82
g2990
sg75
(lp2997
S'wsgi.file_wrapper'
p2998
asbag68
(g89
g70
NtRp2999
(dp3000
g73
(dp3001
g100
g101
ssg82
g2990
sg75
(lp3002
S':'
asbag68
(g89
g70
NtRp3003
(dp3004
g73
(dp3005
sg82
g2990
sg75
(lp3006
g68
(g69
g70
NtRp3007
(dp3008
g73
(dp3009
g81
I3
ssg82
g3003
sg75
(lp3010
S'<class wsgiref.util.FileWrapper at 0x00000000033AE7C8>'
p3011
asbasbasbag68
(g84
g70
NtRp3012
(dp3013
g73
(dp3014
sg82
g2544
sg75
(lp3015
g68
(g89
g70
NtRp3016
(dp3017
g73
(dp3018
g93
g94
ssg82
g3012
sg75
(lp3019
S'wsgi.input'
p3020
asbag68
(g89
g70
NtRp3021
(dp3022
g73
(dp3023
g100
g101
ssg82
g3012
sg75
(lp3024
S':'
asbag68
(g89
g70
NtRp3025
(dp3026
g73
(dp3027
sg82
g3012
sg75
(lp3028
g68
(g69
g70
NtRp3029
(dp3030
g73
(dp3031
g81
I3
ssg82
g3025
sg75
(lp3032
S'<cStringIO.StringO object at 0x0000000004F3A298>'
p3033
asbasbasbag68
(g84
g70
NtRp3034
(dp3035
g73
(dp3036
sg82
g2544
sg75
(lp3037
g68
(g89
g70
NtRp3038
(dp3039
g73
(dp3040
g93
g94
ssg82
g3034
sg75
(lp3041
S'wsgi.multiprocess'
p3042
asbag68
(g89
g70
NtRp3043
(dp3044
g73
(dp3045
g100
g101
ssg82
g3034
sg75
(lp3046
S':'
asbag68
(g89
g70
NtRp3047
(dp3048
g73
(dp3049
sg82
g3034
sg75
(lp3050
g68
(g69
g70
NtRp3051
(dp3052
g73
(dp3053
g81
I3
ssg82
g3047
sg75
(lp3054
g111
asbasbasbag68
(g84
g70
NtRp3055
(dp3056
g73
(dp3057
sg82
g2544
sg75
(lp3058
g68
(g89
g70
NtRp3059
(dp3060
g73
(dp3061
g93
g94
ssg82
g3055
sg75
(lp3062
S'wsgi.multithread'
p3063
asbag68
(g89
g70
NtRp3064
(dp3065
g73
(dp3066
g100
g101
ssg82
g3055
sg75
(lp3067
S':'
asbag68
(g89
g70
NtRp3068
(dp3069
g73
(dp3070
sg82
g3055
sg75
(lp3071
g68
(g69
g70
NtRp3072
(dp3073
g73
(dp3074
g81
I3
ssg82
g3068
sg75
(lp3075
g1654
asbasbasbag68
(g84
g70
NtRp3076
(dp3077
g73
(dp3078
sg82
g2544
sg75
(lp3079
g68
(g89
g70
NtRp3080
(dp3081
g73
(dp3082
g93
g94
ssg82
g3076
sg75
(lp3083
S'wsgi.run_once'
p3084
asbag68
(g89
g70
NtRp3085
(dp3086
g73
(dp3087
g100
g101
ssg82
g3076
sg75
(lp3088
S':'
asbag68
(g89
g70
NtRp3089
(dp3090
g73
(dp3091
sg82
g3076
sg75
(lp3092
g68
(g69
g70
NtRp3093
(dp3094
g73
(dp3095
g81
I3
ssg82
g3089
sg75
(lp3096
g111
asbasbasbag68
(g84
g70
NtRp3097
(dp3098
g73
(dp3099
sg82
g2544
sg75
(lp3100
g68
(g89
g70
NtRp3101
(dp3102
g73
(dp3103
g93
g94
ssg82
g3097
sg75
(lp3104
S'wsgi.url_scheme'
p3105
asbag68
(g89
g70
NtRp3106
(dp3107
g73
(dp3108
g100
g101
ssg82
g3097
sg75
(lp3109
S':'
asbag68
(g89
g70
NtRp3110
(dp3111
g73
(dp3112
sg82
g3097
sg75
(lp3113
g68
(g69
g70
NtRp3114
(dp3115
g73
(dp3116
g81
I3
ssg82
g3110
sg75
(lp3117
g1697
asbasbasbag68
(g84
g70
NtRp3118
(dp3119
g73
(dp3120
sg82
g2544
sg75
(lp3121
g68
(g89
g70
NtRp3122
(dp3123
g73
(dp3124
g93
g94
ssg82
g3118
sg75
(lp3125
S'wsgi.version'
p3126
asbag68
(g89
g70
NtRp3127
(dp3128
g73
(dp3129
g100
g101
ssg82
g3118
sg75
(lp3130
S':'
asbag68
(g89
g70
NtRp3131
(dp3132
g73
(dp3133
sg82
g3118
sg75
(lp3134
g68
(g69
g70
NtRp3135
(dp3136
g73
(dp3137
g81
I3
ssg82
g3131
sg75
(lp3138
S'1'
asbasbasbasbasbasbasbasbasbasbasbasbasbsS'frames'
p3139
(lp3140
(dp3141
S'file'
p3142
S'C:\\Users\\Juliano\\Documents\\Visual Studio 2012\\Projects\\PFM-Web\\gluon\\restricted.py'
p3143
sS'dump'
p3144
(dp3145
S'code'
p3146
S'\'left_sidebar_enabled,right_sidebar_enabled=False..."></script>\\\\n</body>\\\\n</html>\\\\n\\\\n\\\', escape=False)\''
p3147
sS'layer'
p3148
S"r'C:\\Users\\Juliano\\Documents\\Visual Studio 2012\\Pr...eb\\applications\\PFM_Web\\views\\expenses/index.html'"
p3149
sS'global compile2'
p3150
S'<function compile2>'
p3151
sS'ccode'
p3152
S'undefined'
p3153
ssS'lnum'
p3154
I211
sS'lines'
p3155
(dp3156
I206
S"    environment['__name__'] = '__restricted__'"
p3157
sI207
S'    try:'
p3158
sI208
S'        if isinstance(code, types.CodeType):'
p3159
sI209
S'            ccode = code'
p3160
sI210
S'        else:'
p3161
sI211
S'            ccode = compile2(code, layer)'
p3162
sI212
S'        exec ccode in environment'
p3163
sI213
S'    except HTTP:'
p3164
sI214
S'        raise'
p3165
sI215
S'    except RestrictedError:'
p3166
ssS'call'
p3167
S'(code=\'left_sidebar_enabled,right_sidebar_enabled=False..."></script>\\\\n</body>\\\\n</html>\\\\n\\\\n\\\', escape=False)\', environment={\'A\': <class \'gluon.html.A\'>, \'Auth\': <class \'gluon.tools.Auth\'>, \'B\': <class \'gluon.html.B\'>, \'BEAUTIFY\': <class \'gluon.html.BEAUTIFY\'>, \'BODY\': <class \'gluon.html.BODY\'>, \'BR\': <class \'gluon.html.BR\'>, \'BUTTON\': <class \'gluon.html.BUTTON\'>, \'CAT\': <class \'gluon.html.CAT\'>, \'CENTER\': <class \'gluon.html.CENTER\'>, \'CLEANUP\': <class \'gluon.validators.CLEANUP\'>, ...}, layer=r\'C:\\Users\\Juliano\\Documents\\Visual Studio 2012\\Pr...eb\\applications\\PFM_Web\\views\\expenses/index.html\')'
p3168
sS'func'
p3169
S'restricted'
p3170
sa(dp3171
g3142
S'C:\\Users\\Juliano\\Documents\\Visual Studio 2012\\Projects\\PFM-Web\\gluon\\restricted.py'
p3172
sg3144
(dp3173
S'builtincompile'
p3174
S'<built-in function compile>'
p3175
sS'code'
p3176
S'\'left_sidebar_enabled,right_sidebar_enabled=False..."></script>\\\\n</body>\\\\n</html>\\\\n\\\\n\\\', escape=False)\''
p3177
sS'code.rstrip'
p3178
S'<built-in method rstrip of str object>'
p3179
sS').replace'
p3180
g3153
sS'layer'
p3181
S"r'C:\\Users\\Juliano\\Documents\\Visual Studio 2012\\Pr...eb\\applications\\PFM_Web\\views\\expenses/index.html'"
p3182
ssg3154
I194
sg3155
(dp3183
I192
S"    The +'\\n' is necessary else compile fails when code ends in a comment."
p3184
sI193
S'    """'
p3185
sI194
S"    return compile(code.rstrip().replace('\\r\\n', '\\n') + '\\n', layer, 'exec')"
p3186
sI195
S''
sI196
S''
sI197
S"def restricted(code, environment=None, layer='Unknown'):"
p3187
sI198
S'    """'
p3188
sI189
S''
sI190
S'def compile2(code, layer):'
p3189
sI191
S'    """'
p3190
ssg3167
S'(code=\'left_sidebar_enabled,right_sidebar_enabled=False..."></script>\\\\n</body>\\\\n</html>\\\\n\\\\n\\\', escape=False)\', layer=r\'C:\\Users\\Juliano\\Documents\\Visual Studio 2012\\Pr...eb\\applications\\PFM_Web\\views\\expenses/index.html\')'
p3191
sg3169
S'compile2'
p3192
sasS'pyver'
p3193
S'Python 2.7.3: C:\\Python27\\python.exe'
p3194
sS'session'
p3195
g68
(g69
g70
NtRp3196
(dp3197
g73
(dp3198
sg75
(lp3199
g68
(g77
g70
NtRp3200
(dp3201
g73
(dp3202
g81
I5
ssg82
Nsg75
(lp3203
sbasbsS'etype'
p3204
S"<type 'exceptions.SyntaxError'>"
p3205
sS'date'
p3206
S'Sat Feb 23 16:57:36 2013'
p3207
sS'response'
p3208
g68
(g69
g70
NtRp3209
(dp3210
g73
(dp3211
sg75
(lp3212
g68
(g77
g70
NtRp3213
(dp3214
g73
(dp3215
g81
I5
ssg82
Nsg75
(lp3216
g68
(g84
g70
NtRp3217
(dp3218
g73
(dp3219
sg82
g3213
sg75
(lp3220
g68
(g89
g70
NtRp3221
(dp3222
g73
(dp3223
g93
g94
ssg82
g3217
sg75
(lp3224
g166
asbag68
(g89
g70
NtRp3225
(dp3226
g73
(dp3227
g100
g101
ssg82
g3217
sg75
(lp3228
S':'
asbag68
(g89
g70
NtRp3229
(dp3230
g73
(dp3231
sg82
g3217
sg75
(lp3232
g68
(g69
g70
NtRp3233
(dp3234
g73
(dp3235
g81
I5
ssg82
g3229
sg75
(lp3236
S'<cStringIO.StringO object at 0x0000000008C078F0>'
p3237
asbasbasbag68
(g84
g70
NtRp3238
(dp3239
g73
(dp3240
sg82
g3213
sg75
(lp3241
g68
(g89
g70
NtRp3242
(dp3243
g73
(dp3244
g93
g94
ssg82
g3238
sg75
(lp3245
g254
asbag68
(g89
g70
NtRp3246
(dp3247
g73
(dp3248
g100
g101
ssg82
g3238
sg75
(lp3249
S':'
asbag68
(g89
g70
NtRp3250
(dp3251
g73
(dp3252
sg82
g3238
sg75
(lp3253
g68
(g69
g70
NtRp3254
(dp3255
g73
(dp3256
g81
I5
ssg82
g3250
sg75
(lp3257
g68
(g77
g70
NtRp3258
(dp3259
g73
(dp3260
g81
I4
ssg82
Nsg75
(lp3261
g68
(g84
g70
NtRp3262
(dp3263
g73
(dp3264
sg82
g3258
sg75
(lp3265
g68
(g89
g70
NtRp3266
(dp3267
g73
(dp3268
g93
g94
ssg82
g3262
sg75
(lp3269
S'session_id_pfm_web'
p3270
asbag68
(g89
g70
NtRp3271
(dp3272
g73
(dp3273
g100
g101
ssg82
g3262
sg75
(lp3274
S':'
asbag68
(g89
g70
NtRp3275
(dp3276
g73
(dp3277
sg82
g3262
sg75
(lp3278
g68
(g69
g70
NtRp3279
(dp3280
g73
(dp3281
g81
I4
ssg82
g3275
sg75
(lp3282
g486
ag68
(g77
g70
NtRp3283
(dp3284
g73
(dp3285
g81
I3
ssg82
Nsg75
(lp3286
g68
(g84
g70
NtRp3287
(dp3288
g73
(dp3289
sg82
g3283
sg75
(lp3290
g68
(g89
g70
NtRp3291
(dp3292
g73
(dp3293
g93
g94
ssg82
g3287
sg75
(lp3294
g305
asbag68
(g89
g70
NtRp3295
(dp3296
g73
(dp3297
g100
g101
ssg82
g3287
sg75
(lp3298
S':'
asbag68
(g89
g70
NtRp3299
(dp3300
g73
(dp3301
sg82
g3287
sg75
(lp3302
g68
(g69
g70
NtRp3303
(dp3304
g73
(dp3305
g81
I3
ssg82
g3299
sg75
(lp3306
S''
asbasbasbag68
(g84
g70
NtRp3307
(dp3308
g73
(dp3309
sg82
g3283
sg75
(lp3310
g68
(g89
g70
NtRp3311
(dp3312
g73
(dp3313
g93
g94
ssg82
g3307
sg75
(lp3314
g326
asbag68
(g89
g70
NtRp3315
(dp3316
g73
(dp3317
g100
g101
ssg82
g3307
sg75
(lp3318
S':'
asbag68
(g89
g70
NtRp3319
(dp3320
g73
(dp3321
sg82
g3307
sg75
(lp3322
g68
(g69
g70
NtRp3323
(dp3324
g73
(dp3325
g81
I3
ssg82
g3319
sg75
(lp3326
S''
asbasbasbag68
(g84
g70
NtRp3327
(dp3328
g73
(dp3329
sg82
g3283
sg75
(lp3330
g68
(g89
g70
NtRp3331
(dp3332
g73
(dp3333
g93
g94
ssg82
g3327
sg75
(lp3334
g347
asbag68
(g89
g70
NtRp3335
(dp3336
g73
(dp3337
g100
g101
ssg82
g3327
sg75
(lp3338
S':'
asbag68
(g89
g70
NtRp3339
(dp3340
g73
(dp3341
sg82
g3327
sg75
(lp3342
g68
(g69
g70
NtRp3343
(dp3344
g73
(dp3345
g81
I3
ssg82
g3339
sg75
(lp3346
S''
asbasbasbag68
(g84
g70
NtRp3347
(dp3348
g73
(dp3349
sg82
g3283
sg75
(lp3350
g68
(g89
g70
NtRp3351
(dp3352
g73
(dp3353
g93
g94
ssg82
g3347
sg75
(lp3354
g368
asbag68
(g89
g70
NtRp3355
(dp3356
g73
(dp3357
g100
g101
ssg82
g3347
sg75
(lp3358
S':'
asbag68
(g89
g70
NtRp3359
(dp3360
g73
(dp3361
sg82
g3347
sg75
(lp3362
g68
(g69
g70
NtRp3363
(dp3364
g73
(dp3365
g81
I3
ssg82
g3359
sg75
(lp3366
S''
asbasbasbag68
(g84
g70
NtRp3367
(dp3368
g73
(dp3369
sg82
g3283
sg75
(lp3370
g68
(g89
g70
NtRp3371
(dp3372
g73
(dp3373
g93
g94
ssg82
g3367
sg75
(lp3374
g389
asbag68
(g89
g70
NtRp3375
(dp3376
g73
(dp3377
g100
g101
ssg82
g3367
sg75
(lp3378
S':'
asbag68
(g89
g70
NtRp3379
(dp3380
g73
(dp3381
sg82
g3367
sg75
(lp3382
g68
(g69
g70
NtRp3383
(dp3384
g73
(dp3385
g81
I3
ssg82
g3379
sg75
(lp3386
S''
asbasbasbag68
(g84
g70
NtRp3387
(dp3388
g73
(dp3389
sg82
g3283
sg75
(lp3390
g68
(g89
g70
NtRp3391
(dp3392
g73
(dp3393
g93
g94
ssg82
g3387
sg75
(lp3394
g410
asbag68
(g89
g70
NtRp3395
(dp3396
g73
(dp3397
g100
g101
ssg82
g3387
sg75
(lp3398
S':'
asbag68
(g89
g70
NtRp3399
(dp3400
g73
(dp3401
sg82
g3387
sg75
(lp3402
g68
(g69
g70
NtRp3403
(dp3404
g73
(dp3405
g81
I3
ssg82
g3399
sg75
(lp3406
S'/'
asbasbasbag68
(g84
g70
NtRp3407
(dp3408
g73
(dp3409
sg82
g3283
sg75
(lp3410
g68
(g89
g70
NtRp3411
(dp3412
g73
(dp3413
g93
g94
ssg82
g3407
sg75
(lp3414
g431
asbag68
(g89
g70
NtRp3415
(dp3416
g73
(dp3417
g100
g101
ssg82
g3407
sg75
(lp3418
S':'
asbag68
(g89
g70
NtRp3419
(dp3420
g73
(dp3421
sg82
g3407
sg75
(lp3422
g68
(g69
g70
NtRp3423
(dp3424
g73
(dp3425
g81
I3
ssg82
g3419
sg75
(lp3426
S''
asbasbasbag68
(g84
g70
NtRp3427
(dp3428
g73
(dp3429
sg82
g3283
sg75
(lp3430
g68
(g89
g70
NtRp3431
(dp3432
g73
(dp3433
g93
g94
ssg82
g3427
sg75
(lp3434
g452
asbag68
(g89
g70
NtRp3435
(dp3436
g73
(dp3437
g100
g101
ssg82
g3427
sg75
(lp3438
S':'
asbag68
(g89
g70
NtRp3439
(dp3440
g73
(dp3441
sg82
g3427
sg75
(lp3442
g68
(g69
g70
NtRp3443
(dp3444
g73
(dp3445
g81
I3
ssg82
g3439
sg75
(lp3446
S''
asbasbasbasbasbasbasbasbasbasbasbag68
(g84
g70
NtRp3447
(dp3448
g73
(dp3449
sg82
g3213
sg75
(lp3450
g68
(g89
g70
NtRp3451
(dp3452
g73
(dp3453
g93
g94
ssg82
g3447
sg75
(lp3454
S'delimiters'
p3455
asbag68
(g89
g70
NtRp3456
(dp3457
g73
(dp3458
g100
g101
ssg82
g3447
sg75
(lp3459
S':'
asbag68
(g89
g70
NtRp3460
(dp3461
g73
(dp3462
sg82
g3447
sg75
(lp3463
g68
(g69
g70
NtRp3464
(dp3465
g73
(dp3466
g81
I5
ssg82
g3460
sg75
(lp3467
g68
(g77
g70
NtRp3468
(dp3469
g73
(dp3470
g81
I4
ssg82
Nsg75
(lp3471
g68
(g84
g70
NtRp3472
(dp3473
g73
(dp3474
sg82
g3468
sg75
(lp3475
g68
(g89
g70
NtRp3476
(dp3477
g73
(dp3478
sg82
g3472
sg75
(lp3479
g68
(g69
g70
NtRp3480
(dp3481
g73
(dp3482
g81
I4
ssg82
g3476
sg75
(lp3483
S'{{'
p3484
asbasbasbag68
(g84
g70
NtRp3485
(dp3486
g73
(dp3487
sg82
g3468
sg75
(lp3488
g68
(g89
g70
NtRp3489
(dp3490
g73
(dp3491
sg82
g3485
sg75
(lp3492
g68
(g69
g70
NtRp3493
(dp3494
g73
(dp3495
g81
I4
ssg82
g3489
sg75
(lp3496
S'}}'
p3497
asbasbasbasbasbasbasbag68
(g84
g70
NtRp3498
(dp3499
g73
(dp3500
sg82
g3213
sg75
(lp3501
g68
(g89
g70
NtRp3502
(dp3503
g73
(dp3504
g93
g94
ssg82
g3498
sg75
(lp3505
S'files'
p3506
asbag68
(g89
g70
NtRp3507
(dp3508
g73
(dp3509
g100
g101
ssg82
g3498
sg75
(lp3510
S':'
asbag68
(g89
g70
NtRp3511
(dp3512
g73
(dp3513
sg82
g3498
sg75
(lp3514
g68
(g69
g70
NtRp3515
(dp3516
g73
(dp3517
g81
I5
ssg82
g3511
sg75
(lp3518
g68
(g77
g70
NtRp3519
(dp3520
g73
(dp3521
g81
I4
ssg82
Nsg75
(lp3522
sbasbasbasbag68
(g84
g70
NtRp3523
(dp3524
g73
(dp3525
sg82
g3213
sg75
(lp3526
g68
(g89
g70
NtRp3527
(dp3528
g73
(dp3529
g93
g94
ssg82
g3523
sg75
(lp3530
S'flash'
p3531
asbag68
(g89
g70
NtRp3532
(dp3533
g73
(dp3534
g100
g101
ssg82
g3523
sg75
(lp3535
S':'
asbag68
(g89
g70
NtRp3536
(dp3537
g73
(dp3538
sg82
g3523
sg75
(lp3539
g68
(g69
g70
NtRp3540
(dp3541
g73
(dp3542
g81
I5
ssg82
g3536
sg75
(lp3543
S''
asbasbasbag68
(g84
g70
NtRp3544
(dp3545
g73
(dp3546
sg82
g3213
sg75
(lp3547
g68
(g89
g70
NtRp3548
(dp3549
g73
(dp3550
g93
g94
ssg82
g3544
sg75
(lp3551
S'generic_patterns'
p3552
asbag68
(g89
g70
NtRp3553
(dp3554
g73
(dp3555
g100
g101
ssg82
g3544
sg75
(lp3556
S':'
asbag68
(g89
g70
NtRp3557
(dp3558
g73
(dp3559
sg82
g3544
sg75
(lp3560
g68
(g69
g70
NtRp3561
(dp3562
g73
(dp3563
g81
I5
ssg82
g3557
sg75
(lp3564
g68
(g77
g70
NtRp3565
(dp3566
g73
(dp3567
g81
I4
ssg82
Nsg75
(lp3568
g68
(g84
g70
NtRp3569
(dp3570
g73
(dp3571
sg82
g3565
sg75
(lp3572
g68
(g89
g70
NtRp3573
(dp3574
g73
(dp3575
sg82
g3569
sg75
(lp3576
g68
(g69
g70
NtRp3577
(dp3578
g73
(dp3579
g81
I4
ssg82
g3573
sg75
(lp3580
S'*'
asbasbasbasbasbasbasbag68
(g84
g70
NtRp3581
(dp3582
g73
(dp3583
sg82
g3213
sg75
(lp3584
g68
(g89
g70
NtRp3585
(dp3586
g73
(dp3587
g93
g94
ssg82
g3581
sg75
(lp3588
S'google_analytics_id'
p3589
asbag68
(g89
g70
NtRp3590
(dp3591
g73
(dp3592
g100
g101
ssg82
g3581
sg75
(lp3593
S':'
asbag68
(g89
g70
NtRp3594
(dp3595
g73
(dp3596
sg82
g3581
sg75
(lp3597
g68
(g69
g70
NtRp3598
(dp3599
g73
(dp3600
g81
I5
ssg82
g3594
sg75
(lp3601
S'None'
p3602
asbasbasbag68
(g84
g70
NtRp3603
(dp3604
g73
(dp3605
sg82
g3213
sg75
(lp3606
g68
(g89
g70
NtRp3607
(dp3608
g73
(dp3609
g93
g94
ssg82
g3603
sg75
(lp3610
S'headers'
p3611
asbag68
(g89
g70
NtRp3612
(dp3613
g73
(dp3614
g100
g101
ssg82
g3603
sg75
(lp3615
S':'
asbag68
(g89
g70
NtRp3616
(dp3617
g73
(dp3618
sg82
g3603
sg75
(lp3619
g68
(g69
g70
NtRp3620
(dp3621
g73
(dp3622
g81
I5
ssg82
g3616
sg75
(lp3623
g68
(g77
g70
NtRp3624
(dp3625
g73
(dp3626
g81
I4
ssg82
Nsg75
(lp3627
g68
(g84
g70
NtRp3628
(dp3629
g73
(dp3630
sg82
g3624
sg75
(lp3631
g68
(g89
g70
NtRp3632
(dp3633
g73
(dp3634
g93
g94
ssg82
g3628
sg75
(lp3635
S'X-Powered-By'
p3636
asbag68
(g89
g70
NtRp3637
(dp3638
g73
(dp3639
g100
g101
ssg82
g3628
sg75
(lp3640
S':'
asbag68
(g89
g70
NtRp3641
(dp3642
g73
(dp3643
sg82
g3628
sg75
(lp3644
g68
(g69
g70
NtRp3645
(dp3646
g73
(dp3647
g81
I4
ssg82
g3641
sg75
(lp3648
S'web2py'
p3649
asbasbasbasbasbasbasbag68
(g84
g70
NtRp3650
(dp3651
g73
(dp3652
sg82
g3213
sg75
(lp3653
g68
(g89
g70
NtRp3654
(dp3655
g73
(dp3656
g93
g94
ssg82
g3650
sg75
(lp3657
S'logo'
p3658
asbag68
(g89
g70
NtRp3659
(dp3660
g73
(dp3661
g100
g101
ssg82
g3650
sg75
(lp3662
S':'
asbag68
(g89
g70
NtRp3663
(dp3664
g73
(dp3665
sg82
g3650
sg75
(lp3666
g68
(g69
g70
NtRp3667
(dp3668
g73
(dp3669
g81
I5
ssg82
g3663
sg75
(lp3670
g68
(cgluon.html
A
p3671
g70
NtRp3672
(dp3673
g73
(dp3674
S'_class'
p3675
S'brand'
p3676
sS'_href'
p3677
S'http://codeagranel.github.com/'
p3678
ssg82
Nsg75
(lp3679
g68
(cgluon.html
B
p3680
g70
NtRp3681
(dp3682
g73
(dp3683
sg82
g3672
sg75
(lp3684
S'Code'
p3685
ag68
(cgluon.html
SPAN
p3686
g70
NtRp3687
(dp3688
g73
(dp3689
sg82
g3681
sg75
(lp3690
S'-A-'
p3691
asbaS'Granel'
p3692
asbacgluon.html
XML_unpickle
p3693
(S's\r\x00\x00\x00&trade;&nbsp;'
tRp3694
asbasbasbasbag68
(g84
g70
NtRp3695
(dp3696
g73
(dp3697
sg82
g3213
sg75
(lp3698
g68
(g89
g70
NtRp3699
(dp3700
g73
(dp3701
g93
g94
ssg82
g3695
sg75
(lp3702
S'menu'
p3703
asbag68
(g89
g70
NtRp3704
(dp3705
g73
(dp3706
g100
g101
ssg82
g3695
sg75
(lp3707
S':'
asbag68
(g89
g70
NtRp3708
(dp3709
g73
(dp3710
sg82
g3695
sg75
(lp3711
g68
(g69
g70
NtRp3712
(dp3713
g73
(dp3714
g81
I5
ssg82
g3708
sg75
(lp3715
g68
(g77
g70
NtRp3716
(dp3717
g73
(dp3718
g81
I4
ssg82
Nsg75
(lp3719
g68
(g84
g70
NtRp3720
(dp3721
g73
(dp3722
sg82
g3716
sg75
(lp3723
g68
(g89
g70
NtRp3724
(dp3725
g73
(dp3726
sg82
g3720
sg75
(lp3727
g68
(g69
g70
NtRp3728
(dp3729
g73
(dp3730
g81
I4
ssg82
g3724
sg75
(lp3731
g68
(g77
g70
NtRp3732
(dp3733
g73
(dp3734
g81
I3
ssg82
Nsg75
(lp3735
g68
(g84
g70
NtRp3736
(dp3737
g73
(dp3738
sg82
g3732
sg75
(lp3739
g68
(g89
g70
NtRp3740
(dp3741
g73
(dp3742
sg82
g3736
sg75
(lp3743
g68
(g69
g70
NtRp3744
(dp3745
g73
(dp3746
g81
I3
ssg82
g3740
sg75
(lp3747
cgluon.languages
lazyT_unpickle
p3748
(S's\x04\x00\x00\x00Home'
tRp3749
asbasbasbag68
(g84
g70
NtRp3750
(dp3751
g73
(dp3752
sg82
g3732
sg75
(lp3753
g68
(g89
g70
NtRp3754
(dp3755
g73
(dp3756
sg82
g3750
sg75
(lp3757
g68
(g69
g70
NtRp3758
(dp3759
g73
(dp3760
g81
I3
ssg82
g3754
sg75
(lp3761
g111
asbasbasbag68
(g84
g70
NtRp3762
(dp3763
g73
(dp3764
sg82
g3732
sg75
(lp3765
g68
(g89
g70
NtRp3766
(dp3767
g73
(dp3768
sg82
g3762
sg75
(lp3769
g68
(g69
g70
NtRp3770
(dp3771
g73
(dp3772
g81
I3
ssg82
g3766
sg75
(lp3773
S'/PFM_Web/default/index'
p3774
asbasbasbag68
(g84
g70
NtRp3775
(dp3776
g73
(dp3777
sg82
g3732
sg75
(lp3778
g68
(g89
g70
NtRp3779
(dp3780
g73
(dp3781
sg82
g3775
sg75
(lp3782
g68
(g69
g70
NtRp3783
(dp3784
g73
(dp3785
g81
I3
ssg82
g3779
sg75
(lp3786
g68
(g77
g70
NtRp3787
(dp3788
g73
(dp3789
g81
I2
ssg82
Nsg75
(lp3790
sbasbasbasbasbasbasbasbag68
(g84
g70
NtRp3791
(dp3792
g73
(dp3793
sg82
g3716
sg75
(lp3794
g68
(g89
g70
NtRp3795
(dp3796
g73
(dp3797
sg82
g3791
sg75
(lp3798
g68
(g69
g70
NtRp3799
(dp3800
g73
(dp3801
g81
I4
ssg82
g3795
sg75
(lp3802
g68
(g77
g70
NtRp3803
(dp3804
g73
(dp3805
g81
I3
ssg82
Nsg75
(lp3806
g68
(g84
g70
NtRp3807
(dp3808
g73
(dp3809
sg82
g3803
sg75
(lp3810
g68
(g89
g70
NtRp3811
(dp3812
g73
(dp3813
sg82
g3807
sg75
(lp3814
g68
(g69
g70
NtRp3815
(dp3816
g73
(dp3817
g81
I3
ssg82
g3811
sg75
(lp3818
g3748
(S's\x08\x00\x00\x00Expenses'
tRp3819
asbasbasbag68
(g84
g70
NtRp3820
(dp3821
g73
(dp3822
sg82
g3803
sg75
(lp3823
g68
(g89
g70
NtRp3824
(dp3825
g73
(dp3826
sg82
g3820
sg75
(lp3827
g68
(g69
g70
NtRp3828
(dp3829
g73
(dp3830
g81
I3
ssg82
g3824
sg75
(lp3831
g111
asbasbasbag68
(g84
g70
NtRp3832
(dp3833
g73
(dp3834
sg82
g3803
sg75
(lp3835
g68
(g89
g70
NtRp3836
(dp3837
g73
(dp3838
sg82
g3832
sg75
(lp3839
g68
(g69
g70
NtRp3840
(dp3841
g73
(dp3842
g81
I3
ssg82
g3836
sg75
(lp3843
S'/PFM_Web/expenses/index'
p3844
asbasbasbag68
(g84
g70
NtRp3845
(dp3846
g73
(dp3847
sg82
g3803
sg75
(lp3848
g68
(g89
g70
NtRp3849
(dp3850
g73
(dp3851
sg82
g3845
sg75
(lp3852
g68
(g69
g70
NtRp3853
(dp3854
g73
(dp3855
g81
I3
ssg82
g3849
sg75
(lp3856
g68
(g77
g70
NtRp3857
(dp3858
g73
(dp3859
g81
I2
ssg82
Nsg75
(lp3860
sbasbasbasbasbasbasbasbag68
(g84
g70
NtRp3861
(dp3862
g73
(dp3863
sg82
g3716
sg75
(lp3864
g68
(g89
g70
NtRp3865
(dp3866
g73
(dp3867
sg82
g3861
sg75
(lp3868
g68
(g69
g70
NtRp3869
(dp3870
g73
(dp3871
g81
I4
ssg82
g3865
sg75
(lp3872
g68
(g77
g70
NtRp3873
(dp3874
g73
(dp3875
g81
I3
ssg82
Nsg75
(lp3876
g68
(g84
g70
NtRp3877
(dp3878
g73
(dp3879
sg82
g3873
sg75
(lp3880
g68
(g89
g70
NtRp3881
(dp3882
g73
(dp3883
sg82
g3877
sg75
(lp3884
g68
(g69
g70
NtRp3885
(dp3886
g73
(dp3887
g81
I3
ssg82
g3881
sg75
(lp3888
g3748
(S's\n\x00\x00\x00Categories'
tRp3889
asbasbasbag68
(g84
g70
NtRp3890
(dp3891
g73
(dp3892
sg82
g3873
sg75
(lp3893
g68
(g89
g70
NtRp3894
(dp3895
g73
(dp3896
sg82
g3890
sg75
(lp3897
g68
(g69
g70
NtRp3898
(dp3899
g73
(dp3900
g81
I3
ssg82
g3894
sg75
(lp3901
g111
asbasbasbag68
(g84
g70
NtRp3902
(dp3903
g73
(dp3904
sg82
g3873
sg75
(lp3905
g68
(g89
g70
NtRp3906
(dp3907
g73
(dp3908
sg82
g3902
sg75
(lp3909
g68
(g69
g70
NtRp3910
(dp3911
g73
(dp3912
g81
I3
ssg82
g3906
sg75
(lp3913
S'/PFM_Web/categories/index'
p3914
asbasbasbag68
(g84
g70
NtRp3915
(dp3916
g73
(dp3917
sg82
g3873
sg75
(lp3918
g68
(g89
g70
NtRp3919
(dp3920
g73
(dp3921
sg82
g3915
sg75
(lp3922
g68
(g69
g70
NtRp3923
(dp3924
g73
(dp3925
g81
I3
ssg82
g3919
sg75
(lp3926
g68
(g77
g70
NtRp3927
(dp3928
g73
(dp3929
g81
I2
ssg82
Nsg75
(lp3930
sbasbasbasbasbasbasbasbag68
(g84
g70
NtRp3931
(dp3932
g73
(dp3933
sg82
g3716
sg75
(lp3934
g68
(g89
g70
NtRp3935
(dp3936
g73
(dp3937
sg82
g3931
sg75
(lp3938
g68
(g69
g70
NtRp3939
(dp3940
g73
(dp3941
g81
I4
ssg82
g3935
sg75
(lp3942
g68
(g77
g70
NtRp3943
(dp3944
g73
(dp3945
g81
I3
ssg82
Nsg75
(lp3946
g68
(g84
g70
NtRp3947
(dp3948
g73
(dp3949
sg82
g3943
sg75
(lp3950
g68
(g89
g70
NtRp3951
(dp3952
g73
(dp3953
sg82
g3947
sg75
(lp3954
g68
(g69
g70
NtRp3955
(dp3956
g73
(dp3957
g81
I3
ssg82
g3951
sg75
(lp3958
g3748
(S's\x12\x00\x00\x00Methods of payment'
tRp3959
asbasbasbag68
(g84
g70
NtRp3960
(dp3961
g73
(dp3962
sg82
g3943
sg75
(lp3963
g68
(g89
g70
NtRp3964
(dp3965
g73
(dp3966
sg82
g3960
sg75
(lp3967
g68
(g69
g70
NtRp3968
(dp3969
g73
(dp3970
g81
I3
ssg82
g3964
sg75
(lp3971
g111
asbasbasbag68
(g84
g70
NtRp3972
(dp3973
g73
(dp3974
sg82
g3943
sg75
(lp3975
g68
(g89
g70
NtRp3976
(dp3977
g73
(dp3978
sg82
g3972
sg75
(lp3979
g68
(g69
g70
NtRp3980
(dp3981
g73
(dp3982
g81
I3
ssg82
g3976
sg75
(lp3983
S'/PFM_Web/methodsofpayment/index'
p3984
asbasbasbag68
(g84
g70
NtRp3985
(dp3986
g73
(dp3987
sg82
g3943
sg75
(lp3988
g68
(g89
g70
NtRp3989
(dp3990
g73
(dp3991
sg82
g3985
sg75
(lp3992
g68
(g69
g70
NtRp3993
(dp3994
g73
(dp3995
g81
I3
ssg82
g3989
sg75
(lp3996
g68
(g77
g70
NtRp3997
(dp3998
g73
(dp3999
g81
I2
ssg82
Nsg75
(lp4000
sbasbasbasbasbasbasbasbasbasbasbasbag68
(g84
g70
NtRp4001
(dp4002
g73
(dp4003
sg82
g3213
sg75
(lp4004
g68
(g89
g70
NtRp4005
(dp4006
g73
(dp4007
g93
g94
ssg82
g4001
sg75
(lp4008
S'meta'
p4009
asbag68
(g89
g70
NtRp4010
(dp4011
g73
(dp4012
g100
g101
ssg82
g4001
sg75
(lp4013
S':'
asbag68
(g89
g70
NtRp4014
(dp4015
g73
(dp4016
sg82
g4001
sg75
(lp4017
g68
(g69
g70
NtRp4018
(dp4019
g73
(dp4020
g81
I5
ssg82
g4014
sg75
(lp4021
g68
(g77
g70
NtRp4022
(dp4023
g73
(dp4024
g81
I4
ssg82
Nsg75
(lp4025
g68
(g84
g70
NtRp4026
(dp4027
g73
(dp4028
sg82
g4022
sg75
(lp4029
g68
(g89
g70
NtRp4030
(dp4031
g73
(dp4032
g93
g94
ssg82
g4026
sg75
(lp4033
S'author'
p4034
asbag68
(g89
g70
NtRp4035
(dp4036
g73
(dp4037
g100
g101
ssg82
g4026
sg75
(lp4038
S':'
asbag68
(g89
g70
NtRp4039
(dp4040
g73
(dp4041
sg82
g4026
sg75
(lp4042
g68
(g69
g70
NtRp4043
(dp4044
g73
(dp4045
g81
I4
ssg82
g4039
sg75
(lp4046
S'Juliano Souza <juliano.sdsouza@gmail.com>'
p4047
asbasbasbag68
(g84
g70
NtRp4048
(dp4049
g73
(dp4050
sg82
g4022
sg75
(lp4051
g68
(g89
g70
NtRp4052
(dp4053
g73
(dp4054
g93
g94
ssg82
g4048
sg75
(lp4055
S'description'
p4056
asbag68
(g89
g70
NtRp4057
(dp4058
g73
(dp4059
g100
g101
ssg82
g4048
sg75
(lp4060
S':'
asbag68
(g89
g70
NtRp4061
(dp4062
g73
(dp4063
sg82
g4048
sg75
(lp4064
g68
(g69
g70
NtRp4065
(dp4066
g73
(dp4067
g81
I4
ssg82
g4061
sg75
(lp4068
S'Your finances in a simpler way'
p4069
asbasbasbag68
(g84
g70
NtRp4070
(dp4071
g73
(dp4072
sg82
g4022
sg75
(lp4073
g68
(g89
g70
NtRp4074
(dp4075
g73
(dp4076
g93
g94
ssg82
g4070
sg75
(lp4077
S'generator'
p4078
asbag68
(g89
g70
NtRp4079
(dp4080
g73
(dp4081
g100
g101
ssg82
g4070
sg75
(lp4082
S':'
asbag68
(g89
g70
NtRp4083
(dp4084
g73
(dp4085
sg82
g4070
sg75
(lp4086
g68
(g69
g70
NtRp4087
(dp4088
g73
(dp4089
g81
I4
ssg82
g4083
sg75
(lp4090
S'Web2py Web Framework'
p4091
asbasbasbag68
(g84
g70
NtRp4092
(dp4093
g73
(dp4094
sg82
g4022
sg75
(lp4095
g68
(g89
g70
NtRp4096
(dp4097
g73
(dp4098
g93
g94
ssg82
g4092
sg75
(lp4099
S'keywords'
p4100
asbag68
(g89
g70
NtRp4101
(dp4102
g73
(dp4103
g100
g101
ssg82
g4092
sg75
(lp4104
S':'
asbag68
(g89
g70
NtRp4105
(dp4106
g73
(dp4107
sg82
g4092
sg75
(lp4108
g68
(g69
g70
NtRp4109
(dp4110
g73
(dp4111
g81
I4
ssg82
g4105
sg75
(lp4112
S'finances, management, personal, app, application'
p4113
asbasbasbasbasbasbasbag68
(g84
g70
NtRp4114
(dp4115
g73
(dp4116
sg82
g3213
sg75
(lp4117
g68
(g89
g70
NtRp4118
(dp4119
g73
(dp4120
g93
g94
ssg82
g4114
sg75
(lp4121
S'models_to_run'
p4122
asbag68
(g89
g70
NtRp4123
(dp4124
g73
(dp4125
g100
g101
ssg82
g4114
sg75
(lp4126
S':'
asbag68
(g89
g70
NtRp4127
(dp4128
g73
(dp4129
sg82
g4114
sg75
(lp4130
g68
(g69
g70
NtRp4131
(dp4132
g73
(dp4133
g81
I5
ssg82
g4127
sg75
(lp4134
g68
(g77
g70
NtRp4135
(dp4136
g73
(dp4137
g81
I4
ssg82
Nsg75
(lp4138
g68
(g84
g70
NtRp4139
(dp4140
g73
(dp4141
sg82
g4135
sg75
(lp4142
g68
(g89
g70
NtRp4143
(dp4144
g73
(dp4145
sg82
g4139
sg75
(lp4146
g68
(g69
g70
NtRp4147
(dp4148
g73
(dp4149
g81
I4
ssg82
g4143
sg75
(lp4150
S'^\\w+\\.py$'
p4151
asbasbasbag68
(g84
g70
NtRp4152
(dp4153
g73
(dp4154
sg82
g4135
sg75
(lp4155
g68
(g89
g70
NtRp4156
(dp4157
g73
(dp4158
sg82
g4152
sg75
(lp4159
g68
(g69
g70
NtRp4160
(dp4161
g73
(dp4162
g81
I4
ssg82
g4156
sg75
(lp4163
S'^expenses/\\w+\\.py$'
p4164
asbasbasbag68
(g84
g70
NtRp4165
(dp4166
g73
(dp4167
sg82
g4135
sg75
(lp4168
g68
(g89
g70
NtRp4169
(dp4170
g73
(dp4171
sg82
g4165
sg75
(lp4172
g68
(g69
g70
NtRp4173
(dp4174
g73
(dp4175
g81
I4
ssg82
g4169
sg75
(lp4176
S'^expenses/index/\\w+\\.py$'
p4177
asbasbasbasbasbasbasbag68
(g84
g70
NtRp4178
(dp4179
g73
(dp4180
sg82
g3213
sg75
(lp4181
g68
(g89
g70
NtRp4182
(dp4183
g73
(dp4184
g93
g94
ssg82
g4178
sg75
(lp4185
S'postprocessing'
p4186
asbag68
(g89
g70
NtRp4187
(dp4188
g73
(dp4189
g100
g101
ssg82
g4178
sg75
(lp4190
S':'
asbag68
(g89
g70
NtRp4191
(dp4192
g73
(dp4193
sg82
g4178
sg75
(lp4194
g68
(g69
g70
NtRp4195
(dp4196
g73
(dp4197
g81
I5
ssg82
g4191
sg75
(lp4198
g68
(g77
g70
NtRp4199
(dp4200
g73
(dp4201
g81
I4
ssg82
Nsg75
(lp4202
sbasbasbasbag68
(g84
g70
NtRp4203
(dp4204
g73
(dp4205
sg82
g3213
sg75
(lp4206
g68
(g89
g70
NtRp4207
(dp4208
g73
(dp4209
g93
g94
ssg82
g4203
sg75
(lp4210
S'session_cookie_expires'
p4211
asbag68
(g89
g70
NtRp4212
(dp4213
g73
(dp4214
g100
g101
ssg82
g4203
sg75
(lp4215
S':'
asbag68
(g89
g70
NtRp4216
(dp4217
g73
(dp4218
sg82
g4203
sg75
(lp4219
g68
(g69
g70
NtRp4220
(dp4221
g73
(dp4222
g81
I5
ssg82
g4216
sg75
(lp4223
S'None'
p4224
asbasbasbag68
(g84
g70
NtRp4225
(dp4226
g73
(dp4227
sg82
g3213
sg75
(lp4228
g68
(g89
g70
NtRp4229
(dp4230
g73
(dp4231
g93
g94
ssg82
g4225
sg75
(lp4232
S'session_data_name'
p4233
asbag68
(g89
g70
NtRp4234
(dp4235
g73
(dp4236
g100
g101
ssg82
g4225
sg75
(lp4237
S':'
asbag68
(g89
g70
NtRp4238
(dp4239
g73
(dp4240
sg82
g4225
sg75
(lp4241
g68
(g69
g70
NtRp4242
(dp4243
g73
(dp4244
g81
I5
ssg82
g4238
sg75
(lp4245
S'session_data_pfm_web'
p4246
asbasbasbag68
(g84
g70
NtRp4247
(dp4248
g73
(dp4249
sg82
g3213
sg75
(lp4250
g68
(g89
g70
NtRp4251
(dp4252
g73
(dp4253
g93
g94
ssg82
g4247
sg75
(lp4254
S'session_file'
p4255
asbag68
(g89
g70
NtRp4256
(dp4257
g73
(dp4258
g100
g101
ssg82
g4247
sg75
(lp4259
S':'
asbag68
(g89
g70
NtRp4260
(dp4261
g73
(dp4262
sg82
g4247
sg75
(lp4263
g68
(g69
g70
NtRp4264
(dp4265
g73
(dp4266
g81
I5
ssg82
g4260
sg75
(lp4267
S"<open file 'C:\\Users\\Juliano\\Documents\\Visual Studio 2012\\Projects\\PFM-Web\\applications\\PFM_Web\\sessions\\127.0.0.1-140a1922-a5d0-44eb-9a21-a4c388e16f08', mode 'rb+' at 0x0000000008E56F60>"
p4268
asbasbasbag68
(g84
g70
NtRp4269
(dp4270
g73
(dp4271
sg82
g3213
sg75
(lp4272
g68
(g89
g70
NtRp4273
(dp4274
g73
(dp4275
g93
g94
ssg82
g4269
sg75
(lp4276
S'session_filename'
p4277
asbag68
(g89
g70
NtRp4278
(dp4279
g73
(dp4280
g100
g101
ssg82
g4269
sg75
(lp4281
S':'
asbag68
(g89
g70
NtRp4282
(dp4283
g73
(dp4284
sg82
g4269
sg75
(lp4285
g68
(g69
g70
NtRp4286
(dp4287
g73
(dp4288
g81
I5
ssg82
g4282
sg75
(lp4289
S'C:\\Users\\Juliano\\Documents\\Visual Studio 2012\\Projects\\PFM-Web\\applications\\PFM_Web\\sessions\\127.0.0.1-140a1922-a5d0-44eb-9a21-a4c388e16f08'
p4290
asbasbasbag68
(g84
g70
NtRp4291
(dp4292
g73
(dp4293
sg82
g3213
sg75
(lp4294
g68
(g89
g70
NtRp4295
(dp4296
g73
(dp4297
g93
g94
ssg82
g4291
sg75
(lp4298
S'session_id'
p4299
asbag68
(g89
g70
NtRp4300
(dp4301
g73
(dp4302
g100
g101
ssg82
g4291
sg75
(lp4303
S':'
asbag68
(g89
g70
NtRp4304
(dp4305
g73
(dp4306
sg82
g4291
sg75
(lp4307
g68
(g69
g70
NtRp4308
(dp4309
g73
(dp4310
g81
I5
ssg82
g4304
sg75
(lp4311
g486
asbasbasbag68
(g84
g70
NtRp4312
(dp4313
g73
(dp4314
sg82
g3213
sg75
(lp4315
g68
(g89
g70
NtRp4316
(dp4317
g73
(dp4318
g93
g94
ssg82
g4312
sg75
(lp4319
S'session_id_name'
p4320
asbag68
(g89
g70
NtRp4321
(dp4322
g73
(dp4323
g100
g101
ssg82
g4312
sg75
(lp4324
S':'
asbag68
(g89
g70
NtRp4325
(dp4326
g73
(dp4327
sg82
g4312
sg75
(lp4328
g68
(g69
g70
NtRp4329
(dp4330
g73
(dp4331
g81
I5
ssg82
g4325
sg75
(lp4332
g3270
asbasbasbag68
(g84
g70
NtRp4333
(dp4334
g73
(dp4335
sg82
g3213
sg75
(lp4336
g68
(g89
g70
NtRp4337
(dp4338
g73
(dp4339
g93
g94
ssg82
g4333
sg75
(lp4340
S'session_locked'
p4341
asbag68
(g89
g70
NtRp4342
(dp4343
g73
(dp4344
g100
g101
ssg82
g4333
sg75
(lp4345
S':'
asbag68
(g89
g70
NtRp4346
(dp4347
g73
(dp4348
sg82
g4333
sg75
(lp4349
g68
(g69
g70
NtRp4350
(dp4351
g73
(dp4352
g81
I5
ssg82
g4346
sg75
(lp4353
g1654
asbasbasbag68
(g84
g70
NtRp4354
(dp4355
g73
(dp4356
sg82
g3213
sg75
(lp4357
g68
(g89
g70
NtRp4358
(dp4359
g73
(dp4360
g93
g94
ssg82
g4354
sg75
(lp4361
S'session_new'
p4362
asbag68
(g89
g70
NtRp4363
(dp4364
g73
(dp4365
g100
g101
ssg82
g4354
sg75
(lp4366
S':'
asbag68
(g89
g70
NtRp4367
(dp4368
g73
(dp4369
sg82
g4354
sg75
(lp4370
g68
(g69
g70
NtRp4371
(dp4372
g73
(dp4373
g81
I5
ssg82
g4367
sg75
(lp4374
g111
asbasbasbag68
(g84
g70
NtRp4375
(dp4376
g73
(dp4377
sg82
g3213
sg75
(lp4378
g68
(g89
g70
NtRp4379
(dp4380
g73
(dp4381
g93
g94
ssg82
g4375
sg75
(lp4382
S'session_storage_type'
p4383
asbag68
(g89
g70
NtRp4384
(dp4385
g73
(dp4386
g100
g101
ssg82
g4375
sg75
(lp4387
S':'
asbag68
(g89
g70
NtRp4388
(dp4389
g73
(dp4390
sg82
g4375
sg75
(lp4391
g68
(g69
g70
NtRp4392
(dp4393
g73
(dp4394
g81
I5
ssg82
g4388
sg75
(lp4395
g3142
asbasbasbag68
(g84
g70
NtRp4396
(dp4397
g73
(dp4398
sg82
g3213
sg75
(lp4399
g68
(g89
g70
NtRp4400
(dp4401
g73
(dp4402
g93
g94
ssg82
g4396
sg75
(lp4403
S'status'
p4404
asbag68
(g89
g70
NtRp4405
(dp4406
g73
(dp4407
g100
g101
ssg82
g4396
sg75
(lp4408
S':'
asbag68
(g89
g70
NtRp4409
(dp4410
g73
(dp4411
sg82
g4396
sg75
(lp4412
g68
(g69
g70
NtRp4413
(dp4414
g73
(dp4415
g81
I5
ssg82
g4409
sg75
(lp4416
S'200'
p4417
asbasbasbag68
(g84
g70
NtRp4418
(dp4419
g73
(dp4420
sg82
g3213
sg75
(lp4421
g68
(g89
g70
NtRp4422
(dp4423
g73
(dp4424
g93
g94
ssg82
g4418
sg75
(lp4425
S'subtitle'
p4426
asbag68
(g89
g70
NtRp4427
(dp4428
g73
(dp4429
g100
g101
ssg82
g4418
sg75
(lp4430
S':'
asbag68
(g89
g70
NtRp4431
(dp4432
g73
(dp4433
sg82
g4418
sg75
(lp4434
g68
(g69
g70
NtRp4435
(dp4436
g73
(dp4437
g81
I5
ssg82
g4431
sg75
(lp4438
g3748
(S's\x1e\x00\x00\x00Your finances in a simpler way'
tRp4439
asbasbasbag68
(g84
g70
NtRp4440
(dp4441
g73
(dp4442
sg82
g3213
sg75
(lp4443
g68
(g89
g70
NtRp4444
(dp4445
g73
(dp4446
g93
g94
ssg82
g4440
sg75
(lp4447
S'title'
p4448
asbag68
(g89
g70
NtRp4449
(dp4450
g73
(dp4451
g100
g101
ssg82
g4440
sg75
(lp4452
S':'
asbag68
(g89
g70
NtRp4453
(dp4454
g73
(dp4455
sg82
g4440
sg75
(lp4456
g68
(g69
g70
NtRp4457
(dp4458
g73
(dp4459
g81
I5
ssg82
g4453
sg75
(lp4460
S'Personal Finances Manager'
p4461
asbasbasbag68
(g84
g70
NtRp4462
(dp4463
g73
(dp4464
sg82
g3213
sg75
(lp4465
g68
(g89
g70
NtRp4466
(dp4467
g73
(dp4468
g93
g94
ssg82
g4462
sg75
(lp4469
S'view'
p4470
asbag68
(g89
g70
NtRp4471
(dp4472
g73
(dp4473
g100
g101
ssg82
g4462
sg75
(lp4474
S':'
asbag68
(g89
g70
NtRp4475
(dp4476
g73
(dp4477
sg82
g4462
sg75
(lp4478
g68
(g69
g70
NtRp4479
(dp4480
g73
(dp4481
g81
I5
ssg82
g4475
sg75
(lp4482
S'expenses/index.html'
p4483
asbasbasbasbasbsS'locals'
p4484
(dp4485
g4
S"r'C:\\Users\\Juliano\\Documents\\Visual Studio 2012\\Pr...eb\\applications\\PFM_Web\\views\\expenses/index.html'"
p4486
sg6
S'\'left_sidebar_enabled,right_sidebar_enabled=False..."></script>\\\\n</body>\\\\n</html>\\\\n\\\\n\\\', escape=False)\''
p4487
sssS'traceback'
p4488
S'Traceback (most recent call last):\n  File "C:\\Users\\Juliano\\Documents\\Visual Studio 2012\\Projects\\PFM-Web\\gluon\\restricted.py", line 211, in restricted\n    ccode = compile2(code, layer)\n  File "C:\\Users\\Juliano\\Documents\\Visual Studio 2012\\Projects\\PFM-Web\\gluon\\restricted.py", line 194, in compile2\n    return compile(code.rstrip().replace(\'\\r\\n\', \'\\n\') + \'\\n\', layer, \'exec\')\n  File "C:\\Users\\Juliano\\Documents\\Visual Studio 2012\\Projects\\PFM-Web\\applications\\PFM_Web\\views\\expenses/index.html", line 84\n    elif \'content\' in globals():\n       ^\nSyntaxError: invalid syntax\n'
p4489
s.