(dp1
S'output'
p2
S"<type 'exceptions.NameError'> name 'email_auth' is not defined"
p3
sS'layer'
p4
S'C:\\Users\\Juliano\\Documents\\Visual Studio 2012\\Projects\\PFM-Web\\applications\\PFM_Web\\models\\db.py'
p5
sS'code'
p6
S'# -*- coding: utf-8 -*-\n\n#########################################################################\n## This scaffolding model makes your app work on Google App Engine too\n## File is released under public domain and you can use without limitations\n#########################################################################\n\n## if SSL/HTTPS is properly configured and you want all HTTP requests to\n## be redirected to HTTPS, uncomment the line below:\n# request.requires_https()\n\nif not request.env.web2py_runtime_gae:\n    ## if NOT running on Google App Engine use SQLite or other DB\n    db = DAL(\'sqlite://storage.sqlite\',pool_size=1,check_reserved=[\'all\'])\nelse:\n    ## connect to Google BigTable (optional \'google:datastore://namespace\')\n    db = DAL(\'google:datastore\')\n    ## store sessions and tickets there\n    session.connect(request, response, db=db)\n    ## or store session in Memcache, Redis, etc.\n    ## from gluon.contrib.memdb import MEMDB\n    ## from google.appengine.api.memcache import Client\n    ## session.connect(request, response, db = MEMDB(Client()))\n\n## by default give a view/generic.extension to all actions from localhost\n## none otherwise. a pattern can be \'controller/function.extension\'\nresponse.generic_patterns = [\'*\'] if request.is_local else []\n## (optional) optimize handling of static files\n# response.optimize_css = \'concat,minify,inline\'\n# response.optimize_js = \'concat,minify,inline\'\n\n#########################################################################\n## Here is sample code if you need for\n## - email capabilities\n## - authentication (registration, login, logout, ... )\n## - authorization (role based authorization)\n## - services (xml, csv, json, xmlrpc, jsonrpc, amf, rss)\n## - old style crud actions\n## (more options discussed in gluon/tools.py)\n#########################################################################\n\nfrom gluon.tools import Auth, Crud, Service, PluginManager, prettydate\nauth = Auth(db)\ncrud, service, plugins = Crud(db), Service(), PluginManager()\n\n## create all tables needed by auth if not custom tables\nauth.define_tables(username=False, signature=False)\n\n## configure email\nmail = auth.settings.mailer\nmail.settings.server = \'logging\' or \'smtp.gmail.com:587\'\nmail.settings.sender = \'you@gmail.com\'\nmail.settings.login = \'username:password\'\n\n## configure auth policy\nauth.settings.registration_requires_verification = False\nauth.settings.registration_requires_approval = False\nauth.settings.reset_password_requires_verification = True\nauth.settings.login_methods.append(\n    email_auth("smtp.gmail.com:587", "@gmail.com"))\n\n## if you need to use OpenID, Facebook, MySpace, Twitter, Linkedin, etc.\n## register with janrain.com, write your domain:api_key in private/janrain.key\nfrom gluon.contrib.login_methods.rpx_account import use_janrain\nuse_janrain(auth, filename=\'private/janrain.key\')\n\n#########################################################################\n## Define your tables below (or better in another model file) for example\n##\n## >>> db.define_table(\'mytable\',Field(\'myfield\',\'string\'))\n##\n## Fields can be \'string\',\'text\',\'password\',\'integer\',\'double\',\'boolean\'\n##       \'date\',\'time\',\'datetime\',\'blob\',\'upload\', \'reference TABLENAME\'\n## There is an implicit \'id integer autoincrement\' field\n## Consult manual for more options, validators, etc.\n##\n## More API examples for controllers:\n##\n## >>> db.mytable.insert(myfield=\'value\')\n## >>> rows=db(db.mytable.myfield==\'value\').select(db.mytable.ALL)\n## >>> for row in rows: print row.id, row.myfield\n#########################################################################\n\ndb.define_table(\'category\',\n    Field(\'name\', unique=True),\n    Field(\'description\', \'text\'),\n    format=\'%(name)s\')\ndb.category.name.requires = IS_NOT_EMPTY()\n    \ndb.define_table(\'methodOfPayment\',\n    Field(\'name\', unique=True),\n    Field(\'description\', \'text\'),\n    format=\'%(name)s\')\ndb.methodOfPayment.name.requires = IS_NOT_EMPTY()\n\ndb.define_table(\'expense\',\n    Field(\'name\'),\n    Field(\'description\', \'text\'),\n    Field(\'categories\', \'list:reference category\'),\n    Field(\'methodOfPayment\', \'reference methodOfPayment\'),\n    Field(\'amount\', \'double\'),\n    Field(\'dueTo\', \'date\'),\n    Field(\'parcels\', \'integer\'),\n    Field(\'receipt\', \'upload\'),\n    format=\'%(name)s\')\n    \n\n## after defining tables, uncomment below to enable auditing\n# auth.enable_record_versioning(db)\n'
p7
sS'snapshot'
p8
(dp9
S'exception'
p10
(dp11
S'__hash__'
p12
S"<method-wrapper '__hash__' of exceptions.NameError object>"
p13
sS'__setattr__'
p14
S"<method-wrapper '__setattr__' of exceptions.NameError object>"
p15
sS'__reduce_ex__'
p16
S'<built-in method __reduce_ex__ of exceptions.NameError object>'
p17
sS'__getslice__'
p18
S"<method-wrapper '__getslice__' of exceptions.NameError object>"
p19
sS'__getitem__'
p20
S"<method-wrapper '__getitem__' of exceptions.NameError object>"
p21
sS'__setstate__'
p22
S'<built-in method __setstate__ of exceptions.NameError object>'
p23
sS'__reduce__'
p24
S'<built-in method __reduce__ of exceptions.NameError object>'
p25
sS'__str__'
p26
S"<method-wrapper '__str__' of exceptions.NameError object>"
p27
sS'__format__'
p28
S'<built-in method __format__ of exceptions.NameError object>'
p29
sS'__getattribute__'
p30
S"<method-wrapper '__getattribute__' of exceptions.NameError object>"
p31
sS'__class__'
p32
S"<type 'exceptions.NameError'>"
p33
sS'__unicode__'
p34
S'<built-in method __unicode__ of exceptions.NameError object>'
p35
sS'__delattr__'
p36
S"<method-wrapper '__delattr__' of exceptions.NameError object>"
p37
sS'__subclasshook__'
p38
S'<built-in method __subclasshook__ of type object>'
p39
sS'__repr__'
p40
S"<method-wrapper '__repr__' of exceptions.NameError object>"
p41
sS'__dict__'
p42
S'{}'
p43
sS'args'
p44
S'("name \'email_auth\' is not defined",)'
p45
sS'__sizeof__'
p46
S'<built-in method __sizeof__ of exceptions.NameError object>'
p47
sS'__doc__'
p48
S"'Name not found globally.'"
p49
sS'__init__'
p50
S"<method-wrapper '__init__' of exceptions.NameError object>"
p51
sS'__new__'
p52
S'<built-in method __new__ of type object>'
p53
ssS'evalue'
p54
S"name 'email_auth' is not defined"
p55
sS'request'
p56
ccopy_reg
_reconstructor
p57
(cgluon.html
BEAUTIFY
p58
c__builtin__
object
p59
NtRp60
(dp61
S'attributes'
p62
(dp63
sS'components'
p64
(lp65
g57
(cgluon.html
TABLE
p66
g59
NtRp67
(dp68
g62
(dp69
S'level'
p70
I5
ssS'parent'
p71
Nsg64
(lp72
g57
(cgluon.html
TR
p73
g59
NtRp74
(dp75
g62
(dp76
sg71
g67
sg64
(lp77
g57
(cgluon.html
TD
p78
g59
NtRp79
(dp80
g62
(dp81
S'_style'
p82
S'font-weight:bold;vertical-align:top'
p83
ssg71
g74
sg64
(lp84
S'ajax'
p85
asbag57
(g78
g59
NtRp86
(dp87
g62
(dp88
S'_valign'
p89
S'top'
p90
ssg71
g74
sg64
(lp91
S':'
asbag57
(g78
g59
NtRp92
(dp93
g62
(dp94
sg71
g74
sg64
(lp95
g57
(g58
g59
NtRp96
(dp97
g62
(dp98
g70
I5
ssg71
g92
sg64
(lp99
S'False'
p100
asbasbasbag57
(g73
g59
NtRp101
(dp102
g62
(dp103
sg71
g67
sg64
(lp104
g57
(g78
g59
NtRp105
(dp106
g62
(dp107
g82
g83
ssg71
g101
sg64
(lp108
S'application'
p109
asbag57
(g78
g59
NtRp110
(dp111
g62
(dp112
g89
g90
ssg71
g101
sg64
(lp113
S':'
asbag57
(g78
g59
NtRp114
(dp115
g62
(dp116
sg71
g101
sg64
(lp117
g57
(g58
g59
NtRp118
(dp119
g62
(dp120
g70
I5
ssg71
g114
sg64
(lp121
S'PFM_Web'
p122
asbasbasbag57
(g73
g59
NtRp123
(dp124
g62
(dp125
sg71
g67
sg64
(lp126
g57
(g78
g59
NtRp127
(dp128
g62
(dp129
g82
g83
ssg71
g123
sg64
(lp130
g44
asbag57
(g78
g59
NtRp131
(dp132
g62
(dp133
g89
g90
ssg71
g123
sg64
(lp134
S':'
asbag57
(g78
g59
NtRp135
(dp136
g62
(dp137
sg71
g123
sg64
(lp138
g57
(g58
g59
NtRp139
(dp140
g62
(dp141
g70
I5
ssg71
g135
sg64
(lp142
g57
(g66
g59
NtRp143
(dp144
g62
(dp145
g70
I4
ssg71
Nsg64
(lp146
sbasbasbasbag57
(g73
g59
NtRp147
(dp148
g62
(dp149
sg71
g67
sg64
(lp150
g57
(g78
g59
NtRp151
(dp152
g62
(dp153
g82
g83
ssg71
g147
sg64
(lp154
S'body'
p155
asbag57
(g78
g59
NtRp156
(dp157
g62
(dp158
g89
g90
ssg71
g147
sg64
(lp159
S':'
asbag57
(g78
g59
NtRp160
(dp161
g62
(dp162
sg71
g147
sg64
(lp163
g57
(g58
g59
NtRp164
(dp165
g62
(dp166
g70
I5
ssg71
g160
sg64
(lp167
S'<cStringIO.StringO object at 0x00000000045D63B0>'
p168
asbasbasbag57
(g73
g59
NtRp169
(dp170
g62
(dp171
sg71
g67
sg64
(lp172
g57
(g78
g59
NtRp173
(dp174
g62
(dp175
g82
g83
ssg71
g169
sg64
(lp176
S'cid'
p177
asbag57
(g78
g59
NtRp178
(dp179
g62
(dp180
g89
g90
ssg71
g169
sg64
(lp181
S':'
asbag57
(g78
g59
NtRp182
(dp183
g62
(dp184
sg71
g169
sg64
(lp185
g57
(g58
g59
NtRp186
(dp187
g62
(dp188
g70
I5
ssg71
g182
sg64
(lp189
S'None'
p190
asbasbasbag57
(g73
g59
NtRp191
(dp192
g62
(dp193
sg71
g67
sg64
(lp194
g57
(g78
g59
NtRp195
(dp196
g62
(dp197
g82
g83
ssg71
g191
sg64
(lp198
S'client'
p199
asbag57
(g78
g59
NtRp200
(dp201
g62
(dp202
g89
g90
ssg71
g191
sg64
(lp203
S':'
asbag57
(g78
g59
NtRp204
(dp205
g62
(dp206
sg71
g191
sg64
(lp207
g57
(g58
g59
NtRp208
(dp209
g62
(dp210
g70
I5
ssg71
g204
sg64
(lp211
S'127.0.0.1'
p212
asbasbasbag57
(g73
g59
NtRp213
(dp214
g62
(dp215
sg71
g67
sg64
(lp216
g57
(g78
g59
NtRp217
(dp218
g62
(dp219
g82
g83
ssg71
g213
sg64
(lp220
S'controller'
p221
asbag57
(g78
g59
NtRp222
(dp223
g62
(dp224
g89
g90
ssg71
g213
sg64
(lp225
S':'
asbag57
(g78
g59
NtRp226
(dp227
g62
(dp228
sg71
g213
sg64
(lp229
g57
(g58
g59
NtRp230
(dp231
g62
(dp232
g70
I5
ssg71
g226
sg64
(lp233
S'default'
p234
asbasbasbag57
(g73
g59
NtRp235
(dp236
g62
(dp237
sg71
g67
sg64
(lp238
g57
(g78
g59
NtRp239
(dp240
g62
(dp241
g82
g83
ssg71
g235
sg64
(lp242
S'cookies'
p243
asbag57
(g78
g59
NtRp244
(dp245
g62
(dp246
g89
g90
ssg71
g235
sg64
(lp247
S':'
asbag57
(g78
g59
NtRp248
(dp249
g62
(dp250
sg71
g235
sg64
(lp251
g57
(g58
g59
NtRp252
(dp253
g62
(dp254
g70
I5
ssg71
g248
sg64
(lp255
g57
(g66
g59
NtRp256
(dp257
g62
(dp258
g70
I4
ssg71
Nsg64
(lp259
sbasbasbasbag57
(g73
g59
NtRp260
(dp261
g62
(dp262
sg71
g67
sg64
(lp263
g57
(g78
g59
NtRp264
(dp265
g62
(dp266
g82
g83
ssg71
g260
sg64
(lp267
S'env'
p268
asbag57
(g78
g59
NtRp269
(dp270
g62
(dp271
g89
g90
ssg71
g260
sg64
(lp272
S':'
asbag57
(g78
g59
NtRp273
(dp274
g62
(dp275
sg71
g260
sg64
(lp276
g57
(g58
g59
NtRp277
(dp278
g62
(dp279
g70
I5
ssg71
g273
sg64
(lp280
g57
(g66
g59
NtRp281
(dp282
g62
(dp283
g70
I4
ssg71
Nsg64
(lp284
g57
(g73
g59
NtRp285
(dp286
g62
(dp287
sg71
g281
sg64
(lp288
g57
(g78
g59
NtRp289
(dp290
g62
(dp291
g82
g83
ssg71
g285
sg64
(lp292
S'app_folders'
p293
asbag57
(g78
g59
NtRp294
(dp295
g62
(dp296
g89
g90
ssg71
g285
sg64
(lp297
S':'
asbag57
(g78
g59
NtRp298
(dp299
g62
(dp300
sg71
g285
sg64
(lp301
g57
(g58
g59
NtRp302
(dp303
g62
(dp304
g70
I4
ssg71
g298
sg64
(lp305
S"set(['C:\\\\Users\\\\Juliano\\\\Documents\\\\Visual Studio 2012\\\\Projects\\\\PFM-Web\\\\applications\\\\PFM_Web\\\\'])"
p306
asbasbasbag57
(g73
g59
NtRp307
(dp308
g62
(dp309
sg71
g281
sg64
(lp310
g57
(g78
g59
NtRp311
(dp312
g62
(dp313
g82
g83
ssg71
g307
sg64
(lp314
S'applications_parent'
p315
asbag57
(g78
g59
NtRp316
(dp317
g62
(dp318
g89
g90
ssg71
g307
sg64
(lp319
S':'
asbag57
(g78
g59
NtRp320
(dp321
g62
(dp322
sg71
g307
sg64
(lp323
g57
(g58
g59
NtRp324
(dp325
g62
(dp326
g70
I4
ssg71
g320
sg64
(lp327
S'C:\\Users\\Juliano\\Documents\\Visual Studio 2012\\Projects\\PFM-Web'
p328
asbasbasbag57
(g73
g59
NtRp329
(dp330
g62
(dp331
sg71
g281
sg64
(lp332
g57
(g78
g59
NtRp333
(dp334
g62
(dp335
g82
g83
ssg71
g329
sg64
(lp336
S'cmd_args'
p337
asbag57
(g78
g59
NtRp338
(dp339
g62
(dp340
g89
g90
ssg71
g329
sg64
(lp341
S':'
asbag57
(g78
g59
NtRp342
(dp343
g62
(dp344
sg71
g329
sg64
(lp345
g57
(g58
g59
NtRp346
(dp347
g62
(dp348
g70
I4
ssg71
g342
sg64
(lp349
g57
(g66
g59
NtRp350
(dp351
g62
(dp352
g70
I3
ssg71
Nsg64
(lp353
sbasbasbasbag57
(g73
g59
NtRp354
(dp355
g62
(dp356
sg71
g281
sg64
(lp357
g57
(g78
g59
NtRp358
(dp359
g62
(dp360
g82
g83
ssg71
g354
sg64
(lp361
S'cmd_options'
p362
asbag57
(g78
g59
NtRp363
(dp364
g62
(dp365
g89
g90
ssg71
g354
sg64
(lp366
S':'
asbag57
(g78
g59
NtRp367
(dp368
g62
(dp369
sg71
g354
sg64
(lp370
g57
(g58
g59
NtRp371
(dp372
g62
(dp373
g70
I4
ssg71
g367
sg64
(lp374
S"<Values at 0x30ea288: {'verbose': False, 'ip': '127.0.0.1', 'with_scheduler': False, 'ips': ['192.168.0.196', 'fe80::2d25:44dc:a58e:afb9%13', '2001:0:9d38:6ab8:1020:96b4:4481:ec9b', 'fe80::1020:96b4:4481:ec9b%16'], 'shutdown_timeout': 5, 'taskbar': False, 'port': 8000, 'maxthreads': None, 'softcron': False, 'server_name': 'Hexed', 'bpython': False, 'nogui': False, 'pid_filename': 'httpserver.pid', 'extcron': False, 'runcron': False, 'run_system_tests': False, 'test': None, 'folder': 'C:\\\\Users\\\\Juliano\\\\Documents\\\\Visual Studio 2012\\\\Projects\\\\PFM-Web', 'config': '', 'import_models': False, 'winservice': '', 'shell': None, 'run': '', 'log_filename': 'httpserver.log', 'debuglevel': 30, 'args': [''], 'socket_timeout': 5, 'ssl_ca_certificate': None, 'scheduler': None, 'profiler_filename': None, 'ssl_private_key': '', 'scheduler_groups': None, 'password': '<ask>', 'request_queue_size': 5, 'ssl_certificate': '', 'cronjob': False, 'numthreads': None, 'quiet': False, 'interfaces': None, 'minthreads': None, 'timeout': 10, 'plain': False, 'nobanner': False}>"
p375
asbasbasbag57
(g73
g59
NtRp376
(dp377
g62
(dp378
sg71
g281
sg64
(lp379
g57
(g78
g59
NtRp380
(dp381
g62
(dp382
g82
g83
ssg71
g376
sg64
(lp383
S'db_sessions'
p384
asbag57
(g78
g59
NtRp385
(dp386
g62
(dp387
g89
g90
ssg71
g376
sg64
(lp388
S':'
asbag57
(g78
g59
NtRp389
(dp390
g62
(dp391
sg71
g376
sg64
(lp392
g57
(g58
g59
NtRp393
(dp394
g62
(dp395
g70
I4
ssg71
g389
sg64
(lp396
S'set([])'
p397
asbasbasbag57
(g73
g59
NtRp398
(dp399
g62
(dp400
sg71
g281
sg64
(lp401
g57
(g78
g59
NtRp402
(dp403
g62
(dp404
g82
g83
ssg71
g398
sg64
(lp405
S'debugging'
p406
asbag57
(g78
g59
NtRp407
(dp408
g62
(dp409
g89
g90
ssg71
g398
sg64
(lp410
S':'
asbag57
(g78
g59
NtRp411
(dp412
g62
(dp413
sg71
g398
sg64
(lp414
g57
(g58
g59
NtRp415
(dp416
g62
(dp417
g70
I4
ssg71
g411
sg64
(lp418
g100
asbasbasbag57
(g73
g59
NtRp419
(dp420
g62
(dp421
sg71
g281
sg64
(lp422
g57
(g78
g59
NtRp423
(dp424
g62
(dp425
g82
g83
ssg71
g419
sg64
(lp426
S'gluon_parent'
p427
asbag57
(g78
g59
NtRp428
(dp429
g62
(dp430
g89
g90
ssg71
g419
sg64
(lp431
S':'
asbag57
(g78
g59
NtRp432
(dp433
g62
(dp434
sg71
g419
sg64
(lp435
g57
(g58
g59
NtRp436
(dp437
g62
(dp438
g70
I4
ssg71
g432
sg64
(lp439
S'C:\\Users\\Juliano\\Documents\\Visual Studio 2012\\Projects\\PFM-Web'
p440
asbasbasbag57
(g73
g59
NtRp441
(dp442
g62
(dp443
sg71
g281
sg64
(lp444
g57
(g78
g59
NtRp445
(dp446
g62
(dp447
g82
g83
ssg71
g441
sg64
(lp448
S'http_accept'
p449
asbag57
(g78
g59
NtRp450
(dp451
g62
(dp452
g89
g90
ssg71
g441
sg64
(lp453
S':'
asbag57
(g78
g59
NtRp454
(dp455
g62
(dp456
sg71
g441
sg64
(lp457
g57
(g58
g59
NtRp458
(dp459
g62
(dp460
g70
I4
ssg71
g454
sg64
(lp461
S'text/html, application/xhtml+xml, */*'
p462
asbasbasbag57
(g73
g59
NtRp463
(dp464
g62
(dp465
sg71
g281
sg64
(lp466
g57
(g78
g59
NtRp467
(dp468
g62
(dp469
g82
g83
ssg71
g463
sg64
(lp470
S'http_accept_encoding'
p471
asbag57
(g78
g59
NtRp472
(dp473
g62
(dp474
g89
g90
ssg71
g463
sg64
(lp475
S':'
asbag57
(g78
g59
NtRp476
(dp477
g62
(dp478
sg71
g463
sg64
(lp479
g57
(g58
g59
NtRp480
(dp481
g62
(dp482
g70
I4
ssg71
g476
sg64
(lp483
S'gzip, deflate'
p484
asbasbasbag57
(g73
g59
NtRp485
(dp486
g62
(dp487
sg71
g281
sg64
(lp488
g57
(g78
g59
NtRp489
(dp490
g62
(dp491
g82
g83
ssg71
g485
sg64
(lp492
S'http_accept_language'
p493
asbag57
(g78
g59
NtRp494
(dp495
g62
(dp496
g89
g90
ssg71
g485
sg64
(lp497
S':'
asbag57
(g78
g59
NtRp498
(dp499
g62
(dp500
sg71
g485
sg64
(lp501
g57
(g58
g59
NtRp502
(dp503
g62
(dp504
g70
I4
ssg71
g498
sg64
(lp505
S'pt-BR,pt;q=0.8,en-US;q=0.5,en;q=0.3'
p506
asbasbasbag57
(g73
g59
NtRp507
(dp508
g62
(dp509
sg71
g281
sg64
(lp510
g57
(g78
g59
NtRp511
(dp512
g62
(dp513
g82
g83
ssg71
g507
sg64
(lp514
S'http_connection'
p515
asbag57
(g78
g59
NtRp516
(dp517
g62
(dp518
g89
g90
ssg71
g507
sg64
(lp519
S':'
asbag57
(g78
g59
NtRp520
(dp521
g62
(dp522
sg71
g507
sg64
(lp523
g57
(g58
g59
NtRp524
(dp525
g62
(dp526
g70
I4
ssg71
g520
sg64
(lp527
S'Keep-Alive'
p528
asbasbasbag57
(g73
g59
NtRp529
(dp530
g62
(dp531
sg71
g281
sg64
(lp532
g57
(g78
g59
NtRp533
(dp534
g62
(dp535
g82
g83
ssg71
g529
sg64
(lp536
S'http_dnt'
p537
asbag57
(g78
g59
NtRp538
(dp539
g62
(dp540
g89
g90
ssg71
g529
sg64
(lp541
S':'
asbag57
(g78
g59
NtRp542
(dp543
g62
(dp544
sg71
g529
sg64
(lp545
g57
(g58
g59
NtRp546
(dp547
g62
(dp548
g70
I4
ssg71
g542
sg64
(lp549
S'1'
asbasbasbag57
(g73
g59
NtRp550
(dp551
g62
(dp552
sg71
g281
sg64
(lp553
g57
(g78
g59
NtRp554
(dp555
g62
(dp556
g82
g83
ssg71
g550
sg64
(lp557
S'http_host'
p558
asbag57
(g78
g59
NtRp559
(dp560
g62
(dp561
g89
g90
ssg71
g550
sg64
(lp562
S':'
asbag57
(g78
g59
NtRp563
(dp564
g62
(dp565
sg71
g550
sg64
(lp566
g57
(g58
g59
NtRp567
(dp568
g62
(dp569
g70
I4
ssg71
g563
sg64
(lp570
S'127.0.0.1:8000'
p571
asbasbasbag57
(g73
g59
NtRp572
(dp573
g62
(dp574
sg71
g281
sg64
(lp575
g57
(g78
g59
NtRp576
(dp577
g62
(dp578
g82
g83
ssg71
g572
sg64
(lp579
S'http_user_agent'
p580
asbag57
(g78
g59
NtRp581
(dp582
g62
(dp583
g89
g90
ssg71
g572
sg64
(lp584
S':'
asbag57
(g78
g59
NtRp585
(dp586
g62
(dp587
sg71
g572
sg64
(lp588
g57
(g58
g59
NtRp589
(dp590
g62
(dp591
g70
I4
ssg71
g585
sg64
(lp592
S'Mozilla/5.0 (compatible; MSIE 10.0; Windows NT 6.2; WOW64; Trident/6.0)'
p593
asbasbasbag57
(g73
g59
NtRp594
(dp595
g62
(dp596
sg71
g281
sg64
(lp597
g57
(g78
g59
NtRp598
(dp599
g62
(dp600
g82
g83
ssg71
g594
sg64
(lp601
S'is_jython'
p602
asbag57
(g78
g59
NtRp603
(dp604
g62
(dp605
g89
g90
ssg71
g594
sg64
(lp606
S':'
asbag57
(g78
g59
NtRp607
(dp608
g62
(dp609
sg71
g594
sg64
(lp610
g57
(g58
g59
NtRp611
(dp612
g62
(dp613
g70
I4
ssg71
g607
sg64
(lp614
g100
asbasbasbag57
(g73
g59
NtRp615
(dp616
g62
(dp617
sg71
g281
sg64
(lp618
g57
(g78
g59
NtRp619
(dp620
g62
(dp621
g82
g83
ssg71
g615
sg64
(lp622
S'is_pypy'
p623
asbag57
(g78
g59
NtRp624
(dp625
g62
(dp626
g89
g90
ssg71
g615
sg64
(lp627
S':'
asbag57
(g78
g59
NtRp628
(dp629
g62
(dp630
sg71
g615
sg64
(lp631
g57
(g58
g59
NtRp632
(dp633
g62
(dp634
g70
I4
ssg71
g628
sg64
(lp635
g100
asbasbasbag57
(g73
g59
NtRp636
(dp637
g62
(dp638
sg71
g281
sg64
(lp639
g57
(g78
g59
NtRp640
(dp641
g62
(dp642
g82
g83
ssg71
g636
sg64
(lp643
S'path_info'
p644
asbag57
(g78
g59
NtRp645
(dp646
g62
(dp647
g89
g90
ssg71
g636
sg64
(lp648
S':'
asbag57
(g78
g59
NtRp649
(dp650
g62
(dp651
sg71
g636
sg64
(lp652
g57
(g58
g59
NtRp653
(dp654
g62
(dp655
g70
I4
ssg71
g649
sg64
(lp656
S'/'
asbasbasbag57
(g73
g59
NtRp657
(dp658
g62
(dp659
sg71
g281
sg64
(lp660
g57
(g78
g59
NtRp661
(dp662
g62
(dp663
g82
g83
ssg71
g657
sg64
(lp664
S'query_string'
p665
asbag57
(g78
g59
NtRp666
(dp667
g62
(dp668
g89
g90
ssg71
g657
sg64
(lp669
S':'
asbag57
(g78
g59
NtRp670
(dp671
g62
(dp672
sg71
g657
sg64
(lp673
g57
(g58
g59
NtRp674
(dp675
g62
(dp676
g70
I4
ssg71
g670
sg64
(lp677
S''
asbasbasbag57
(g73
g59
NtRp678
(dp679
g62
(dp680
sg71
g281
sg64
(lp681
g57
(g78
g59
NtRp682
(dp683
g62
(dp684
g82
g83
ssg71
g678
sg64
(lp685
S'remote_addr'
p686
asbag57
(g78
g59
NtRp687
(dp688
g62
(dp689
g89
g90
ssg71
g678
sg64
(lp690
S':'
asbag57
(g78
g59
NtRp691
(dp692
g62
(dp693
sg71
g678
sg64
(lp694
g57
(g58
g59
NtRp695
(dp696
g62
(dp697
g70
I4
ssg71
g691
sg64
(lp698
g212
asbasbasbag57
(g73
g59
NtRp699
(dp700
g62
(dp701
sg71
g281
sg64
(lp702
g57
(g78
g59
NtRp703
(dp704
g62
(dp705
g82
g83
ssg71
g699
sg64
(lp706
S'remote_port'
p707
asbag57
(g78
g59
NtRp708
(dp709
g62
(dp710
g89
g90
ssg71
g699
sg64
(lp711
S':'
asbag57
(g78
g59
NtRp712
(dp713
g62
(dp714
sg71
g699
sg64
(lp715
g57
(g58
g59
NtRp716
(dp717
g62
(dp718
g70
I4
ssg71
g712
sg64
(lp719
S'58599'
p720
asbasbasbag57
(g73
g59
NtRp721
(dp722
g62
(dp723
sg71
g281
sg64
(lp724
g57
(g78
g59
NtRp725
(dp726
g62
(dp727
g82
g83
ssg71
g721
sg64
(lp728
S'request_method'
p729
asbag57
(g78
g59
NtRp730
(dp731
g62
(dp732
g89
g90
ssg71
g721
sg64
(lp733
S':'
asbag57
(g78
g59
NtRp734
(dp735
g62
(dp736
sg71
g721
sg64
(lp737
g57
(g58
g59
NtRp738
(dp739
g62
(dp740
g70
I4
ssg71
g734
sg64
(lp741
S'GET'
p742
asbasbasbag57
(g73
g59
NtRp743
(dp744
g62
(dp745
sg71
g281
sg64
(lp746
g57
(g78
g59
NtRp747
(dp748
g62
(dp749
g82
g83
ssg71
g743
sg64
(lp750
S'request_uri'
p751
asbag57
(g78
g59
NtRp752
(dp753
g62
(dp754
g89
g90
ssg71
g743
sg64
(lp755
S':'
asbag57
(g78
g59
NtRp756
(dp757
g62
(dp758
sg71
g743
sg64
(lp759
g57
(g58
g59
NtRp760
(dp761
g62
(dp762
g70
I4
ssg71
g756
sg64
(lp763
S'/'
asbasbasbag57
(g73
g59
NtRp764
(dp765
g62
(dp766
sg71
g281
sg64
(lp767
g57
(g78
g59
NtRp768
(dp769
g62
(dp770
g82
g83
ssg71
g764
sg64
(lp771
S'script_name'
p772
asbag57
(g78
g59
NtRp773
(dp774
g62
(dp775
g89
g90
ssg71
g764
sg64
(lp776
S':'
asbag57
(g78
g59
NtRp777
(dp778
g62
(dp779
sg71
g764
sg64
(lp780
g57
(g58
g59
NtRp781
(dp782
g62
(dp783
g70
I4
ssg71
g777
sg64
(lp784
S''
asbasbasbag57
(g73
g59
NtRp785
(dp786
g62
(dp787
sg71
g281
sg64
(lp788
g57
(g78
g59
NtRp789
(dp790
g62
(dp791
g82
g83
ssg71
g785
sg64
(lp792
S'server_name'
p793
asbag57
(g78
g59
NtRp794
(dp795
g62
(dp796
g89
g90
ssg71
g785
sg64
(lp797
S':'
asbag57
(g78
g59
NtRp798
(dp799
g62
(dp800
sg71
g785
sg64
(lp801
g57
(g58
g59
NtRp802
(dp803
g62
(dp804
g70
I4
ssg71
g798
sg64
(lp805
S'Hexed'
p806
asbasbasbag57
(g73
g59
NtRp807
(dp808
g62
(dp809
sg71
g281
sg64
(lp810
g57
(g78
g59
NtRp811
(dp812
g62
(dp813
g82
g83
ssg71
g807
sg64
(lp814
S'server_port'
p815
asbag57
(g78
g59
NtRp816
(dp817
g62
(dp818
g89
g90
ssg71
g807
sg64
(lp819
S':'
asbag57
(g78
g59
NtRp820
(dp821
g62
(dp822
sg71
g807
sg64
(lp823
g57
(g58
g59
NtRp824
(dp825
g62
(dp826
g70
I4
ssg71
g820
sg64
(lp827
S'8000'
p828
asbasbasbag57
(g73
g59
NtRp829
(dp830
g62
(dp831
sg71
g281
sg64
(lp832
g57
(g78
g59
NtRp833
(dp834
g62
(dp835
g82
g83
ssg71
g829
sg64
(lp836
S'server_protocol'
p837
asbag57
(g78
g59
NtRp838
(dp839
g62
(dp840
g89
g90
ssg71
g829
sg64
(lp841
S':'
asbag57
(g78
g59
NtRp842
(dp843
g62
(dp844
sg71
g829
sg64
(lp845
g57
(g58
g59
NtRp846
(dp847
g62
(dp848
g70
I4
ssg71
g842
sg64
(lp849
S'HTTP/1.1'
p850
asbasbasbag57
(g73
g59
NtRp851
(dp852
g62
(dp853
sg71
g281
sg64
(lp854
g57
(g78
g59
NtRp855
(dp856
g62
(dp857
g82
g83
ssg71
g851
sg64
(lp858
S'server_software'
p859
asbag57
(g78
g59
NtRp860
(dp861
g62
(dp862
g89
g90
ssg71
g851
sg64
(lp863
S':'
asbag57
(g78
g59
NtRp864
(dp865
g62
(dp866
sg71
g851
sg64
(lp867
g57
(g58
g59
NtRp868
(dp869
g62
(dp870
g70
I4
ssg71
g864
sg64
(lp871
S'Rocket 1.2.6'
p872
asbasbasbag57
(g73
g59
NtRp873
(dp874
g62
(dp875
sg71
g281
sg64
(lp876
g57
(g78
g59
NtRp877
(dp878
g62
(dp879
g82
g83
ssg71
g873
sg64
(lp880
S'web2py_original_uri'
p881
asbag57
(g78
g59
NtRp882
(dp883
g62
(dp884
g89
g90
ssg71
g873
sg64
(lp885
S':'
asbag57
(g78
g59
NtRp886
(dp887
g62
(dp888
sg71
g873
sg64
(lp889
g57
(g58
g59
NtRp890
(dp891
g62
(dp892
g70
I4
ssg71
g886
sg64
(lp893
S'/'
asbasbasbag57
(g73
g59
NtRp894
(dp895
g62
(dp896
sg71
g281
sg64
(lp897
g57
(g78
g59
NtRp898
(dp899
g62
(dp900
g82
g83
ssg71
g894
sg64
(lp901
S'web2py_path'
p902
asbag57
(g78
g59
NtRp903
(dp904
g62
(dp905
g89
g90
ssg71
g894
sg64
(lp906
S':'
asbag57
(g78
g59
NtRp907
(dp908
g62
(dp909
sg71
g894
sg64
(lp910
g57
(g58
g59
NtRp911
(dp912
g62
(dp913
g70
I4
ssg71
g907
sg64
(lp914
g328
asbasbasbag57
(g73
g59
NtRp915
(dp916
g62
(dp917
sg71
g281
sg64
(lp918
g57
(g78
g59
NtRp919
(dp920
g62
(dp921
g82
g83
ssg71
g915
sg64
(lp922
S'web2py_version'
p923
asbag57
(g78
g59
NtRp924
(dp925
g62
(dp926
g89
g90
ssg71
g915
sg64
(lp927
S':'
asbag57
(g78
g59
NtRp928
(dp929
g62
(dp930
sg71
g915
sg64
(lp931
g57
(g58
g59
NtRp932
(dp933
g62
(dp934
g70
I4
ssg71
g928
sg64
(lp935
g57
(g66
g59
NtRp936
(dp937
g62
(dp938
g70
I3
ssg71
Nsg64
(lp939
g57
(g73
g59
NtRp940
(dp941
g62
(dp942
sg71
g936
sg64
(lp943
g57
(g78
g59
NtRp944
(dp945
g62
(dp946
sg71
g940
sg64
(lp947
g57
(g58
g59
NtRp948
(dp949
g62
(dp950
g70
I3
ssg71
g944
sg64
(lp951
S'2'
asbasbasbag57
(g73
g59
NtRp952
(dp953
g62
(dp954
sg71
g936
sg64
(lp955
g57
(g78
g59
NtRp956
(dp957
g62
(dp958
sg71
g952
sg64
(lp959
g57
(g58
g59
NtRp960
(dp961
g62
(dp962
g70
I3
ssg71
g956
sg64
(lp963
S'3'
asbasbasbag57
(g73
g59
NtRp964
(dp965
g62
(dp966
sg71
g936
sg64
(lp967
g57
(g78
g59
NtRp968
(dp969
g62
(dp970
sg71
g964
sg64
(lp971
g57
(g58
g59
NtRp972
(dp973
g62
(dp974
g70
I3
ssg71
g968
sg64
(lp975
S'2'
asbasbasbag57
(g73
g59
NtRp976
(dp977
g62
(dp978
sg71
g936
sg64
(lp979
g57
(g78
g59
NtRp980
(dp981
g62
(dp982
sg71
g976
sg64
(lp983
g57
(g58
g59
NtRp984
(dp985
g62
(dp986
g70
I3
ssg71
g980
sg64
(lp987
S'datetime.datetime(2012, 12, 17, 15, 3, 30)'
p988
asbasbasbag57
(g73
g59
NtRp989
(dp990
g62
(dp991
sg71
g936
sg64
(lp992
g57
(g78
g59
NtRp993
(dp994
g62
(dp995
sg71
g989
sg64
(lp996
g57
(g58
g59
NtRp997
(dp998
g62
(dp999
g70
I3
ssg71
g993
sg64
(lp1000
S'stable'
p1001
asbasbasbasbasbasbasbag57
(g73
g59
NtRp1002
(dp1003
g62
(dp1004
sg71
g281
sg64
(lp1005
g57
(g78
g59
NtRp1006
(dp1007
g62
(dp1008
g82
g83
ssg71
g1002
sg64
(lp1009
S'wsgi_errors'
p1010
asbag57
(g78
g59
NtRp1011
(dp1012
g62
(dp1013
g89
g90
ssg71
g1002
sg64
(lp1014
S':'
asbag57
(g78
g59
NtRp1015
(dp1016
g62
(dp1017
sg71
g1002
sg64
(lp1018
g57
(g58
g59
NtRp1019
(dp1020
g62
(dp1021
g70
I4
ssg71
g1015
sg64
(lp1022
S"<open file '<stderr>', mode 'w' at 0x00000000006971E0>"
p1023
asbasbasbag57
(g73
g59
NtRp1024
(dp1025
g62
(dp1026
sg71
g281
sg64
(lp1027
g57
(g78
g59
NtRp1028
(dp1029
g62
(dp1030
g82
g83
ssg71
g1024
sg64
(lp1031
S'wsgi_file_wrapper'
p1032
asbag57
(g78
g59
NtRp1033
(dp1034
g62
(dp1035
g89
g90
ssg71
g1024
sg64
(lp1036
S':'
asbag57
(g78
g59
NtRp1037
(dp1038
g62
(dp1039
sg71
g1024
sg64
(lp1040
g57
(g58
g59
NtRp1041
(dp1042
g62
(dp1043
g70
I4
ssg71
g1037
sg64
(lp1044
S'<class wsgiref.util.FileWrapper at 0x0000000003092768>'
p1045
asbasbasbag57
(g73
g59
NtRp1046
(dp1047
g62
(dp1048
sg71
g281
sg64
(lp1049
g57
(g78
g59
NtRp1050
(dp1051
g62
(dp1052
g82
g83
ssg71
g1046
sg64
(lp1053
S'wsgi_input'
p1054
asbag57
(g78
g59
NtRp1055
(dp1056
g62
(dp1057
g89
g90
ssg71
g1046
sg64
(lp1058
S':'
asbag57
(g78
g59
NtRp1059
(dp1060
g62
(dp1061
sg71
g1046
sg64
(lp1062
g57
(g58
g59
NtRp1063
(dp1064
g62
(dp1065
g70
I4
ssg71
g1059
sg64
(lp1066
S'<socket._fileobject object at 0x00000000030BFDE0>'
p1067
asbasbasbag57
(g73
g59
NtRp1068
(dp1069
g62
(dp1070
sg71
g281
sg64
(lp1071
g57
(g78
g59
NtRp1072
(dp1073
g62
(dp1074
g82
g83
ssg71
g1068
sg64
(lp1075
S'wsgi_multiprocess'
p1076
asbag57
(g78
g59
NtRp1077
(dp1078
g62
(dp1079
g89
g90
ssg71
g1068
sg64
(lp1080
S':'
asbag57
(g78
g59
NtRp1081
(dp1082
g62
(dp1083
sg71
g1068
sg64
(lp1084
g57
(g58
g59
NtRp1085
(dp1086
g62
(dp1087
g70
I4
ssg71
g1081
sg64
(lp1088
g100
asbasbasbag57
(g73
g59
NtRp1089
(dp1090
g62
(dp1091
sg71
g281
sg64
(lp1092
g57
(g78
g59
NtRp1093
(dp1094
g62
(dp1095
g82
g83
ssg71
g1089
sg64
(lp1096
S'wsgi_multithread'
p1097
asbag57
(g78
g59
NtRp1098
(dp1099
g62
(dp1100
g89
g90
ssg71
g1089
sg64
(lp1101
S':'
asbag57
(g78
g59
NtRp1102
(dp1103
g62
(dp1104
sg71
g1089
sg64
(lp1105
g57
(g58
g59
NtRp1106
(dp1107
g62
(dp1108
g70
I4
ssg71
g1102
sg64
(lp1109
S'True'
p1110
asbasbasbag57
(g73
g59
NtRp1111
(dp1112
g62
(dp1113
sg71
g281
sg64
(lp1114
g57
(g78
g59
NtRp1115
(dp1116
g62
(dp1117
g82
g83
ssg71
g1111
sg64
(lp1118
S'wsgi_run_once'
p1119
asbag57
(g78
g59
NtRp1120
(dp1121
g62
(dp1122
g89
g90
ssg71
g1111
sg64
(lp1123
S':'
asbag57
(g78
g59
NtRp1124
(dp1125
g62
(dp1126
sg71
g1111
sg64
(lp1127
g57
(g58
g59
NtRp1128
(dp1129
g62
(dp1130
g70
I4
ssg71
g1124
sg64
(lp1131
g100
asbasbasbag57
(g73
g59
NtRp1132
(dp1133
g62
(dp1134
sg71
g281
sg64
(lp1135
g57
(g78
g59
NtRp1136
(dp1137
g62
(dp1138
g82
g83
ssg71
g1132
sg64
(lp1139
S'wsgi_url_scheme'
p1140
asbag57
(g78
g59
NtRp1141
(dp1142
g62
(dp1143
g89
g90
ssg71
g1132
sg64
(lp1144
S':'
asbag57
(g78
g59
NtRp1145
(dp1146
g62
(dp1147
sg71
g1132
sg64
(lp1148
g57
(g58
g59
NtRp1149
(dp1150
g62
(dp1151
g70
I4
ssg71
g1145
sg64
(lp1152
S'http'
p1153
asbasbasbag57
(g73
g59
NtRp1154
(dp1155
g62
(dp1156
sg71
g281
sg64
(lp1157
g57
(g78
g59
NtRp1158
(dp1159
g62
(dp1160
g82
g83
ssg71
g1154
sg64
(lp1161
S'wsgi_version'
p1162
asbag57
(g78
g59
NtRp1163
(dp1164
g62
(dp1165
g89
g90
ssg71
g1154
sg64
(lp1166
S':'
asbag57
(g78
g59
NtRp1167
(dp1168
g62
(dp1169
sg71
g1154
sg64
(lp1170
g57
(g58
g59
NtRp1171
(dp1172
g62
(dp1173
g70
I4
ssg71
g1167
sg64
(lp1174
g57
(g66
g59
NtRp1175
(dp1176
g62
(dp1177
g70
I3
ssg71
Nsg64
(lp1178
g57
(g73
g59
NtRp1179
(dp1180
g62
(dp1181
sg71
g1175
sg64
(lp1182
g57
(g78
g59
NtRp1183
(dp1184
g62
(dp1185
sg71
g1179
sg64
(lp1186
g57
(g58
g59
NtRp1187
(dp1188
g62
(dp1189
g70
I3
ssg71
g1183
sg64
(lp1190
S'1'
asbasbasbag57
(g73
g59
NtRp1191
(dp1192
g62
(dp1193
sg71
g1175
sg64
(lp1194
g57
(g78
g59
NtRp1195
(dp1196
g62
(dp1197
sg71
g1191
sg64
(lp1198
g57
(g58
g59
NtRp1199
(dp1200
g62
(dp1201
g70
I3
ssg71
g1195
sg64
(lp1202
S'0'
asbasbasbasbasbasbasbasbasbasbasbag57
(g73
g59
NtRp1203
(dp1204
g62
(dp1205
sg71
g67
sg64
(lp1206
g57
(g78
g59
NtRp1207
(dp1208
g62
(dp1209
g82
g83
ssg71
g1203
sg64
(lp1210
S'extension'
p1211
asbag57
(g78
g59
NtRp1212
(dp1213
g62
(dp1214
g89
g90
ssg71
g1203
sg64
(lp1215
S':'
asbag57
(g78
g59
NtRp1216
(dp1217
g62
(dp1218
sg71
g1203
sg64
(lp1219
g57
(g58
g59
NtRp1220
(dp1221
g62
(dp1222
g70
I5
ssg71
g1216
sg64
(lp1223
S'html'
p1224
asbasbasbag57
(g73
g59
NtRp1225
(dp1226
g62
(dp1227
sg71
g67
sg64
(lp1228
g57
(g78
g59
NtRp1229
(dp1230
g62
(dp1231
g82
g83
ssg71
g1225
sg64
(lp1232
S'folder'
p1233
asbag57
(g78
g59
NtRp1234
(dp1235
g62
(dp1236
g89
g90
ssg71
g1225
sg64
(lp1237
S':'
asbag57
(g78
g59
NtRp1238
(dp1239
g62
(dp1240
sg71
g1225
sg64
(lp1241
g57
(g58
g59
NtRp1242
(dp1243
g62
(dp1244
g70
I5
ssg71
g1238
sg64
(lp1245
S'C:\\Users\\Juliano\\Documents\\Visual Studio 2012\\Projects\\PFM-Web\\applications\\PFM_Web\\'
p1246
asbasbasbag57
(g73
g59
NtRp1247
(dp1248
g62
(dp1249
sg71
g67
sg64
(lp1250
g57
(g78
g59
NtRp1251
(dp1252
g62
(dp1253
g82
g83
ssg71
g1247
sg64
(lp1254
S'function'
p1255
asbag57
(g78
g59
NtRp1256
(dp1257
g62
(dp1258
g89
g90
ssg71
g1247
sg64
(lp1259
S':'
asbag57
(g78
g59
NtRp1260
(dp1261
g62
(dp1262
sg71
g1247
sg64
(lp1263
g57
(g58
g59
NtRp1264
(dp1265
g62
(dp1266
g70
I5
ssg71
g1260
sg64
(lp1267
S'index'
p1268
asbasbasbag57
(g73
g59
NtRp1269
(dp1270
g62
(dp1271
sg71
g67
sg64
(lp1272
g57
(g78
g59
NtRp1273
(dp1274
g62
(dp1275
g82
g83
ssg71
g1269
sg64
(lp1276
S'get_vars'
p1277
asbag57
(g78
g59
NtRp1278
(dp1279
g62
(dp1280
g89
g90
ssg71
g1269
sg64
(lp1281
S':'
asbag57
(g78
g59
NtRp1282
(dp1283
g62
(dp1284
sg71
g1269
sg64
(lp1285
g57
(g58
g59
NtRp1286
(dp1287
g62
(dp1288
g70
I5
ssg71
g1282
sg64
(lp1289
g57
(g66
g59
NtRp1290
(dp1291
g62
(dp1292
g70
I4
ssg71
Nsg64
(lp1293
sbasbasbasbag57
(g73
g59
NtRp1294
(dp1295
g62
(dp1296
sg71
g67
sg64
(lp1297
g57
(g78
g59
NtRp1298
(dp1299
g62
(dp1300
g82
g83
ssg71
g1294
sg64
(lp1301
S'global_settings'
p1302
asbag57
(g78
g59
NtRp1303
(dp1304
g62
(dp1305
g89
g90
ssg71
g1294
sg64
(lp1306
S':'
asbag57
(g78
g59
NtRp1307
(dp1308
g62
(dp1309
sg71
g1294
sg64
(lp1310
g57
(g58
g59
NtRp1311
(dp1312
g62
(dp1313
g70
I5
ssg71
g1307
sg64
(lp1314
g57
(g66
g59
NtRp1315
(dp1316
g62
(dp1317
g70
I4
ssg71
Nsg64
(lp1318
g57
(g73
g59
NtRp1319
(dp1320
g62
(dp1321
sg71
g1315
sg64
(lp1322
g57
(g78
g59
NtRp1323
(dp1324
g62
(dp1325
g82
g83
ssg71
g1319
sg64
(lp1326
g293
asbag57
(g78
g59
NtRp1327
(dp1328
g62
(dp1329
g89
g90
ssg71
g1319
sg64
(lp1330
S':'
asbag57
(g78
g59
NtRp1331
(dp1332
g62
(dp1333
sg71
g1319
sg64
(lp1334
g57
(g58
g59
NtRp1335
(dp1336
g62
(dp1337
g70
I4
ssg71
g1331
sg64
(lp1338
S"set(['C:\\\\Users\\\\Juliano\\\\Documents\\\\Visual Studio 2012\\\\Projects\\\\PFM-Web\\\\applications\\\\PFM_Web\\\\'])"
p1339
asbasbasbag57
(g73
g59
NtRp1340
(dp1341
g62
(dp1342
sg71
g1315
sg64
(lp1343
g57
(g78
g59
NtRp1344
(dp1345
g62
(dp1346
g82
g83
ssg71
g1340
sg64
(lp1347
g315
asbag57
(g78
g59
NtRp1348
(dp1349
g62
(dp1350
g89
g90
ssg71
g1340
sg64
(lp1351
S':'
asbag57
(g78
g59
NtRp1352
(dp1353
g62
(dp1354
sg71
g1340
sg64
(lp1355
g57
(g58
g59
NtRp1356
(dp1357
g62
(dp1358
g70
I4
ssg71
g1352
sg64
(lp1359
g328
asbasbasbag57
(g73
g59
NtRp1360
(dp1361
g62
(dp1362
sg71
g1315
sg64
(lp1363
g57
(g78
g59
NtRp1364
(dp1365
g62
(dp1366
g82
g83
ssg71
g1360
sg64
(lp1367
g337
asbag57
(g78
g59
NtRp1368
(dp1369
g62
(dp1370
g89
g90
ssg71
g1360
sg64
(lp1371
S':'
asbag57
(g78
g59
NtRp1372
(dp1373
g62
(dp1374
sg71
g1360
sg64
(lp1375
g57
(g58
g59
NtRp1376
(dp1377
g62
(dp1378
g70
I4
ssg71
g1372
sg64
(lp1379
g57
(g66
g59
NtRp1380
(dp1381
g62
(dp1382
g70
I3
ssg71
Nsg64
(lp1383
sbasbasbasbag57
(g73
g59
NtRp1384
(dp1385
g62
(dp1386
sg71
g1315
sg64
(lp1387
g57
(g78
g59
NtRp1388
(dp1389
g62
(dp1390
g82
g83
ssg71
g1384
sg64
(lp1391
g362
asbag57
(g78
g59
NtRp1392
(dp1393
g62
(dp1394
g89
g90
ssg71
g1384
sg64
(lp1395
S':'
asbag57
(g78
g59
NtRp1396
(dp1397
g62
(dp1398
sg71
g1384
sg64
(lp1399
g57
(g58
g59
NtRp1400
(dp1401
g62
(dp1402
g70
I4
ssg71
g1396
sg64
(lp1403
S"<Values at 0x30ea288: {'verbose': False, 'ip': '127.0.0.1', 'with_scheduler': False, 'ips': ['192.168.0.196', 'fe80::2d25:44dc:a58e:afb9%13', '2001:0:9d38:6ab8:1020:96b4:4481:ec9b', 'fe80::1020:96b4:4481:ec9b%16'], 'shutdown_timeout': 5, 'taskbar': False, 'port': 8000, 'maxthreads': None, 'softcron': False, 'server_name': 'Hexed', 'bpython': False, 'nogui': False, 'pid_filename': 'httpserver.pid', 'extcron': False, 'runcron': False, 'run_system_tests': False, 'test': None, 'folder': 'C:\\\\Users\\\\Juliano\\\\Documents\\\\Visual Studio 2012\\\\Projects\\\\PFM-Web', 'config': '', 'import_models': False, 'winservice': '', 'shell': None, 'run': '', 'log_filename': 'httpserver.log', 'debuglevel': 30, 'args': [''], 'socket_timeout': 5, 'ssl_ca_certificate': None, 'scheduler': None, 'profiler_filename': None, 'ssl_private_key': '', 'scheduler_groups': None, 'password': '<ask>', 'request_queue_size': 5, 'ssl_certificate': '', 'cronjob': False, 'numthreads': None, 'quiet': False, 'interfaces': None, 'minthreads': None, 'timeout': 10, 'plain': False, 'nobanner': False}>"
p1404
asbasbasbag57
(g73
g59
NtRp1405
(dp1406
g62
(dp1407
sg71
g1315
sg64
(lp1408
g57
(g78
g59
NtRp1409
(dp1410
g62
(dp1411
g82
g83
ssg71
g1405
sg64
(lp1412
g384
asbag57
(g78
g59
NtRp1413
(dp1414
g62
(dp1415
g89
g90
ssg71
g1405
sg64
(lp1416
S':'
asbag57
(g78
g59
NtRp1417
(dp1418
g62
(dp1419
sg71
g1405
sg64
(lp1420
g57
(g58
g59
NtRp1421
(dp1422
g62
(dp1423
g70
I4
ssg71
g1417
sg64
(lp1424
S'set([])'
p1425
asbasbasbag57
(g73
g59
NtRp1426
(dp1427
g62
(dp1428
sg71
g1315
sg64
(lp1429
g57
(g78
g59
NtRp1430
(dp1431
g62
(dp1432
g82
g83
ssg71
g1426
sg64
(lp1433
g406
asbag57
(g78
g59
NtRp1434
(dp1435
g62
(dp1436
g89
g90
ssg71
g1426
sg64
(lp1437
S':'
asbag57
(g78
g59
NtRp1438
(dp1439
g62
(dp1440
sg71
g1426
sg64
(lp1441
g57
(g58
g59
NtRp1442
(dp1443
g62
(dp1444
g70
I4
ssg71
g1438
sg64
(lp1445
g100
asbasbasbag57
(g73
g59
NtRp1446
(dp1447
g62
(dp1448
sg71
g1315
sg64
(lp1449
g57
(g78
g59
NtRp1450
(dp1451
g62
(dp1452
g82
g83
ssg71
g1446
sg64
(lp1453
g427
asbag57
(g78
g59
NtRp1454
(dp1455
g62
(dp1456
g89
g90
ssg71
g1446
sg64
(lp1457
S':'
asbag57
(g78
g59
NtRp1458
(dp1459
g62
(dp1460
sg71
g1446
sg64
(lp1461
g57
(g58
g59
NtRp1462
(dp1463
g62
(dp1464
g70
I4
ssg71
g1458
sg64
(lp1465
g440
asbasbasbag57
(g73
g59
NtRp1466
(dp1467
g62
(dp1468
sg71
g1315
sg64
(lp1469
g57
(g78
g59
NtRp1470
(dp1471
g62
(dp1472
g82
g83
ssg71
g1466
sg64
(lp1473
g602
asbag57
(g78
g59
NtRp1474
(dp1475
g62
(dp1476
g89
g90
ssg71
g1466
sg64
(lp1477
S':'
asbag57
(g78
g59
NtRp1478
(dp1479
g62
(dp1480
sg71
g1466
sg64
(lp1481
g57
(g58
g59
NtRp1482
(dp1483
g62
(dp1484
g70
I4
ssg71
g1478
sg64
(lp1485
g100
asbasbasbag57
(g73
g59
NtRp1486
(dp1487
g62
(dp1488
sg71
g1315
sg64
(lp1489
g57
(g78
g59
NtRp1490
(dp1491
g62
(dp1492
g82
g83
ssg71
g1486
sg64
(lp1493
g623
asbag57
(g78
g59
NtRp1494
(dp1495
g62
(dp1496
g89
g90
ssg71
g1486
sg64
(lp1497
S':'
asbag57
(g78
g59
NtRp1498
(dp1499
g62
(dp1500
sg71
g1486
sg64
(lp1501
g57
(g58
g59
NtRp1502
(dp1503
g62
(dp1504
g70
I4
ssg71
g1498
sg64
(lp1505
g100
asbasbasbag57
(g73
g59
NtRp1506
(dp1507
g62
(dp1508
sg71
g1315
sg64
(lp1509
g57
(g78
g59
NtRp1510
(dp1511
g62
(dp1512
g82
g83
ssg71
g1506
sg64
(lp1513
S'local_hosts'
p1514
asbag57
(g78
g59
NtRp1515
(dp1516
g62
(dp1517
g89
g90
ssg71
g1506
sg64
(lp1518
S':'
asbag57
(g78
g59
NtRp1519
(dp1520
g62
(dp1521
sg71
g1506
sg64
(lp1522
g57
(g58
g59
NtRp1523
(dp1524
g62
(dp1525
g70
I4
ssg71
g1519
sg64
(lp1526
g57
(g66
g59
NtRp1527
(dp1528
g62
(dp1529
g70
I3
ssg71
Nsg64
(lp1530
g57
(g73
g59
NtRp1531
(dp1532
g62
(dp1533
sg71
g1527
sg64
(lp1534
g57
(g78
g59
NtRp1535
(dp1536
g62
(dp1537
sg71
g1531
sg64
(lp1538
g57
(g58
g59
NtRp1539
(dp1540
g62
(dp1541
g70
I3
ssg71
g1535
sg64
(lp1542
S'2001:0:9d38:6ab8:1020:96b4:4481:ec9b'
p1543
asbasbasbag57
(g73
g59
NtRp1544
(dp1545
g62
(dp1546
sg71
g1527
sg64
(lp1547
g57
(g78
g59
NtRp1548
(dp1549
g62
(dp1550
sg71
g1544
sg64
(lp1551
g57
(g58
g59
NtRp1552
(dp1553
g62
(dp1554
g70
I3
ssg71
g1548
sg64
(lp1555
S'fe80::1020:96b4:4481:ec9b%16'
p1556
asbasbasbag57
(g73
g59
NtRp1557
(dp1558
g62
(dp1559
sg71
g1527
sg64
(lp1560
g57
(g78
g59
NtRp1561
(dp1562
g62
(dp1563
sg71
g1557
sg64
(lp1564
g57
(g58
g59
NtRp1565
(dp1566
g62
(dp1567
g70
I3
ssg71
g1561
sg64
(lp1568
S'192.168.0.196'
p1569
asbasbasbag57
(g73
g59
NtRp1570
(dp1571
g62
(dp1572
sg71
g1527
sg64
(lp1573
g57
(g78
g59
NtRp1574
(dp1575
g62
(dp1576
sg71
g1570
sg64
(lp1577
g57
(g58
g59
NtRp1578
(dp1579
g62
(dp1580
g70
I3
ssg71
g1574
sg64
(lp1581
S'::ffff:127.0.0.1'
p1582
asbasbasbag57
(g73
g59
NtRp1583
(dp1584
g62
(dp1585
sg71
g1527
sg64
(lp1586
g57
(g78
g59
NtRp1587
(dp1588
g62
(dp1589
sg71
g1583
sg64
(lp1590
g57
(g58
g59
NtRp1591
(dp1592
g62
(dp1593
g70
I3
ssg71
g1587
sg64
(lp1594
S'::1'
p1595
asbasbasbag57
(g73
g59
NtRp1596
(dp1597
g62
(dp1598
sg71
g1527
sg64
(lp1599
g57
(g78
g59
NtRp1600
(dp1601
g62
(dp1602
sg71
g1596
sg64
(lp1603
g57
(g58
g59
NtRp1604
(dp1605
g62
(dp1606
g70
I3
ssg71
g1600
sg64
(lp1607
S'fe80::2d25:44dc:a58e:afb9%13'
p1608
asbasbasbag57
(g73
g59
NtRp1609
(dp1610
g62
(dp1611
sg71
g1527
sg64
(lp1612
g57
(g78
g59
NtRp1613
(dp1614
g62
(dp1615
sg71
g1609
sg64
(lp1616
g57
(g58
g59
NtRp1617
(dp1618
g62
(dp1619
g70
I3
ssg71
g1613
sg64
(lp1620
S'Hexed'
p1621
asbasbasbag57
(g73
g59
NtRp1622
(dp1623
g62
(dp1624
sg71
g1527
sg64
(lp1625
g57
(g78
g59
NtRp1626
(dp1627
g62
(dp1628
sg71
g1622
sg64
(lp1629
g57
(g58
g59
NtRp1630
(dp1631
g62
(dp1632
g70
I3
ssg71
g1626
sg64
(lp1633
S'127.0.0.1'
p1634
asbasbasbasbasbasbasbag57
(g73
g59
NtRp1635
(dp1636
g62
(dp1637
sg71
g1315
sg64
(lp1638
g57
(g78
g59
NtRp1639
(dp1640
g62
(dp1641
g82
g83
ssg71
g1635
sg64
(lp1642
g923
asbag57
(g78
g59
NtRp1643
(dp1644
g62
(dp1645
g89
g90
ssg71
g1635
sg64
(lp1646
S':'
asbag57
(g78
g59
NtRp1647
(dp1648
g62
(dp1649
sg71
g1635
sg64
(lp1650
g57
(g58
g59
NtRp1651
(dp1652
g62
(dp1653
g70
I4
ssg71
g1647
sg64
(lp1654
g57
(g66
g59
NtRp1655
(dp1656
g62
(dp1657
g70
I3
ssg71
Nsg64
(lp1658
g57
(g73
g59
NtRp1659
(dp1660
g62
(dp1661
sg71
g1655
sg64
(lp1662
g57
(g78
g59
NtRp1663
(dp1664
g62
(dp1665
sg71
g1659
sg64
(lp1666
g57
(g58
g59
NtRp1667
(dp1668
g62
(dp1669
g70
I3
ssg71
g1663
sg64
(lp1670
S'2'
asbasbasbag57
(g73
g59
NtRp1671
(dp1672
g62
(dp1673
sg71
g1655
sg64
(lp1674
g57
(g78
g59
NtRp1675
(dp1676
g62
(dp1677
sg71
g1671
sg64
(lp1678
g57
(g58
g59
NtRp1679
(dp1680
g62
(dp1681
g70
I3
ssg71
g1675
sg64
(lp1682
S'3'
asbasbasbag57
(g73
g59
NtRp1683
(dp1684
g62
(dp1685
sg71
g1655
sg64
(lp1686
g57
(g78
g59
NtRp1687
(dp1688
g62
(dp1689
sg71
g1683
sg64
(lp1690
g57
(g58
g59
NtRp1691
(dp1692
g62
(dp1693
g70
I3
ssg71
g1687
sg64
(lp1694
S'2'
asbasbasbag57
(g73
g59
NtRp1695
(dp1696
g62
(dp1697
sg71
g1655
sg64
(lp1698
g57
(g78
g59
NtRp1699
(dp1700
g62
(dp1701
sg71
g1695
sg64
(lp1702
g57
(g58
g59
NtRp1703
(dp1704
g62
(dp1705
g70
I3
ssg71
g1699
sg64
(lp1706
S'datetime.datetime(2012, 12, 17, 15, 3, 30)'
p1707
asbasbasbag57
(g73
g59
NtRp1708
(dp1709
g62
(dp1710
sg71
g1655
sg64
(lp1711
g57
(g78
g59
NtRp1712
(dp1713
g62
(dp1714
sg71
g1708
sg64
(lp1715
g57
(g58
g59
NtRp1716
(dp1717
g62
(dp1718
g70
I3
ssg71
g1712
sg64
(lp1719
g1001
asbasbasbasbasbasbasbasbasbasbasbag57
(g73
g59
NtRp1720
(dp1721
g62
(dp1722
sg71
g67
sg64
(lp1723
g57
(g78
g59
NtRp1724
(dp1725
g62
(dp1726
g82
g83
ssg71
g1720
sg64
(lp1727
S'is_https'
p1728
asbag57
(g78
g59
NtRp1729
(dp1730
g62
(dp1731
g89
g90
ssg71
g1720
sg64
(lp1732
S':'
asbag57
(g78
g59
NtRp1733
(dp1734
g62
(dp1735
sg71
g1720
sg64
(lp1736
g57
(g58
g59
NtRp1737
(dp1738
g62
(dp1739
g70
I5
ssg71
g1733
sg64
(lp1740
g100
asbasbasbag57
(g73
g59
NtRp1741
(dp1742
g62
(dp1743
sg71
g67
sg64
(lp1744
g57
(g78
g59
NtRp1745
(dp1746
g62
(dp1747
g82
g83
ssg71
g1741
sg64
(lp1748
S'is_local'
p1749
asbag57
(g78
g59
NtRp1750
(dp1751
g62
(dp1752
g89
g90
ssg71
g1741
sg64
(lp1753
S':'
asbag57
(g78
g59
NtRp1754
(dp1755
g62
(dp1756
sg71
g1741
sg64
(lp1757
g57
(g58
g59
NtRp1758
(dp1759
g62
(dp1760
g70
I5
ssg71
g1754
sg64
(lp1761
g1110
asbasbasbag57
(g73
g59
NtRp1762
(dp1763
g62
(dp1764
sg71
g67
sg64
(lp1765
g57
(g78
g59
NtRp1766
(dp1767
g62
(dp1768
g82
g83
ssg71
g1762
sg64
(lp1769
S'is_restful'
p1770
asbag57
(g78
g59
NtRp1771
(dp1772
g62
(dp1773
g89
g90
ssg71
g1762
sg64
(lp1774
S':'
asbag57
(g78
g59
NtRp1775
(dp1776
g62
(dp1777
sg71
g1762
sg64
(lp1778
g57
(g58
g59
NtRp1779
(dp1780
g62
(dp1781
g70
I5
ssg71
g1775
sg64
(lp1782
g100
asbasbasbag57
(g73
g59
NtRp1783
(dp1784
g62
(dp1785
sg71
g67
sg64
(lp1786
g57
(g78
g59
NtRp1787
(dp1788
g62
(dp1789
g82
g83
ssg71
g1783
sg64
(lp1790
S'now'
p1791
asbag57
(g78
g59
NtRp1792
(dp1793
g62
(dp1794
g89
g90
ssg71
g1783
sg64
(lp1795
S':'
asbag57
(g78
g59
NtRp1796
(dp1797
g62
(dp1798
sg71
g1783
sg64
(lp1799
g57
(g58
g59
NtRp1800
(dp1801
g62
(dp1802
g70
I5
ssg71
g1796
sg64
(lp1803
S'datetime.datetime(2013, 3, 2, 12, 54, 40, 557000)'
p1804
asbasbasbag57
(g73
g59
NtRp1805
(dp1806
g62
(dp1807
sg71
g67
sg64
(lp1808
g57
(g78
g59
NtRp1809
(dp1810
g62
(dp1811
g82
g83
ssg71
g1805
sg64
(lp1812
S'post_vars'
p1813
asbag57
(g78
g59
NtRp1814
(dp1815
g62
(dp1816
g89
g90
ssg71
g1805
sg64
(lp1817
S':'
asbag57
(g78
g59
NtRp1818
(dp1819
g62
(dp1820
sg71
g1805
sg64
(lp1821
g57
(g58
g59
NtRp1822
(dp1823
g62
(dp1824
g70
I5
ssg71
g1818
sg64
(lp1825
g57
(g66
g59
NtRp1826
(dp1827
g62
(dp1828
g70
I4
ssg71
Nsg64
(lp1829
sbasbasbasbag57
(g73
g59
NtRp1830
(dp1831
g62
(dp1832
sg71
g67
sg64
(lp1833
g57
(g78
g59
NtRp1834
(dp1835
g62
(dp1836
g82
g83
ssg71
g1830
sg64
(lp1837
S'raw_args'
p1838
asbag57
(g78
g59
NtRp1839
(dp1840
g62
(dp1841
g89
g90
ssg71
g1830
sg64
(lp1842
S':'
asbag57
(g78
g59
NtRp1843
(dp1844
g62
(dp1845
sg71
g1830
sg64
(lp1846
g57
(g58
g59
NtRp1847
(dp1848
g62
(dp1849
g70
I5
ssg71
g1843
sg64
(lp1850
S''
asbasbasbag57
(g73
g59
NtRp1851
(dp1852
g62
(dp1853
sg71
g67
sg64
(lp1854
g57
(g78
g59
NtRp1855
(dp1856
g62
(dp1857
g82
g83
ssg71
g1851
sg64
(lp1858
S'raw_extension'
p1859
asbag57
(g78
g59
NtRp1860
(dp1861
g62
(dp1862
g89
g90
ssg71
g1851
sg64
(lp1863
S':'
asbag57
(g78
g59
NtRp1864
(dp1865
g62
(dp1866
sg71
g1851
sg64
(lp1867
g57
(g58
g59
NtRp1868
(dp1869
g62
(dp1870
g70
I5
ssg71
g1864
sg64
(lp1871
S'None'
p1872
asbasbasbag57
(g73
g59
NtRp1873
(dp1874
g62
(dp1875
sg71
g67
sg64
(lp1876
g57
(g78
g59
NtRp1877
(dp1878
g62
(dp1879
g82
g83
ssg71
g1873
sg64
(lp1880
S'url'
p1881
asbag57
(g78
g59
NtRp1882
(dp1883
g62
(dp1884
g89
g90
ssg71
g1873
sg64
(lp1885
S':'
asbag57
(g78
g59
NtRp1886
(dp1887
g62
(dp1888
sg71
g1873
sg64
(lp1889
g57
(g58
g59
NtRp1890
(dp1891
g62
(dp1892
g70
I5
ssg71
g1886
sg64
(lp1893
S'/'
asbasbasbag57
(g73
g59
NtRp1894
(dp1895
g62
(dp1896
sg71
g67
sg64
(lp1897
g57
(g78
g59
NtRp1898
(dp1899
g62
(dp1900
g82
g83
ssg71
g1894
sg64
(lp1901
S'utcnow'
p1902
asbag57
(g78
g59
NtRp1903
(dp1904
g62
(dp1905
g89
g90
ssg71
g1894
sg64
(lp1906
S':'
asbag57
(g78
g59
NtRp1907
(dp1908
g62
(dp1909
sg71
g1894
sg64
(lp1910
g57
(g58
g59
NtRp1911
(dp1912
g62
(dp1913
g70
I5
ssg71
g1907
sg64
(lp1914
S'datetime.datetime(2013, 3, 2, 15, 54, 40, 557000)'
p1915
asbasbasbag57
(g73
g59
NtRp1916
(dp1917
g62
(dp1918
sg71
g67
sg64
(lp1919
g57
(g78
g59
NtRp1920
(dp1921
g62
(dp1922
g82
g83
ssg71
g1916
sg64
(lp1923
S'uuid'
p1924
asbag57
(g78
g59
NtRp1925
(dp1926
g62
(dp1927
g89
g90
ssg71
g1916
sg64
(lp1928
S':'
asbag57
(g78
g59
NtRp1929
(dp1930
g62
(dp1931
sg71
g1916
sg64
(lp1932
g57
(g58
g59
NtRp1933
(dp1934
g62
(dp1935
g70
I5
ssg71
g1929
sg64
(lp1936
S'PFM_Web/127.0.0.1.2013-03-02.12-54-40.40f97395-a9af-451f-862d-0d67ec4c5468'
p1937
asbasbasbag57
(g73
g59
NtRp1938
(dp1939
g62
(dp1940
sg71
g67
sg64
(lp1941
g57
(g78
g59
NtRp1942
(dp1943
g62
(dp1944
g82
g83
ssg71
g1938
sg64
(lp1945
S'vars'
p1946
asbag57
(g78
g59
NtRp1947
(dp1948
g62
(dp1949
g89
g90
ssg71
g1938
sg64
(lp1950
S':'
asbag57
(g78
g59
NtRp1951
(dp1952
g62
(dp1953
sg71
g1938
sg64
(lp1954
g57
(g58
g59
NtRp1955
(dp1956
g62
(dp1957
g70
I5
ssg71
g1951
sg64
(lp1958
g57
(g66
g59
NtRp1959
(dp1960
g62
(dp1961
g70
I4
ssg71
Nsg64
(lp1962
sbasbasbasbag57
(g73
g59
NtRp1963
(dp1964
g62
(dp1965
sg71
g67
sg64
(lp1966
g57
(g78
g59
NtRp1967
(dp1968
g62
(dp1969
g82
g83
ssg71
g1963
sg64
(lp1970
S'wsgi'
p1971
asbag57
(g78
g59
NtRp1972
(dp1973
g62
(dp1974
g89
g90
ssg71
g1963
sg64
(lp1975
S':'
asbag57
(g78
g59
NtRp1976
(dp1977
g62
(dp1978
sg71
g1963
sg64
(lp1979
g57
(g58
g59
NtRp1980
(dp1981
g62
(dp1982
g70
I5
ssg71
g1976
sg64
(lp1983
g57
(g66
g59
NtRp1984
(dp1985
g62
(dp1986
g70
I4
ssg71
Nsg64
(lp1987
g57
(g73
g59
NtRp1988
(dp1989
g62
(dp1990
sg71
g1984
sg64
(lp1991
g57
(g78
g59
NtRp1992
(dp1993
g62
(dp1994
g82
g83
ssg71
g1988
sg64
(lp1995
S'environ'
p1996
asbag57
(g78
g59
NtRp1997
(dp1998
g62
(dp1999
g89
g90
ssg71
g1988
sg64
(lp2000
S':'
asbag57
(g78
g59
NtRp2001
(dp2002
g62
(dp2003
sg71
g1988
sg64
(lp2004
g57
(g58
g59
NtRp2005
(dp2006
g62
(dp2007
g70
I4
ssg71
g2001
sg64
(lp2008
g57
(g66
g59
NtRp2009
(dp2010
g62
(dp2011
g70
I3
ssg71
Nsg64
(lp2012
g57
(g73
g59
NtRp2013
(dp2014
g62
(dp2015
sg71
g2009
sg64
(lp2016
g57
(g78
g59
NtRp2017
(dp2018
g62
(dp2019
g82
g83
ssg71
g2013
sg64
(lp2020
S'HTTP_ACCEPT'
p2021
asbag57
(g78
g59
NtRp2022
(dp2023
g62
(dp2024
g89
g90
ssg71
g2013
sg64
(lp2025
S':'
asbag57
(g78
g59
NtRp2026
(dp2027
g62
(dp2028
sg71
g2013
sg64
(lp2029
g57
(g58
g59
NtRp2030
(dp2031
g62
(dp2032
g70
I3
ssg71
g2026
sg64
(lp2033
g462
asbasbasbag57
(g73
g59
NtRp2034
(dp2035
g62
(dp2036
sg71
g2009
sg64
(lp2037
g57
(g78
g59
NtRp2038
(dp2039
g62
(dp2040
g82
g83
ssg71
g2034
sg64
(lp2041
S'HTTP_ACCEPT_ENCODING'
p2042
asbag57
(g78
g59
NtRp2043
(dp2044
g62
(dp2045
g89
g90
ssg71
g2034
sg64
(lp2046
S':'
asbag57
(g78
g59
NtRp2047
(dp2048
g62
(dp2049
sg71
g2034
sg64
(lp2050
g57
(g58
g59
NtRp2051
(dp2052
g62
(dp2053
g70
I3
ssg71
g2047
sg64
(lp2054
g484
asbasbasbag57
(g73
g59
NtRp2055
(dp2056
g62
(dp2057
sg71
g2009
sg64
(lp2058
g57
(g78
g59
NtRp2059
(dp2060
g62
(dp2061
g82
g83
ssg71
g2055
sg64
(lp2062
S'HTTP_ACCEPT_LANGUAGE'
p2063
asbag57
(g78
g59
NtRp2064
(dp2065
g62
(dp2066
g89
g90
ssg71
g2055
sg64
(lp2067
S':'
asbag57
(g78
g59
NtRp2068
(dp2069
g62
(dp2070
sg71
g2055
sg64
(lp2071
g57
(g58
g59
NtRp2072
(dp2073
g62
(dp2074
g70
I3
ssg71
g2068
sg64
(lp2075
g506
asbasbasbag57
(g73
g59
NtRp2076
(dp2077
g62
(dp2078
sg71
g2009
sg64
(lp2079
g57
(g78
g59
NtRp2080
(dp2081
g62
(dp2082
g82
g83
ssg71
g2076
sg64
(lp2083
S'HTTP_CONNECTION'
p2084
asbag57
(g78
g59
NtRp2085
(dp2086
g62
(dp2087
g89
g90
ssg71
g2076
sg64
(lp2088
S':'
asbag57
(g78
g59
NtRp2089
(dp2090
g62
(dp2091
sg71
g2076
sg64
(lp2092
g57
(g58
g59
NtRp2093
(dp2094
g62
(dp2095
g70
I3
ssg71
g2089
sg64
(lp2096
g528
asbasbasbag57
(g73
g59
NtRp2097
(dp2098
g62
(dp2099
sg71
g2009
sg64
(lp2100
g57
(g78
g59
NtRp2101
(dp2102
g62
(dp2103
g82
g83
ssg71
g2097
sg64
(lp2104
S'HTTP_DNT'
p2105
asbag57
(g78
g59
NtRp2106
(dp2107
g62
(dp2108
g89
g90
ssg71
g2097
sg64
(lp2109
S':'
asbag57
(g78
g59
NtRp2110
(dp2111
g62
(dp2112
sg71
g2097
sg64
(lp2113
g57
(g58
g59
NtRp2114
(dp2115
g62
(dp2116
g70
I3
ssg71
g2110
sg64
(lp2117
S'1'
asbasbasbag57
(g73
g59
NtRp2118
(dp2119
g62
(dp2120
sg71
g2009
sg64
(lp2121
g57
(g78
g59
NtRp2122
(dp2123
g62
(dp2124
g82
g83
ssg71
g2118
sg64
(lp2125
S'HTTP_HOST'
p2126
asbag57
(g78
g59
NtRp2127
(dp2128
g62
(dp2129
g89
g90
ssg71
g2118
sg64
(lp2130
S':'
asbag57
(g78
g59
NtRp2131
(dp2132
g62
(dp2133
sg71
g2118
sg64
(lp2134
g57
(g58
g59
NtRp2135
(dp2136
g62
(dp2137
g70
I3
ssg71
g2131
sg64
(lp2138
g571
asbasbasbag57
(g73
g59
NtRp2139
(dp2140
g62
(dp2141
sg71
g2009
sg64
(lp2142
g57
(g78
g59
NtRp2143
(dp2144
g62
(dp2145
g82
g83
ssg71
g2139
sg64
(lp2146
S'HTTP_USER_AGENT'
p2147
asbag57
(g78
g59
NtRp2148
(dp2149
g62
(dp2150
g89
g90
ssg71
g2139
sg64
(lp2151
S':'
asbag57
(g78
g59
NtRp2152
(dp2153
g62
(dp2154
sg71
g2139
sg64
(lp2155
g57
(g58
g59
NtRp2156
(dp2157
g62
(dp2158
g70
I3
ssg71
g2152
sg64
(lp2159
g593
asbasbasbag57
(g73
g59
NtRp2160
(dp2161
g62
(dp2162
sg71
g2009
sg64
(lp2163
g57
(g78
g59
NtRp2164
(dp2165
g62
(dp2166
g82
g83
ssg71
g2160
sg64
(lp2167
S'PATH_INFO'
p2168
asbag57
(g78
g59
NtRp2169
(dp2170
g62
(dp2171
g89
g90
ssg71
g2160
sg64
(lp2172
S':'
asbag57
(g78
g59
NtRp2173
(dp2174
g62
(dp2175
sg71
g2160
sg64
(lp2176
g57
(g58
g59
NtRp2177
(dp2178
g62
(dp2179
g70
I3
ssg71
g2173
sg64
(lp2180
S'/'
asbasbasbag57
(g73
g59
NtRp2181
(dp2182
g62
(dp2183
sg71
g2009
sg64
(lp2184
g57
(g78
g59
NtRp2185
(dp2186
g62
(dp2187
g82
g83
ssg71
g2181
sg64
(lp2188
S'QUERY_STRING'
p2189
asbag57
(g78
g59
NtRp2190
(dp2191
g62
(dp2192
g89
g90
ssg71
g2181
sg64
(lp2193
S':'
asbag57
(g78
g59
NtRp2194
(dp2195
g62
(dp2196
sg71
g2181
sg64
(lp2197
g57
(g58
g59
NtRp2198
(dp2199
g62
(dp2200
g70
I3
ssg71
g2194
sg64
(lp2201
S''
asbasbasbag57
(g73
g59
NtRp2202
(dp2203
g62
(dp2204
sg71
g2009
sg64
(lp2205
g57
(g78
g59
NtRp2206
(dp2207
g62
(dp2208
g82
g83
ssg71
g2202
sg64
(lp2209
S'REMOTE_ADDR'
p2210
asbag57
(g78
g59
NtRp2211
(dp2212
g62
(dp2213
g89
g90
ssg71
g2202
sg64
(lp2214
S':'
asbag57
(g78
g59
NtRp2215
(dp2216
g62
(dp2217
sg71
g2202
sg64
(lp2218
g57
(g58
g59
NtRp2219
(dp2220
g62
(dp2221
g70
I3
ssg71
g2215
sg64
(lp2222
g212
asbasbasbag57
(g73
g59
NtRp2223
(dp2224
g62
(dp2225
sg71
g2009
sg64
(lp2226
g57
(g78
g59
NtRp2227
(dp2228
g62
(dp2229
g82
g83
ssg71
g2223
sg64
(lp2230
S'REMOTE_PORT'
p2231
asbag57
(g78
g59
NtRp2232
(dp2233
g62
(dp2234
g89
g90
ssg71
g2223
sg64
(lp2235
S':'
asbag57
(g78
g59
NtRp2236
(dp2237
g62
(dp2238
sg71
g2223
sg64
(lp2239
g57
(g58
g59
NtRp2240
(dp2241
g62
(dp2242
g70
I3
ssg71
g2236
sg64
(lp2243
g720
asbasbasbag57
(g73
g59
NtRp2244
(dp2245
g62
(dp2246
sg71
g2009
sg64
(lp2247
g57
(g78
g59
NtRp2248
(dp2249
g62
(dp2250
g82
g83
ssg71
g2244
sg64
(lp2251
S'REQUEST_METHOD'
p2252
asbag57
(g78
g59
NtRp2253
(dp2254
g62
(dp2255
g89
g90
ssg71
g2244
sg64
(lp2256
S':'
asbag57
(g78
g59
NtRp2257
(dp2258
g62
(dp2259
sg71
g2244
sg64
(lp2260
g57
(g58
g59
NtRp2261
(dp2262
g62
(dp2263
g70
I3
ssg71
g2257
sg64
(lp2264
g742
asbasbasbag57
(g73
g59
NtRp2265
(dp2266
g62
(dp2267
sg71
g2009
sg64
(lp2268
g57
(g78
g59
NtRp2269
(dp2270
g62
(dp2271
g82
g83
ssg71
g2265
sg64
(lp2272
S'REQUEST_URI'
p2273
asbag57
(g78
g59
NtRp2274
(dp2275
g62
(dp2276
g89
g90
ssg71
g2265
sg64
(lp2277
S':'
asbag57
(g78
g59
NtRp2278
(dp2279
g62
(dp2280
sg71
g2265
sg64
(lp2281
g57
(g58
g59
NtRp2282
(dp2283
g62
(dp2284
g70
I3
ssg71
g2278
sg64
(lp2285
S'/'
asbasbasbag57
(g73
g59
NtRp2286
(dp2287
g62
(dp2288
sg71
g2009
sg64
(lp2289
g57
(g78
g59
NtRp2290
(dp2291
g62
(dp2292
g82
g83
ssg71
g2286
sg64
(lp2293
S'SCRIPT_NAME'
p2294
asbag57
(g78
g59
NtRp2295
(dp2296
g62
(dp2297
g89
g90
ssg71
g2286
sg64
(lp2298
S':'
asbag57
(g78
g59
NtRp2299
(dp2300
g62
(dp2301
sg71
g2286
sg64
(lp2302
g57
(g58
g59
NtRp2303
(dp2304
g62
(dp2305
g70
I3
ssg71
g2299
sg64
(lp2306
S''
asbasbasbag57
(g73
g59
NtRp2307
(dp2308
g62
(dp2309
sg71
g2009
sg64
(lp2310
g57
(g78
g59
NtRp2311
(dp2312
g62
(dp2313
g82
g83
ssg71
g2307
sg64
(lp2314
S'SERVER_NAME'
p2315
asbag57
(g78
g59
NtRp2316
(dp2317
g62
(dp2318
g89
g90
ssg71
g2307
sg64
(lp2319
S':'
asbag57
(g78
g59
NtRp2320
(dp2321
g62
(dp2322
sg71
g2307
sg64
(lp2323
g57
(g58
g59
NtRp2324
(dp2325
g62
(dp2326
g70
I3
ssg71
g2320
sg64
(lp2327
g806
asbasbasbag57
(g73
g59
NtRp2328
(dp2329
g62
(dp2330
sg71
g2009
sg64
(lp2331
g57
(g78
g59
NtRp2332
(dp2333
g62
(dp2334
g82
g83
ssg71
g2328
sg64
(lp2335
S'SERVER_PORT'
p2336
asbag57
(g78
g59
NtRp2337
(dp2338
g62
(dp2339
g89
g90
ssg71
g2328
sg64
(lp2340
S':'
asbag57
(g78
g59
NtRp2341
(dp2342
g62
(dp2343
sg71
g2328
sg64
(lp2344
g57
(g58
g59
NtRp2345
(dp2346
g62
(dp2347
g70
I3
ssg71
g2341
sg64
(lp2348
g828
asbasbasbag57
(g73
g59
NtRp2349
(dp2350
g62
(dp2351
sg71
g2009
sg64
(lp2352
g57
(g78
g59
NtRp2353
(dp2354
g62
(dp2355
g82
g83
ssg71
g2349
sg64
(lp2356
S'SERVER_PROTOCOL'
p2357
asbag57
(g78
g59
NtRp2358
(dp2359
g62
(dp2360
g89
g90
ssg71
g2349
sg64
(lp2361
S':'
asbag57
(g78
g59
NtRp2362
(dp2363
g62
(dp2364
sg71
g2349
sg64
(lp2365
g57
(g58
g59
NtRp2366
(dp2367
g62
(dp2368
g70
I3
ssg71
g2362
sg64
(lp2369
g850
asbasbasbag57
(g73
g59
NtRp2370
(dp2371
g62
(dp2372
sg71
g2009
sg64
(lp2373
g57
(g78
g59
NtRp2374
(dp2375
g62
(dp2376
g82
g83
ssg71
g2370
sg64
(lp2377
S'SERVER_SOFTWARE'
p2378
asbag57
(g78
g59
NtRp2379
(dp2380
g62
(dp2381
g89
g90
ssg71
g2370
sg64
(lp2382
S':'
asbag57
(g78
g59
NtRp2383
(dp2384
g62
(dp2385
sg71
g2370
sg64
(lp2386
g57
(g58
g59
NtRp2387
(dp2388
g62
(dp2389
g70
I3
ssg71
g2383
sg64
(lp2390
g872
asbasbasbag57
(g73
g59
NtRp2391
(dp2392
g62
(dp2393
sg71
g2009
sg64
(lp2394
g57
(g78
g59
NtRp2395
(dp2396
g62
(dp2397
g82
g83
ssg71
g2391
sg64
(lp2398
S'WEB2PY_ORIGINAL_URI'
p2399
asbag57
(g78
g59
NtRp2400
(dp2401
g62
(dp2402
g89
g90
ssg71
g2391
sg64
(lp2403
S':'
asbag57
(g78
g59
NtRp2404
(dp2405
g62
(dp2406
sg71
g2391
sg64
(lp2407
g57
(g58
g59
NtRp2408
(dp2409
g62
(dp2410
g70
I3
ssg71
g2404
sg64
(lp2411
S'/'
asbasbasbag57
(g73
g59
NtRp2412
(dp2413
g62
(dp2414
sg71
g2009
sg64
(lp2415
g57
(g78
g59
NtRp2416
(dp2417
g62
(dp2418
g82
g83
ssg71
g2412
sg64
(lp2419
S'wsgi.errors'
p2420
asbag57
(g78
g59
NtRp2421
(dp2422
g62
(dp2423
g89
g90
ssg71
g2412
sg64
(lp2424
S':'
asbag57
(g78
g59
NtRp2425
(dp2426
g62
(dp2427
sg71
g2412
sg64
(lp2428
g57
(g58
g59
NtRp2429
(dp2430
g62
(dp2431
g70
I3
ssg71
g2425
sg64
(lp2432
S"<open file '<stderr>', mode 'w' at 0x00000000006971E0>"
p2433
asbasbasbag57
(g73
g59
NtRp2434
(dp2435
g62
(dp2436
sg71
g2009
sg64
(lp2437
g57
(g78
g59
NtRp2438
(dp2439
g62
(dp2440
g82
g83
ssg71
g2434
sg64
(lp2441
S'wsgi.file_wrapper'
p2442
asbag57
(g78
g59
NtRp2443
(dp2444
g62
(dp2445
g89
g90
ssg71
g2434
sg64
(lp2446
S':'
asbag57
(g78
g59
NtRp2447
(dp2448
g62
(dp2449
sg71
g2434
sg64
(lp2450
g57
(g58
g59
NtRp2451
(dp2452
g62
(dp2453
g70
I3
ssg71
g2447
sg64
(lp2454
S'<class wsgiref.util.FileWrapper at 0x0000000003092768>'
p2455
asbasbasbag57
(g73
g59
NtRp2456
(dp2457
g62
(dp2458
sg71
g2009
sg64
(lp2459
g57
(g78
g59
NtRp2460
(dp2461
g62
(dp2462
g82
g83
ssg71
g2456
sg64
(lp2463
S'wsgi.input'
p2464
asbag57
(g78
g59
NtRp2465
(dp2466
g62
(dp2467
g89
g90
ssg71
g2456
sg64
(lp2468
S':'
asbag57
(g78
g59
NtRp2469
(dp2470
g62
(dp2471
sg71
g2456
sg64
(lp2472
g57
(g58
g59
NtRp2473
(dp2474
g62
(dp2475
g70
I3
ssg71
g2469
sg64
(lp2476
S'<cStringIO.StringO object at 0x00000000045D63B0>'
p2477
asbasbasbag57
(g73
g59
NtRp2478
(dp2479
g62
(dp2480
sg71
g2009
sg64
(lp2481
g57
(g78
g59
NtRp2482
(dp2483
g62
(dp2484
g82
g83
ssg71
g2478
sg64
(lp2485
S'wsgi.multiprocess'
p2486
asbag57
(g78
g59
NtRp2487
(dp2488
g62
(dp2489
g89
g90
ssg71
g2478
sg64
(lp2490
S':'
asbag57
(g78
g59
NtRp2491
(dp2492
g62
(dp2493
sg71
g2478
sg64
(lp2494
g57
(g58
g59
NtRp2495
(dp2496
g62
(dp2497
g70
I3
ssg71
g2491
sg64
(lp2498
g100
asbasbasbag57
(g73
g59
NtRp2499
(dp2500
g62
(dp2501
sg71
g2009
sg64
(lp2502
g57
(g78
g59
NtRp2503
(dp2504
g62
(dp2505
g82
g83
ssg71
g2499
sg64
(lp2506
S'wsgi.multithread'
p2507
asbag57
(g78
g59
NtRp2508
(dp2509
g62
(dp2510
g89
g90
ssg71
g2499
sg64
(lp2511
S':'
asbag57
(g78
g59
NtRp2512
(dp2513
g62
(dp2514
sg71
g2499
sg64
(lp2515
g57
(g58
g59
NtRp2516
(dp2517
g62
(dp2518
g70
I3
ssg71
g2512
sg64
(lp2519
g1110
asbasbasbag57
(g73
g59
NtRp2520
(dp2521
g62
(dp2522
sg71
g2009
sg64
(lp2523
g57
(g78
g59
NtRp2524
(dp2525
g62
(dp2526
g82
g83
ssg71
g2520
sg64
(lp2527
S'wsgi.run_once'
p2528
asbag57
(g78
g59
NtRp2529
(dp2530
g62
(dp2531
g89
g90
ssg71
g2520
sg64
(lp2532
S':'
asbag57
(g78
g59
NtRp2533
(dp2534
g62
(dp2535
sg71
g2520
sg64
(lp2536
g57
(g58
g59
NtRp2537
(dp2538
g62
(dp2539
g70
I3
ssg71
g2533
sg64
(lp2540
g100
asbasbasbag57
(g73
g59
NtRp2541
(dp2542
g62
(dp2543
sg71
g2009
sg64
(lp2544
g57
(g78
g59
NtRp2545
(dp2546
g62
(dp2547
g82
g83
ssg71
g2541
sg64
(lp2548
S'wsgi.url_scheme'
p2549
asbag57
(g78
g59
NtRp2550
(dp2551
g62
(dp2552
g89
g90
ssg71
g2541
sg64
(lp2553
S':'
asbag57
(g78
g59
NtRp2554
(dp2555
g62
(dp2556
sg71
g2541
sg64
(lp2557
g57
(g58
g59
NtRp2558
(dp2559
g62
(dp2560
g70
I3
ssg71
g2554
sg64
(lp2561
g1153
asbasbasbag57
(g73
g59
NtRp2562
(dp2563
g62
(dp2564
sg71
g2009
sg64
(lp2565
g57
(g78
g59
NtRp2566
(dp2567
g62
(dp2568
g82
g83
ssg71
g2562
sg64
(lp2569
S'wsgi.version'
p2570
asbag57
(g78
g59
NtRp2571
(dp2572
g62
(dp2573
g89
g90
ssg71
g2562
sg64
(lp2574
S':'
asbag57
(g78
g59
NtRp2575
(dp2576
g62
(dp2577
sg71
g2562
sg64
(lp2578
g57
(g58
g59
NtRp2579
(dp2580
g62
(dp2581
g70
I3
ssg71
g2575
sg64
(lp2582
S'1'
asbasbasbasbasbasbasbasbasbasbasbasbasbsS'frames'
p2583
(lp2584
(dp2585
S'file'
p2586
S'C:\\Users\\Juliano\\Documents\\Visual Studio 2012\\Projects\\PFM-Web\\gluon\\restricted.py'
p2587
sS'dump'
p2588
(dp2589
S'environment'
p2590
S"{'A': <class 'gluon.html.A'>, 'Auth': <class 'gluon.tools.Auth'>, 'B': <class 'gluon.html.B'>, 'BEAUTIFY': <class 'gluon.html.BEAUTIFY'>, 'BODY': <class 'gluon.html.BODY'>, 'BR': <class 'gluon.html.BR'>, 'BUTTON': <class 'gluon.html.BUTTON'>, 'CAT': <class 'gluon.html.CAT'>, 'CENTER': <class 'gluon.html.CENTER'>, 'CLEANUP': <class 'gluon.validators.CLEANUP'>, ...}"
p2591
sS'ccode'
p2592
S'<code object <module> at 00000000047C3830, file ...-Web\\applications\\PFM_Web\\models\\db.py", line 12>'
p2593
ssS'lnum'
p2594
I212
sS'lines'
p2595
(dp2596
I207
S'    try:'
p2597
sI208
S'        if isinstance(code, types.CodeType):'
p2598
sI209
S'            ccode = code'
p2599
sI210
S'        else:'
p2600
sI211
S'            ccode = compile2(code, layer)'
p2601
sI212
S'        exec ccode in environment'
p2602
sI213
S'    except HTTP:'
p2603
sI214
S'        raise'
p2604
sI215
S'    except RestrictedError:'
p2605
sI216
S'        # do not encapsulate (obfuscate) the original RestrictedError'
p2606
ssS'call'
p2607
S"(code='# -*- coding: utf-8 -*-\\n\\n#######################...ble auditing\\n# auth.enable_record_versioning(db)\\n', environment={'A': <class 'gluon.html.A'>, 'Auth': <class 'gluon.tools.Auth'>, 'B': <class 'gluon.html.B'>, 'BEAUTIFY': <class 'gluon.html.BEAUTIFY'>, 'BODY': <class 'gluon.html.BODY'>, 'BR': <class 'gluon.html.BR'>, 'BUTTON': <class 'gluon.html.BUTTON'>, 'CAT': <class 'gluon.html.CAT'>, 'CENTER': <class 'gluon.html.CENTER'>, 'CLEANUP': <class 'gluon.validators.CLEANUP'>, ...}, layer=r'C:\\Users\\Juliano\\Documents\\Visual Studio 2012\\Projects\\PFM-Web\\applications\\PFM_Web\\models\\db.py')"
p2608
sS'func'
p2609
S'restricted'
p2610
sa(dp2611
g2586
S'C:\\Users\\Juliano\\Documents\\Visual Studio 2012\\Projects\\PFM-Web\\applications\\PFM_Web\\models\\db.py'
p2612
sg2588
(dp2613
S'email_auth'
p2614
S'undefined'
p2615
ssg2594
I60
sg2595
(dp2616
I64
S'from gluon.contrib.login_methods.rpx_account import use_janrain'
p2617
sI55
S'## configure auth policy'
p2618
sI56
S'auth.settings.registration_requires_verification = False'
p2619
sI57
S'auth.settings.registration_requires_approval = False'
p2620
sI58
S'auth.settings.reset_password_requires_verification = True'
p2621
sI59
S'auth.settings.login_methods.append('
p2622
sI60
S'    email_auth("smtp.gmail.com:587", "@gmail.com"))'
p2623
sI61
S''
sI62
S'## if you need to use OpenID, Facebook, MySpace, Twitter, Linkedin, etc.'
p2624
sI63
S'## register with janrain.com, write your domain:api_key in private/janrain.key'
p2625
ssg2607
S'()'
p2626
sg2609
S'<module>'
p2627
sasS'pyver'
p2628
S'Python 2.7.3: C:\\Python27\\python.exe'
p2629
sS'session'
p2630
g57
(g58
g59
NtRp2631
(dp2632
g62
(dp2633
sg64
(lp2634
g57
(g66
g59
NtRp2635
(dp2636
g62
(dp2637
g70
I5
ssg71
Nsg64
(lp2638
sbasbsS'etype'
p2639
S"<type 'exceptions.NameError'>"
p2640
sS'date'
p2641
S'Sat Mar 02 12:54:42 2013'
p2642
sS'response'
p2643
g57
(g58
g59
NtRp2644
(dp2645
g62
(dp2646
sg64
(lp2647
g57
(g66
g59
NtRp2648
(dp2649
g62
(dp2650
g70
I5
ssg71
Nsg64
(lp2651
g57
(g73
g59
NtRp2652
(dp2653
g62
(dp2654
sg71
g2648
sg64
(lp2655
g57
(g78
g59
NtRp2656
(dp2657
g62
(dp2658
g82
g83
ssg71
g2652
sg64
(lp2659
g155
asbag57
(g78
g59
NtRp2660
(dp2661
g62
(dp2662
g89
g90
ssg71
g2652
sg64
(lp2663
S':'
asbag57
(g78
g59
NtRp2664
(dp2665
g62
(dp2666
sg71
g2652
sg64
(lp2667
g57
(g58
g59
NtRp2668
(dp2669
g62
(dp2670
g70
I5
ssg71
g2664
sg64
(lp2671
S'<cStringIO.StringO object at 0x00000000045D6110>'
p2672
asbasbasbag57
(g73
g59
NtRp2673
(dp2674
g62
(dp2675
sg71
g2648
sg64
(lp2676
g57
(g78
g59
NtRp2677
(dp2678
g62
(dp2679
g82
g83
ssg71
g2673
sg64
(lp2680
g243
asbag57
(g78
g59
NtRp2681
(dp2682
g62
(dp2683
g89
g90
ssg71
g2673
sg64
(lp2684
S':'
asbag57
(g78
g59
NtRp2685
(dp2686
g62
(dp2687
sg71
g2673
sg64
(lp2688
g57
(g58
g59
NtRp2689
(dp2690
g62
(dp2691
g70
I5
ssg71
g2685
sg64
(lp2692
g57
(g66
g59
NtRp2693
(dp2694
g62
(dp2695
g70
I4
ssg71
Nsg64
(lp2696
g57
(g73
g59
NtRp2697
(dp2698
g62
(dp2699
sg71
g2693
sg64
(lp2700
g57
(g78
g59
NtRp2701
(dp2702
g62
(dp2703
g82
g83
ssg71
g2697
sg64
(lp2704
S'session_id_pfm_web'
p2705
asbag57
(g78
g59
NtRp2706
(dp2707
g62
(dp2708
g89
g90
ssg71
g2697
sg64
(lp2709
S':'
asbag57
(g78
g59
NtRp2710
(dp2711
g62
(dp2712
sg71
g2697
sg64
(lp2713
g57
(g58
g59
NtRp2714
(dp2715
g62
(dp2716
g70
I4
ssg71
g2710
sg64
(lp2717
S'127.0.0.1-4d49e1e8-03d2-4e55-bed4-089f0e622d19'
p2718
ag57
(g66
g59
NtRp2719
(dp2720
g62
(dp2721
g70
I3
ssg71
Nsg64
(lp2722
g57
(g73
g59
NtRp2723
(dp2724
g62
(dp2725
sg71
g2719
sg64
(lp2726
g57
(g78
g59
NtRp2727
(dp2728
g62
(dp2729
g82
g83
ssg71
g2723
sg64
(lp2730
S'comment'
p2731
asbag57
(g78
g59
NtRp2732
(dp2733
g62
(dp2734
g89
g90
ssg71
g2723
sg64
(lp2735
S':'
asbag57
(g78
g59
NtRp2736
(dp2737
g62
(dp2738
sg71
g2723
sg64
(lp2739
g57
(g58
g59
NtRp2740
(dp2741
g62
(dp2742
g70
I3
ssg71
g2736
sg64
(lp2743
S''
asbasbasbag57
(g73
g59
NtRp2744
(dp2745
g62
(dp2746
sg71
g2719
sg64
(lp2747
g57
(g78
g59
NtRp2748
(dp2749
g62
(dp2750
g82
g83
ssg71
g2744
sg64
(lp2751
S'domain'
p2752
asbag57
(g78
g59
NtRp2753
(dp2754
g62
(dp2755
g89
g90
ssg71
g2744
sg64
(lp2756
S':'
asbag57
(g78
g59
NtRp2757
(dp2758
g62
(dp2759
sg71
g2744
sg64
(lp2760
g57
(g58
g59
NtRp2761
(dp2762
g62
(dp2763
g70
I3
ssg71
g2757
sg64
(lp2764
S''
asbasbasbag57
(g73
g59
NtRp2765
(dp2766
g62
(dp2767
sg71
g2719
sg64
(lp2768
g57
(g78
g59
NtRp2769
(dp2770
g62
(dp2771
g82
g83
ssg71
g2765
sg64
(lp2772
S'expires'
p2773
asbag57
(g78
g59
NtRp2774
(dp2775
g62
(dp2776
g89
g90
ssg71
g2765
sg64
(lp2777
S':'
asbag57
(g78
g59
NtRp2778
(dp2779
g62
(dp2780
sg71
g2765
sg64
(lp2781
g57
(g58
g59
NtRp2782
(dp2783
g62
(dp2784
g70
I3
ssg71
g2778
sg64
(lp2785
S''
asbasbasbag57
(g73
g59
NtRp2786
(dp2787
g62
(dp2788
sg71
g2719
sg64
(lp2789
g57
(g78
g59
NtRp2790
(dp2791
g62
(dp2792
g82
g83
ssg71
g2786
sg64
(lp2793
S'httponly'
p2794
asbag57
(g78
g59
NtRp2795
(dp2796
g62
(dp2797
g89
g90
ssg71
g2786
sg64
(lp2798
S':'
asbag57
(g78
g59
NtRp2799
(dp2800
g62
(dp2801
sg71
g2786
sg64
(lp2802
g57
(g58
g59
NtRp2803
(dp2804
g62
(dp2805
g70
I3
ssg71
g2799
sg64
(lp2806
S''
asbasbasbag57
(g73
g59
NtRp2807
(dp2808
g62
(dp2809
sg71
g2719
sg64
(lp2810
g57
(g78
g59
NtRp2811
(dp2812
g62
(dp2813
g82
g83
ssg71
g2807
sg64
(lp2814
S'max-age'
p2815
asbag57
(g78
g59
NtRp2816
(dp2817
g62
(dp2818
g89
g90
ssg71
g2807
sg64
(lp2819
S':'
asbag57
(g78
g59
NtRp2820
(dp2821
g62
(dp2822
sg71
g2807
sg64
(lp2823
g57
(g58
g59
NtRp2824
(dp2825
g62
(dp2826
g70
I3
ssg71
g2820
sg64
(lp2827
S''
asbasbasbag57
(g73
g59
NtRp2828
(dp2829
g62
(dp2830
sg71
g2719
sg64
(lp2831
g57
(g78
g59
NtRp2832
(dp2833
g62
(dp2834
g82
g83
ssg71
g2828
sg64
(lp2835
S'path'
p2836
asbag57
(g78
g59
NtRp2837
(dp2838
g62
(dp2839
g89
g90
ssg71
g2828
sg64
(lp2840
S':'
asbag57
(g78
g59
NtRp2841
(dp2842
g62
(dp2843
sg71
g2828
sg64
(lp2844
g57
(g58
g59
NtRp2845
(dp2846
g62
(dp2847
g70
I3
ssg71
g2841
sg64
(lp2848
S'/'
asbasbasbag57
(g73
g59
NtRp2849
(dp2850
g62
(dp2851
sg71
g2719
sg64
(lp2852
g57
(g78
g59
NtRp2853
(dp2854
g62
(dp2855
g82
g83
ssg71
g2849
sg64
(lp2856
S'secure'
p2857
asbag57
(g78
g59
NtRp2858
(dp2859
g62
(dp2860
g89
g90
ssg71
g2849
sg64
(lp2861
S':'
asbag57
(g78
g59
NtRp2862
(dp2863
g62
(dp2864
sg71
g2849
sg64
(lp2865
g57
(g58
g59
NtRp2866
(dp2867
g62
(dp2868
g70
I3
ssg71
g2862
sg64
(lp2869
S''
asbasbasbag57
(g73
g59
NtRp2870
(dp2871
g62
(dp2872
sg71
g2719
sg64
(lp2873
g57
(g78
g59
NtRp2874
(dp2875
g62
(dp2876
g82
g83
ssg71
g2870
sg64
(lp2877
S'version'
p2878
asbag57
(g78
g59
NtRp2879
(dp2880
g62
(dp2881
g89
g90
ssg71
g2870
sg64
(lp2882
S':'
asbag57
(g78
g59
NtRp2883
(dp2884
g62
(dp2885
sg71
g2870
sg64
(lp2886
g57
(g58
g59
NtRp2887
(dp2888
g62
(dp2889
g70
I3
ssg71
g2883
sg64
(lp2890
S''
asbasbasbasbasbasbasbasbasbasbasbag57
(g73
g59
NtRp2891
(dp2892
g62
(dp2893
sg71
g2648
sg64
(lp2894
g57
(g78
g59
NtRp2895
(dp2896
g62
(dp2897
g82
g83
ssg71
g2891
sg64
(lp2898
S'delimiters'
p2899
asbag57
(g78
g59
NtRp2900
(dp2901
g62
(dp2902
g89
g90
ssg71
g2891
sg64
(lp2903
S':'
asbag57
(g78
g59
NtRp2904
(dp2905
g62
(dp2906
sg71
g2891
sg64
(lp2907
g57
(g58
g59
NtRp2908
(dp2909
g62
(dp2910
g70
I5
ssg71
g2904
sg64
(lp2911
g57
(g66
g59
NtRp2912
(dp2913
g62
(dp2914
g70
I4
ssg71
Nsg64
(lp2915
g57
(g73
g59
NtRp2916
(dp2917
g62
(dp2918
sg71
g2912
sg64
(lp2919
g57
(g78
g59
NtRp2920
(dp2921
g62
(dp2922
sg71
g2916
sg64
(lp2923
g57
(g58
g59
NtRp2924
(dp2925
g62
(dp2926
g70
I4
ssg71
g2920
sg64
(lp2927
S'{{'
p2928
asbasbasbag57
(g73
g59
NtRp2929
(dp2930
g62
(dp2931
sg71
g2912
sg64
(lp2932
g57
(g78
g59
NtRp2933
(dp2934
g62
(dp2935
sg71
g2929
sg64
(lp2936
g57
(g58
g59
NtRp2937
(dp2938
g62
(dp2939
g70
I4
ssg71
g2933
sg64
(lp2940
S'}}'
p2941
asbasbasbasbasbasbasbag57
(g73
g59
NtRp2942
(dp2943
g62
(dp2944
sg71
g2648
sg64
(lp2945
g57
(g78
g59
NtRp2946
(dp2947
g62
(dp2948
g82
g83
ssg71
g2942
sg64
(lp2949
S'files'
p2950
asbag57
(g78
g59
NtRp2951
(dp2952
g62
(dp2953
g89
g90
ssg71
g2942
sg64
(lp2954
S':'
asbag57
(g78
g59
NtRp2955
(dp2956
g62
(dp2957
sg71
g2942
sg64
(lp2958
g57
(g58
g59
NtRp2959
(dp2960
g62
(dp2961
g70
I5
ssg71
g2955
sg64
(lp2962
g57
(g66
g59
NtRp2963
(dp2964
g62
(dp2965
g70
I4
ssg71
Nsg64
(lp2966
sbasbasbasbag57
(g73
g59
NtRp2967
(dp2968
g62
(dp2969
sg71
g2648
sg64
(lp2970
g57
(g78
g59
NtRp2971
(dp2972
g62
(dp2973
g82
g83
ssg71
g2967
sg64
(lp2974
S'flash'
p2975
asbag57
(g78
g59
NtRp2976
(dp2977
g62
(dp2978
g89
g90
ssg71
g2967
sg64
(lp2979
S':'
asbag57
(g78
g59
NtRp2980
(dp2981
g62
(dp2982
sg71
g2967
sg64
(lp2983
g57
(g58
g59
NtRp2984
(dp2985
g62
(dp2986
g70
I5
ssg71
g2980
sg64
(lp2987
S''
asbasbasbag57
(g73
g59
NtRp2988
(dp2989
g62
(dp2990
sg71
g2648
sg64
(lp2991
g57
(g78
g59
NtRp2992
(dp2993
g62
(dp2994
g82
g83
ssg71
g2988
sg64
(lp2995
S'generic_patterns'
p2996
asbag57
(g78
g59
NtRp2997
(dp2998
g62
(dp2999
g89
g90
ssg71
g2988
sg64
(lp3000
S':'
asbag57
(g78
g59
NtRp3001
(dp3002
g62
(dp3003
sg71
g2988
sg64
(lp3004
g57
(g58
g59
NtRp3005
(dp3006
g62
(dp3007
g70
I5
ssg71
g3001
sg64
(lp3008
g57
(g66
g59
NtRp3009
(dp3010
g62
(dp3011
g70
I4
ssg71
Nsg64
(lp3012
g57
(g73
g59
NtRp3013
(dp3014
g62
(dp3015
sg71
g3009
sg64
(lp3016
g57
(g78
g59
NtRp3017
(dp3018
g62
(dp3019
sg71
g3013
sg64
(lp3020
g57
(g58
g59
NtRp3021
(dp3022
g62
(dp3023
g70
I4
ssg71
g3017
sg64
(lp3024
S'*'
asbasbasbasbasbasbasbag57
(g73
g59
NtRp3025
(dp3026
g62
(dp3027
sg71
g2648
sg64
(lp3028
g57
(g78
g59
NtRp3029
(dp3030
g62
(dp3031
g82
g83
ssg71
g3025
sg64
(lp3032
S'headers'
p3033
asbag57
(g78
g59
NtRp3034
(dp3035
g62
(dp3036
g89
g90
ssg71
g3025
sg64
(lp3037
S':'
asbag57
(g78
g59
NtRp3038
(dp3039
g62
(dp3040
sg71
g3025
sg64
(lp3041
g57
(g58
g59
NtRp3042
(dp3043
g62
(dp3044
g70
I5
ssg71
g3038
sg64
(lp3045
g57
(g66
g59
NtRp3046
(dp3047
g62
(dp3048
g70
I4
ssg71
Nsg64
(lp3049
g57
(g73
g59
NtRp3050
(dp3051
g62
(dp3052
sg71
g3046
sg64
(lp3053
g57
(g78
g59
NtRp3054
(dp3055
g62
(dp3056
g82
g83
ssg71
g3050
sg64
(lp3057
S'X-Powered-By'
p3058
asbag57
(g78
g59
NtRp3059
(dp3060
g62
(dp3061
g89
g90
ssg71
g3050
sg64
(lp3062
S':'
asbag57
(g78
g59
NtRp3063
(dp3064
g62
(dp3065
sg71
g3050
sg64
(lp3066
g57
(g58
g59
NtRp3067
(dp3068
g62
(dp3069
g70
I4
ssg71
g3063
sg64
(lp3070
S'web2py'
p3071
asbasbasbasbasbasbasbag57
(g73
g59
NtRp3072
(dp3073
g62
(dp3074
sg71
g2648
sg64
(lp3075
g57
(g78
g59
NtRp3076
(dp3077
g62
(dp3078
g82
g83
ssg71
g3072
sg64
(lp3079
S'menu'
p3080
asbag57
(g78
g59
NtRp3081
(dp3082
g62
(dp3083
g89
g90
ssg71
g3072
sg64
(lp3084
S':'
asbag57
(g78
g59
NtRp3085
(dp3086
g62
(dp3087
sg71
g3072
sg64
(lp3088
g57
(g58
g59
NtRp3089
(dp3090
g62
(dp3091
g70
I5
ssg71
g3085
sg64
(lp3092
g57
(g66
g59
NtRp3093
(dp3094
g62
(dp3095
g70
I4
ssg71
Nsg64
(lp3096
sbasbasbasbag57
(g73
g59
NtRp3097
(dp3098
g62
(dp3099
sg71
g2648
sg64
(lp3100
g57
(g78
g59
NtRp3101
(dp3102
g62
(dp3103
g82
g83
ssg71
g3097
sg64
(lp3104
S'meta'
p3105
asbag57
(g78
g59
NtRp3106
(dp3107
g62
(dp3108
g89
g90
ssg71
g3097
sg64
(lp3109
S':'
asbag57
(g78
g59
NtRp3110
(dp3111
g62
(dp3112
sg71
g3097
sg64
(lp3113
g57
(g58
g59
NtRp3114
(dp3115
g62
(dp3116
g70
I5
ssg71
g3110
sg64
(lp3117
g57
(g66
g59
NtRp3118
(dp3119
g62
(dp3120
g70
I4
ssg71
Nsg64
(lp3121
sbasbasbasbag57
(g73
g59
NtRp3122
(dp3123
g62
(dp3124
sg71
g2648
sg64
(lp3125
g57
(g78
g59
NtRp3126
(dp3127
g62
(dp3128
g82
g83
ssg71
g3122
sg64
(lp3129
S'models_to_run'
p3130
asbag57
(g78
g59
NtRp3131
(dp3132
g62
(dp3133
g89
g90
ssg71
g3122
sg64
(lp3134
S':'
asbag57
(g78
g59
NtRp3135
(dp3136
g62
(dp3137
sg71
g3122
sg64
(lp3138
g57
(g58
g59
NtRp3139
(dp3140
g62
(dp3141
g70
I5
ssg71
g3135
sg64
(lp3142
g57
(g66
g59
NtRp3143
(dp3144
g62
(dp3145
g70
I4
ssg71
Nsg64
(lp3146
g57
(g73
g59
NtRp3147
(dp3148
g62
(dp3149
sg71
g3143
sg64
(lp3150
g57
(g78
g59
NtRp3151
(dp3152
g62
(dp3153
sg71
g3147
sg64
(lp3154
g57
(g58
g59
NtRp3155
(dp3156
g62
(dp3157
g70
I4
ssg71
g3151
sg64
(lp3158
S'^\\w+\\.py$'
p3159
asbasbasbag57
(g73
g59
NtRp3160
(dp3161
g62
(dp3162
sg71
g3143
sg64
(lp3163
g57
(g78
g59
NtRp3164
(dp3165
g62
(dp3166
sg71
g3160
sg64
(lp3167
g57
(g58
g59
NtRp3168
(dp3169
g62
(dp3170
g70
I4
ssg71
g3164
sg64
(lp3171
S'^default/\\w+\\.py$'
p3172
asbasbasbag57
(g73
g59
NtRp3173
(dp3174
g62
(dp3175
sg71
g3143
sg64
(lp3176
g57
(g78
g59
NtRp3177
(dp3178
g62
(dp3179
sg71
g3173
sg64
(lp3180
g57
(g58
g59
NtRp3181
(dp3182
g62
(dp3183
g70
I4
ssg71
g3177
sg64
(lp3184
S'^default/index/\\w+\\.py$'
p3185
asbasbasbasbasbasbasbag57
(g73
g59
NtRp3186
(dp3187
g62
(dp3188
sg71
g2648
sg64
(lp3189
g57
(g78
g59
NtRp3190
(dp3191
g62
(dp3192
g82
g83
ssg71
g3186
sg64
(lp3193
S'postprocessing'
p3194
asbag57
(g78
g59
NtRp3195
(dp3196
g62
(dp3197
g89
g90
ssg71
g3186
sg64
(lp3198
S':'
asbag57
(g78
g59
NtRp3199
(dp3200
g62
(dp3201
sg71
g3186
sg64
(lp3202
g57
(g58
g59
NtRp3203
(dp3204
g62
(dp3205
g70
I5
ssg71
g3199
sg64
(lp3206
g57
(g66
g59
NtRp3207
(dp3208
g62
(dp3209
g70
I4
ssg71
Nsg64
(lp3210
sbasbasbasbag57
(g73
g59
NtRp3211
(dp3212
g62
(dp3213
sg71
g2648
sg64
(lp3214
g57
(g78
g59
NtRp3215
(dp3216
g62
(dp3217
g82
g83
ssg71
g3211
sg64
(lp3218
S'session_cookie_expires'
p3219
asbag57
(g78
g59
NtRp3220
(dp3221
g62
(dp3222
g89
g90
ssg71
g3211
sg64
(lp3223
S':'
asbag57
(g78
g59
NtRp3224
(dp3225
g62
(dp3226
sg71
g3211
sg64
(lp3227
g57
(g58
g59
NtRp3228
(dp3229
g62
(dp3230
g70
I5
ssg71
g3224
sg64
(lp3231
S'None'
p3232
asbasbasbag57
(g73
g59
NtRp3233
(dp3234
g62
(dp3235
sg71
g2648
sg64
(lp3236
g57
(g78
g59
NtRp3237
(dp3238
g62
(dp3239
g82
g83
ssg71
g3233
sg64
(lp3240
S'session_data_name'
p3241
asbag57
(g78
g59
NtRp3242
(dp3243
g62
(dp3244
g89
g90
ssg71
g3233
sg64
(lp3245
S':'
asbag57
(g78
g59
NtRp3246
(dp3247
g62
(dp3248
sg71
g3233
sg64
(lp3249
g57
(g58
g59
NtRp3250
(dp3251
g62
(dp3252
g70
I5
ssg71
g3246
sg64
(lp3253
S'session_data_pfm_web'
p3254
asbasbasbag57
(g73
g59
NtRp3255
(dp3256
g62
(dp3257
sg71
g2648
sg64
(lp3258
g57
(g78
g59
NtRp3259
(dp3260
g62
(dp3261
g82
g83
ssg71
g3255
sg64
(lp3262
S'session_filename'
p3263
asbag57
(g78
g59
NtRp3264
(dp3265
g62
(dp3266
g89
g90
ssg71
g3255
sg64
(lp3267
S':'
asbag57
(g78
g59
NtRp3268
(dp3269
g62
(dp3270
sg71
g3255
sg64
(lp3271
g57
(g58
g59
NtRp3272
(dp3273
g62
(dp3274
g70
I5
ssg71
g3268
sg64
(lp3275
S'C:\\Users\\Juliano\\Documents\\Visual Studio 2012\\Projects\\PFM-Web\\applications\\PFM_Web\\sessions\\127.0.0.1-4d49e1e8-03d2-4e55-bed4-089f0e622d19'
p3276
asbasbasbag57
(g73
g59
NtRp3277
(dp3278
g62
(dp3279
sg71
g2648
sg64
(lp3280
g57
(g78
g59
NtRp3281
(dp3282
g62
(dp3283
g82
g83
ssg71
g3277
sg64
(lp3284
S'session_id'
p3285
asbag57
(g78
g59
NtRp3286
(dp3287
g62
(dp3288
g89
g90
ssg71
g3277
sg64
(lp3289
S':'
asbag57
(g78
g59
NtRp3290
(dp3291
g62
(dp3292
sg71
g3277
sg64
(lp3293
g57
(g58
g59
NtRp3294
(dp3295
g62
(dp3296
g70
I5
ssg71
g3290
sg64
(lp3297
g2718
asbasbasbag57
(g73
g59
NtRp3298
(dp3299
g62
(dp3300
sg71
g2648
sg64
(lp3301
g57
(g78
g59
NtRp3302
(dp3303
g62
(dp3304
g82
g83
ssg71
g3298
sg64
(lp3305
S'session_id_name'
p3306
asbag57
(g78
g59
NtRp3307
(dp3308
g62
(dp3309
g89
g90
ssg71
g3298
sg64
(lp3310
S':'
asbag57
(g78
g59
NtRp3311
(dp3312
g62
(dp3313
sg71
g3298
sg64
(lp3314
g57
(g58
g59
NtRp3315
(dp3316
g62
(dp3317
g70
I5
ssg71
g3311
sg64
(lp3318
g2705
asbasbasbag57
(g73
g59
NtRp3319
(dp3320
g62
(dp3321
sg71
g2648
sg64
(lp3322
g57
(g78
g59
NtRp3323
(dp3324
g62
(dp3325
g82
g83
ssg71
g3319
sg64
(lp3326
S'session_new'
p3327
asbag57
(g78
g59
NtRp3328
(dp3329
g62
(dp3330
g89
g90
ssg71
g3319
sg64
(lp3331
S':'
asbag57
(g78
g59
NtRp3332
(dp3333
g62
(dp3334
sg71
g3319
sg64
(lp3335
g57
(g58
g59
NtRp3336
(dp3337
g62
(dp3338
g70
I5
ssg71
g3332
sg64
(lp3339
g1110
asbasbasbag57
(g73
g59
NtRp3340
(dp3341
g62
(dp3342
sg71
g2648
sg64
(lp3343
g57
(g78
g59
NtRp3344
(dp3345
g62
(dp3346
g82
g83
ssg71
g3340
sg64
(lp3347
S'session_storage_type'
p3348
asbag57
(g78
g59
NtRp3349
(dp3350
g62
(dp3351
g89
g90
ssg71
g3340
sg64
(lp3352
S':'
asbag57
(g78
g59
NtRp3353
(dp3354
g62
(dp3355
sg71
g3340
sg64
(lp3356
g57
(g58
g59
NtRp3357
(dp3358
g62
(dp3359
g70
I5
ssg71
g3353
sg64
(lp3360
g2586
asbasbasbag57
(g73
g59
NtRp3361
(dp3362
g62
(dp3363
sg71
g2648
sg64
(lp3364
g57
(g78
g59
NtRp3365
(dp3366
g62
(dp3367
g82
g83
ssg71
g3361
sg64
(lp3368
S'status'
p3369
asbag57
(g78
g59
NtRp3370
(dp3371
g62
(dp3372
g89
g90
ssg71
g3361
sg64
(lp3373
S':'
asbag57
(g78
g59
NtRp3374
(dp3375
g62
(dp3376
sg71
g3361
sg64
(lp3377
g57
(g58
g59
NtRp3378
(dp3379
g62
(dp3380
g70
I5
ssg71
g3374
sg64
(lp3381
S'200'
p3382
asbasbasbag57
(g73
g59
NtRp3383
(dp3384
g62
(dp3385
sg71
g2648
sg64
(lp3386
g57
(g78
g59
NtRp3387
(dp3388
g62
(dp3389
g82
g83
ssg71
g3383
sg64
(lp3390
S'view'
p3391
asbag57
(g78
g59
NtRp3392
(dp3393
g62
(dp3394
g89
g90
ssg71
g3383
sg64
(lp3395
S':'
asbag57
(g78
g59
NtRp3396
(dp3397
g62
(dp3398
sg71
g3383
sg64
(lp3399
g57
(g58
g59
NtRp3400
(dp3401
g62
(dp3402
g70
I5
ssg71
g3396
sg64
(lp3403
S'default/index.html'
p3404
asbasbasbasbasbsS'locals'
p3405
(dp3406
S'Service'
p3407
S"<class 'gluon.tools.Service'>"
p3408
sS'OBJECT'
p3409
S"<class 'gluon.html.OBJECT'>"
p3410
sS'SQLDB'
p3411
S"<class 'gluon.dal.DAL'>"
p3412
sg2630
S'<Storage {}>'
p3413
sS'LINK'
p3414
S"<class 'gluon.html.LINK'>"
p3415
sS'BR'
p3416
S"<class 'gluon.html.BR'>"
p3417
sS'local_import'
p3418
S'<function <lambda>>'
p3419
sS'OPTGROUP'
p3420
S"<class 'gluon.html.OPTGROUP'>"
p3421
sS'__package__'
p3422
S'None'
p3423
sS'PRE'
p3424
S"<class 'gluon.html.PRE'>"
p3425
sS'IS_INT_IN_RANGE'
p3426
S"<class 'gluon.validators.IS_INT_IN_RANGE'>"
p3427
sS'IS_LOWER'
p3428
S"<class 'gluon.validators.IS_LOWER'>"
p3429
sS'IS_STRONG'
p3430
S"<class 'gluon.validators.IS_STRONG'>"
p3431
sS'cache'
p3432
S'<gluon.cache.Cache object>'
p3433
sS'IS_IN_DB'
p3434
S"<class 'gluon.validators.IS_IN_DB'>"
p3435
sS'TAG'
p3436
S'<gluon.html.__TAG__ object>'
p3437
sS'SQLField'
p3438
S"<class 'gluon.dal.Field'>"
p3439
sS'mail'
p3440
S'<gluon.tools.Mail object>'
p3441
sS'BODY'
p3442
S"<class 'gluon.html.BODY'>"
p3443
sS'IS_DATE_IN_RANGE'
p3444
S"<class 'gluon.validators.IS_DATE_IN_RANGE'>"
p3445
sS'TH'
p3446
S"<class 'gluon.html.TH'>"
p3447
sS'URL'
p3448
S'<function URL>'
p3449
sS'__file__'
p3450
S"r'C:\\Users\\Juliano\\Documents\\Visual Studio 2012\\Projects\\PFM-Web\\applications\\PFM_Web\\models\\db.py'"
p3451
sS'db'
p3452
S'<DAL uri="sqlite://storage.sqlite">'
p3453
sS'auth'
p3454
S'<gluon.tools.Auth object>'
p3455
sS'P'
S"<class 'gluon.html.P'>"
p3456
sS'TFOOT'
p3457
S"<class 'gluon.html.TFOOT'>"
p3458
sS'XHTML'
p3459
S"<class 'gluon.html.XHTML'>"
p3460
sS'ON'
p3461
g1110
sS'OL'
p3462
S"<class 'gluon.html.OL'>"
p3463
sS'TEXTAREA'
p3464
S"<class 'gluon.html.TEXTAREA'>"
p3465
sS'MENU'
p3466
S"<class 'gluon.html.MENU'>"
p3467
sS'LOAD'
p3468
S'<function LOAD>'
p3469
sS'CODE'
p3470
S"<class 'gluon.html.CODE'>"
p3471
sS'HTTP'
p3472
S"<class 'gluon.http.HTTP'>"
p3473
sS'HR'
p3474
S"<class 'gluon.html.HR'>"
p3475
sS'IS_DATETIME'
p3476
S"<class 'gluon.validators.IS_DATETIME'>"
p3477
sS'HEAD'
p3478
S"<class 'gluon.html.HEAD'>"
p3479
sS'LABEL'
p3480
S"<class 'gluon.html.LABEL'>"
p3481
sS'CLEANUP'
p3482
S"<class 'gluon.validators.CLEANUP'>"
p3483
sS'plugins'
p3484
S'<gluon.tools.PluginManager object>'
p3485
sS'SELECT'
p3486
S"<class 'gluon.html.SELECT'>"
p3487
sS'CENTER'
p3488
S"<class 'gluon.html.CENTER'>"
p3489
sS'prettydate'
p3490
S'<function prettydate>'
p3491
sS'Crud'
p3492
S"<class 'gluon.tools.Crud'>"
p3493
sS'Auth'
p3494
S"<class 'gluon.tools.Auth'>"
p3495
sS'__builtins__'
p3496
S"{'ArithmeticError': <type 'exceptions.ArithmeticError'>, 'AssertionError': <type 'exceptions.AssertionError'>, 'AttributeError': <type 'exceptions.AttributeError'>, 'BaseException': <type 'exceptions.BaseException'>, 'BufferError': <type 'exceptions.BufferError'>, 'BytesWarning': <type 'exceptions.BytesWarning'>, 'DeprecationWarning': <type 'exceptions.DeprecationWarning'>, 'EOFError': <type 'exceptions.EOFError'>, 'Ellipsis': Ellipsis, 'EnvironmentError': <type 'exceptions.EnvironmentError'>, ...}"
p3497
sS'HTML'
p3498
S"<class 'gluon.html.HTML'>"
p3499
sS'SQLFORM'
p3500
S"<class 'gluon.sqlhtml.SQLFORM'>"
p3501
sS'EM'
p3502
S"<class 'gluon.html.EM'>"
p3503
sS'redirect'
p3504
S'<function redirect>'
p3505
sS'FIELDSET'
p3506
S"<class 'gluon.html.FIELDSET'>"
p3507
sS'IS_EQUAL_TO'
p3508
S"<class 'gluon.validators.IS_EQUAL_TO'>"
p3509
sS'embed64'
p3510
S'<function embed64>'
p3511
sS'IS_LIST_OF'
p3512
S"<class 'gluon.validators.IS_LIST_OF'>"
p3513
sS'__name__'
p3514
S"'__restricted__'"
p3515
sS'EMBED'
p3516
S"<class 'gluon.html.EMBED'>"
p3517
sS'FORM'
p3518
S"<class 'gluon.html.FORM'>"
p3519
sS'H2'
p3520
S"<class 'gluon.html.H2'>"
p3521
sS'H3'
p3522
S"<class 'gluon.html.H3'>"
p3523
sS'BUTTON'
p3524
S"<class 'gluon.html.BUTTON'>"
p3525
sS'H1'
p3526
S"<class 'gluon.html.H1'>"
p3527
sS'H6'
p3528
S"<class 'gluon.html.H6'>"
p3529
sS'H4'
p3530
S"<class 'gluon.html.H4'>"
p3531
sS'H5'
p3532
S"<class 'gluon.html.H5'>"
p3533
sS'UL'
p3534
S"<class 'gluon.html.UL'>"
p3535
sS'IS_UPPER'
p3536
S"<class 'gluon.validators.IS_UPPER'>"
p3537
sS'xmlescape'
p3538
S'<function xmlescape>'
p3539
sS'IS_TIME'
p3540
S"<class 'gluon.validators.IS_TIME'>"
p3541
sS'OPTION'
p3542
S"<class 'gluon.html.OPTION'>"
p3543
sS'TITLE'
p3544
S"<class 'gluon.html.TITLE'>"
p3545
sS'CRYPT'
p3546
S"<class 'gluon.validators.CRYPT'>"
p3547
sS'IS_EMPTY_OR'
p3548
S"<class 'gluon.validators.IS_EMPTY_OR'>"
p3549
sS'MARKMIN'
p3550
S"<class 'gluon.html.MARKMIN'>"
p3551
sS'INPUT'
p3552
S"<class 'gluon.html.INPUT'>"
p3553
sS'STRONG'
p3554
S"<class 'gluon.html.STRONG'>"
p3555
sS'COL'
p3556
S"<class 'gluon.html.COL'>"
p3557
sS'service'
p3558
S'<gluon.tools.Service object>'
p3559
sS'SCRIPT'
p3560
S"<class 'gluon.html.SCRIPT'>"
p3561
sS'TABLE'
p3562
S"<class 'gluon.html.TABLE'>"
p3563
sS'IS_IPV4'
p3564
S"<class 'gluon.validators.IS_IPV4'>"
p3565
sS'IS_LENGTH'
p3566
S"<class 'gluon.validators.IS_LENGTH'>"
p3567
sS'XML'
p3568
S"<class 'gluon.html.XML'>"
p3569
sS'B'
S"<class 'gluon.html.B'>"
p3570
sS'IMG'
p3571
S"<class 'gluon.html.IMG'>"
p3572
sS'SQLTABLE'
p3573
S"<class 'gluon.sqlhtml.SQLTABLE'>"
p3574
sS'IS_MATCH'
p3575
S"<class 'gluon.validators.IS_MATCH'>"
p3576
sS'IS_ALPHANUMERIC'
p3577
S"<class 'gluon.validators.IS_ALPHANUMERIC'>"
p3578
sS'SPAN'
p3579
S"<class 'gluon.html.SPAN'>"
p3580
sS'IS_SLUG'
p3581
S"<class 'gluon.validators.IS_SLUG'>"
p3582
sS'BEAUTIFY'
p3583
S"<class 'gluon.html.BEAUTIFY'>"
p3584
sS'META'
p3585
S"<class 'gluon.html.META'>"
p3586
sS'IS_DATE'
p3587
S"<class 'gluon.validators.IS_DATE'>"
p3588
sS'IS_EMAIL'
p3589
S"<class 'gluon.validators.IS_EMAIL'>"
p3590
sS'IS_NOT_EMPTY'
p3591
S"<class 'gluon.validators.IS_NOT_EMPTY'>"
p3592
sS'IS_FLOAT_IN_RANGE'
p3593
S"<class 'gluon.validators.IS_FLOAT_IN_RANGE'>"
p3594
sS'TBODY'
p3595
S"<class 'gluon.html.TBODY'>"
p3596
sS'CAT'
p3597
S"<class 'gluon.html.CAT'>"
p3598
sS'Field'
p3599
S"<class 'gluon.dal.Field'>"
p3600
sS'DIV'
p3601
S"<class 'gluon.html.DIV'>"
p3602
sS'LEGEND'
p3603
S"<class 'gluon.html.LEGEND'>"
p3604
sS'COLGROUP'
p3605
S"<class 'gluon.html.COLGROUP'>"
p3606
sS'DAL'
p3607
S"<class 'gluon.dal.DAL'>"
p3608
sS'TT'
p3609
S"<class 'gluon.html.TT'>"
p3610
sS'TR'
p3611
S"<class 'gluon.html.TR'>"
p3612
sS'LI'
p3613
S"<class 'gluon.html.LI'>"
p3614
sS'IFRAME'
p3615
S"<class 'gluon.html.IFRAME'>"
p3616
sS'TD'
p3617
S"<class 'gluon.html.TD'>"
p3618
sS'PluginManager'
p3619
S"<class 'gluon.tools.PluginManager'>"
p3620
sS'IS_URL'
p3621
S"<class 'gluon.validators.IS_URL'>"
p3622
sS'A'
S"<class 'gluon.html.A'>"
p3623
sS'STYLE'
p3624
S"<class 'gluon.html.STYLE'>"
p3625
sS'IS_DATETIME_IN_RANGE'
p3626
S"<class 'gluon.validators.IS_DATETIME_IN_RANGE'>"
p3627
sS'IS_IMAGE'
p3628
S"<class 'gluon.validators.IS_IMAGE'>"
p3629
sS'I'
S"<class 'gluon.html.I'>"
p3630
sS'crud'
p3631
S'<gluon.tools.Crud object>'
p3632
sS'IS_NOT_IN_DB'
p3633
S"<class 'gluon.validators.IS_NOT_IN_DB'>"
p3634
sg2643
S"<Storage {'body': <cStringIO.StringO object at 0...00000000045C9198>, 'view': 'default/index.html'}>"
p3635
sS'THEAD'
p3636
S"<class 'gluon.html.THEAD'>"
p3637
sS'IS_NULL_OR'
p3638
S"<class 'gluon.validators.IS_EMPTY_OR'>"
p3639
sg56
S"<Storage {'function': 'index', 'body': <cStringI...ications\\\\PFM_Web\\\\', 'post_vars': <Storage {}>}>"
p3640
sS'IS_EXPR'
p3641
S"<class 'gluon.validators.IS_EXPR'>"
p3642
sS'IS_IN_SET'
p3643
S"<class 'gluon.validators.IS_IN_SET'>"
p3644
sS'IS_UPLOAD_FILENAME'
p3645
S"<class 'gluon.validators.IS_UPLOAD_FILENAME'>"
p3646
sS'IS_DECIMAL_IN_RANGE'
p3647
S"<class 'gluon.validators.IS_DECIMAL_IN_RANGE'>"
p3648
sS'T'
S'<gluon.languages.translator object>'
p3649
sssS'traceback'
p3650
S'Traceback (most recent call last):\n  File "C:\\Users\\Juliano\\Documents\\Visual Studio 2012\\Projects\\PFM-Web\\gluon\\restricted.py", line 212, in restricted\n    exec ccode in environment\n  File "C:\\Users\\Juliano\\Documents\\Visual Studio 2012\\Projects\\PFM-Web\\applications\\PFM_Web\\models\\db.py", line 60, in <module>\n    email_auth("smtp.gmail.com:587", "@gmail.com"))\nNameError: name \'email_auth\' is not defined\n'
p3651
s.